
dhrystone.riscv:     file format elf64-littleriscv


Disassembly of section .text.init:

0000000080000000 <_start>:
    80000000:	4081                	li	ra,0
    80000002:	4101                	li	sp,0
    80000004:	4181                	li	gp,0
    80000006:	4201                	li	tp,0
    80000008:	4281                	li	t0,0
    8000000a:	4301                	li	t1,0
    8000000c:	4381                	li	t2,0
    8000000e:	4401                	li	s0,0
    80000010:	4481                	li	s1,0
    80000012:	4501                	li	a0,0
    80000014:	4581                	li	a1,0
    80000016:	4601                	li	a2,0
    80000018:	4681                	li	a3,0
    8000001a:	4701                	li	a4,0
    8000001c:	4781                	li	a5,0
    8000001e:	4801                	li	a6,0
    80000020:	4881                	li	a7,0
    80000022:	4901                	li	s2,0
    80000024:	4981                	li	s3,0
    80000026:	4a01                	li	s4,0
    80000028:	4a81                	li	s5,0
    8000002a:	4b01                	li	s6,0
    8000002c:	4b81                	li	s7,0
    8000002e:	4c01                	li	s8,0
    80000030:	4c81                	li	s9,0
    80000032:	4d01                	li	s10,0
    80000034:	4d81                	li	s11,0
    80000036:	4e01                	li	t3,0
    80000038:	4e81                	li	t4,0
    8000003a:	4f01                	li	t5,0
    8000003c:	4f81                	li	t6,0
    8000003e:	62f9                	lui	t0,0x1e
    80000040:	6002829b          	addw	t0,t0,1536 # 1e600 <buflen.1+0x1e5c0>
    80000044:	3002a073          	csrs	mstatus,t0
    80000048:	4285                	li	t0,1
    8000004a:	02fe                	sll	t0,t0,0x1f
    8000004c:	0002d863          	bgez	t0,8000005c <_start+0x5c>
    80000050:	4505                	li	a0,1
    80000052:	00001297          	auipc	t0,0x1
    80000056:	faa2a723          	sw	a0,-82(t0) # 80001000 <tohost>
    8000005a:	bfdd                	j	80000050 <_start+0x50>
    8000005c:	00000297          	auipc	t0,0x0
    80000060:	09028293          	add	t0,t0,144 # 800000ec <_start+0xec>
    80000064:	30529073          	csrw	mtvec,t0
    80000068:	00301073          	fscsr	zero
    8000006c:	f0000053          	fmv.w.x	ft0,zero
    80000070:	f00000d3          	fmv.w.x	ft1,zero
    80000074:	f0000153          	fmv.w.x	ft2,zero
    80000078:	f00001d3          	fmv.w.x	ft3,zero
    8000007c:	f0000253          	fmv.w.x	ft4,zero
    80000080:	f00002d3          	fmv.w.x	ft5,zero
    80000084:	f0000353          	fmv.w.x	ft6,zero
    80000088:	f00003d3          	fmv.w.x	ft7,zero
    8000008c:	f0000453          	fmv.w.x	fs0,zero
    80000090:	f00004d3          	fmv.w.x	fs1,zero
    80000094:	f0000553          	fmv.w.x	fa0,zero
    80000098:	f00005d3          	fmv.w.x	fa1,zero
    8000009c:	f0000653          	fmv.w.x	fa2,zero
    800000a0:	f00006d3          	fmv.w.x	fa3,zero
    800000a4:	f0000753          	fmv.w.x	fa4,zero
    800000a8:	f00007d3          	fmv.w.x	fa5,zero
    800000ac:	f0000853          	fmv.w.x	fa6,zero
    800000b0:	f00008d3          	fmv.w.x	fa7,zero
    800000b4:	f0000953          	fmv.w.x	fs2,zero
    800000b8:	f00009d3          	fmv.w.x	fs3,zero
    800000bc:	f0000a53          	fmv.w.x	fs4,zero
    800000c0:	f0000ad3          	fmv.w.x	fs5,zero
    800000c4:	f0000b53          	fmv.w.x	fs6,zero
    800000c8:	f0000bd3          	fmv.w.x	fs7,zero
    800000cc:	f0000c53          	fmv.w.x	fs8,zero
    800000d0:	f0000cd3          	fmv.w.x	fs9,zero
    800000d4:	f0000d53          	fmv.w.x	fs10,zero
    800000d8:	f0000dd3          	fmv.w.x	fs11,zero
    800000dc:	f0000e53          	fmv.w.x	ft8,zero
    800000e0:	f0000ed3          	fmv.w.x	ft9,zero
    800000e4:	f0000f53          	fmv.w.x	ft10,zero
    800000e8:	f0000fd3          	fmv.w.x	ft11,zero
    800000ec:	00000297          	auipc	t0,0x0
    800000f0:	03c28293          	add	t0,t0,60 # 80000128 <trap_entry>
    800000f4:	30529073          	csrw	mtvec,t0
    800000f8:	00004197          	auipc	gp,0x4
    800000fc:	f2c18193          	add	gp,gp,-212 # 80004024 <__global_pointer$>
    80000100:	00006217          	auipc	tp,0x6
    80000104:	fbf20213          	add	tp,tp,-65 # 800060bf <_end+0x3f>
    80000108:	fc027213          	and	tp,tp,-64
    8000010c:	f1402573          	csrr	a0,mhartid
    80000110:	4585                	li	a1,1
    80000112:	00b57063          	bgeu	a0,a1,80000112 <_start+0x112>
    80000116:	00150113          	add	sp,a0,1
    8000011a:	0146                	sll	sp,sp,0x11
    8000011c:	9112                	add	sp,sp,tp
    8000011e:	01151613          	sll	a2,a0,0x11
    80000122:	9232                	add	tp,tp,a2
    80000124:	7040206f          	j	80002828 <_init>

0000000080000128 <trap_entry>:
    80000128:	716d                	add	sp,sp,-272
    8000012a:	e406                	sd	ra,8(sp)
    8000012c:	e80a                	sd	sp,16(sp)
    8000012e:	ec0e                	sd	gp,24(sp)
    80000130:	f012                	sd	tp,32(sp)
    80000132:	f416                	sd	t0,40(sp)
    80000134:	f81a                	sd	t1,48(sp)
    80000136:	fc1e                	sd	t2,56(sp)
    80000138:	e0a2                	sd	s0,64(sp)
    8000013a:	e4a6                	sd	s1,72(sp)
    8000013c:	e8aa                	sd	a0,80(sp)
    8000013e:	ecae                	sd	a1,88(sp)
    80000140:	f0b2                	sd	a2,96(sp)
    80000142:	f4b6                	sd	a3,104(sp)
    80000144:	f8ba                	sd	a4,112(sp)
    80000146:	fcbe                	sd	a5,120(sp)
    80000148:	e142                	sd	a6,128(sp)
    8000014a:	e546                	sd	a7,136(sp)
    8000014c:	e94a                	sd	s2,144(sp)
    8000014e:	ed4e                	sd	s3,152(sp)
    80000150:	f152                	sd	s4,160(sp)
    80000152:	f556                	sd	s5,168(sp)
    80000154:	f95a                	sd	s6,176(sp)
    80000156:	fd5e                	sd	s7,184(sp)
    80000158:	e1e2                	sd	s8,192(sp)
    8000015a:	e5e6                	sd	s9,200(sp)
    8000015c:	e9ea                	sd	s10,208(sp)
    8000015e:	edee                	sd	s11,216(sp)
    80000160:	f1f2                	sd	t3,224(sp)
    80000162:	f5f6                	sd	t4,232(sp)
    80000164:	f9fa                	sd	t5,240(sp)
    80000166:	fdfe                	sd	t6,248(sp)
    80000168:	34202573          	csrr	a0,mcause
    8000016c:	341025f3          	csrr	a1,mepc
    80000170:	860a                	mv	a2,sp
    80000172:	47e020ef          	jal	800025f0 <handle_trap>
    80000176:	34151073          	csrw	mepc,a0
    8000017a:	6289                	lui	t0,0x2
    8000017c:	8002829b          	addw	t0,t0,-2048 # 1800 <buflen.1+0x17c0>
    80000180:	3002a073          	csrs	mstatus,t0
    80000184:	60a2                	ld	ra,8(sp)
    80000186:	6142                	ld	sp,16(sp)
    80000188:	61e2                	ld	gp,24(sp)
    8000018a:	7202                	ld	tp,32(sp)
    8000018c:	72a2                	ld	t0,40(sp)
    8000018e:	7342                	ld	t1,48(sp)
    80000190:	73e2                	ld	t2,56(sp)
    80000192:	6406                	ld	s0,64(sp)
    80000194:	64a6                	ld	s1,72(sp)
    80000196:	6546                	ld	a0,80(sp)
    80000198:	65e6                	ld	a1,88(sp)
    8000019a:	7606                	ld	a2,96(sp)
    8000019c:	76a6                	ld	a3,104(sp)
    8000019e:	7746                	ld	a4,112(sp)
    800001a0:	77e6                	ld	a5,120(sp)
    800001a2:	680a                	ld	a6,128(sp)
    800001a4:	68aa                	ld	a7,136(sp)
    800001a6:	694a                	ld	s2,144(sp)
    800001a8:	69ea                	ld	s3,152(sp)
    800001aa:	7a0a                	ld	s4,160(sp)
    800001ac:	7aaa                	ld	s5,168(sp)
    800001ae:	7b4a                	ld	s6,176(sp)
    800001b0:	7bea                	ld	s7,184(sp)
    800001b2:	6c0e                	ld	s8,192(sp)
    800001b4:	6cae                	ld	s9,200(sp)
    800001b6:	6d4e                	ld	s10,208(sp)
    800001b8:	6dee                	ld	s11,216(sp)
    800001ba:	7e0e                	ld	t3,224(sp)
    800001bc:	7eae                	ld	t4,232(sp)
    800001be:	7f4e                	ld	t5,240(sp)
    800001c0:	7fee                	ld	t6,248(sp)
    800001c2:	6151                	add	sp,sp,272
    800001c4:	30200073          	mret
    800001c8:	0000                	unimp

Disassembly of section .text:

0000000080002000 <Proc_7>:
    80002000:	2509                	addw	a0,a0,2
    80002002:	9da9                	addw	a1,a1,a0
    80002004:	c20c                	sw	a1,0(a2)
    80002006:	8082                	ret

0000000080002008 <Proc_8>:
    80002008:	0056079b          	addw	a5,a2,5
    8000200c:	0c800713          	li	a4,200
    80002010:	02e78733          	mul	a4,a5,a4
    80002014:	883e                	mv	a6,a5
    80002016:	060a                	sll	a2,a2,0x2
    80002018:	078a                	sll	a5,a5,0x2
    8000201a:	953e                	add	a0,a0,a5
    8000201c:	c114                	sw	a3,0(a0)
    8000201e:	c154                	sw	a3,4(a0)
    80002020:	07052c23          	sw	a6,120(a0)
    80002024:	00c707b3          	add	a5,a4,a2
    80002028:	97ae                	add	a5,a5,a1
    8000202a:	4b94                	lw	a3,16(a5)
    8000202c:	0107aa23          	sw	a6,20(a5)
    80002030:	0107ac23          	sw	a6,24(a5)
    80002034:	2685                	addw	a3,a3,1
    80002036:	cb94                	sw	a3,16(a5)
    80002038:	4114                	lw	a3,0(a0)
    8000203a:	95ba                	add	a1,a1,a4
    8000203c:	95b2                	add	a1,a1,a2
    8000203e:	6785                	lui	a5,0x1
    80002040:	97ae                	add	a5,a5,a1
    80002042:	fad7aa23          	sw	a3,-76(a5) # fb4 <buflen.1+0xf74>
    80002046:	4795                	li	a5,5
    80002048:	82f1ae23          	sw	a5,-1988(gp) # 80003860 <Int_Glob>
    8000204c:	8082                	ret

000000008000204e <Func_1>:
    8000204e:	0ff57513          	zext.b	a0,a0
    80002052:	0ff5f593          	zext.b	a1,a1
    80002056:	00b50463          	beq	a0,a1,8000205e <Func_1+0x10>
    8000205a:	4501                	li	a0,0
    8000205c:	8082                	ret
    8000205e:	82a18aa3          	sb	a0,-1995(gp) # 80003859 <Ch_1_Glob>
    80002062:	4505                	li	a0,1
    80002064:	8082                	ret

0000000080002066 <Func_2>:
    80002066:	1101                	add	sp,sp,-32
    80002068:	e822                	sd	s0,16(sp)
    8000206a:	e426                	sd	s1,8(sp)
    8000206c:	ec06                	sd	ra,24(sp)
    8000206e:	842a                	mv	s0,a0
    80002070:	84ae                	mv	s1,a1
    80002072:	0034c583          	lbu	a1,3(s1)
    80002076:	00244503          	lbu	a0,2(s0)
    8000207a:	fd5ff0ef          	jal	8000204e <Func_1>
    8000207e:	f975                	bnez	a0,80002072 <Func_2+0xc>
    80002080:	85a6                	mv	a1,s1
    80002082:	8522                	mv	a0,s0
    80002084:	0a3000ef          	jal	80002926 <strcmp>
    80002088:	4781                	li	a5,0
    8000208a:	00a05663          	blez	a0,80002096 <Func_2+0x30>
    8000208e:	47a9                	li	a5,10
    80002090:	82f1ae23          	sw	a5,-1988(gp) # 80003860 <Int_Glob>
    80002094:	4785                	li	a5,1
    80002096:	60e2                	ld	ra,24(sp)
    80002098:	6442                	ld	s0,16(sp)
    8000209a:	64a2                	ld	s1,8(sp)
    8000209c:	853e                	mv	a0,a5
    8000209e:	6105                	add	sp,sp,32
    800020a0:	8082                	ret

00000000800020a2 <Func_3>:
    800020a2:	1579                	add	a0,a0,-2
    800020a4:	00153513          	seqz	a0,a0
    800020a8:	8082                	ret

00000000800020aa <Proc_6>:
    800020aa:	1101                	add	sp,sp,-32
    800020ac:	e822                	sd	s0,16(sp)
    800020ae:	e426                	sd	s1,8(sp)
    800020b0:	ec06                	sd	ra,24(sp)
    800020b2:	842a                	mv	s0,a0
    800020b4:	84ae                	mv	s1,a1
    800020b6:	fedff0ef          	jal	800020a2 <Func_3>
    800020ba:	478d                	li	a5,3
    800020bc:	c111                	beqz	a0,800020c0 <Proc_6+0x16>
    800020be:	87a2                	mv	a5,s0
    800020c0:	c09c                	sw	a5,0(s1)
    800020c2:	4789                	li	a5,2
    800020c4:	02f40b63          	beq	s0,a5,800020fa <Proc_6+0x50>
    800020c8:	0287e063          	bltu	a5,s0,800020e8 <Proc_6+0x3e>
    800020cc:	c419                	beqz	s0,800020da <Proc_6+0x30>
    800020ce:	83c1a703          	lw	a4,-1988(gp) # 80003860 <Int_Glob>
    800020d2:	06400793          	li	a5,100
    800020d6:	02e7d963          	bge	a5,a4,80002108 <Proc_6+0x5e>
    800020da:	60e2                	ld	ra,24(sp)
    800020dc:	6442                	ld	s0,16(sp)
    800020de:	0004a023          	sw	zero,0(s1)
    800020e2:	64a2                	ld	s1,8(sp)
    800020e4:	6105                	add	sp,sp,32
    800020e6:	8082                	ret
    800020e8:	4711                	li	a4,4
    800020ea:	00e41363          	bne	s0,a4,800020f0 <Proc_6+0x46>
    800020ee:	c09c                	sw	a5,0(s1)
    800020f0:	60e2                	ld	ra,24(sp)
    800020f2:	6442                	ld	s0,16(sp)
    800020f4:	64a2                	ld	s1,8(sp)
    800020f6:	6105                	add	sp,sp,32
    800020f8:	8082                	ret
    800020fa:	60e2                	ld	ra,24(sp)
    800020fc:	6442                	ld	s0,16(sp)
    800020fe:	4785                	li	a5,1
    80002100:	c09c                	sw	a5,0(s1)
    80002102:	64a2                	ld	s1,8(sp)
    80002104:	6105                	add	sp,sp,32
    80002106:	8082                	ret
    80002108:	60e2                	ld	ra,24(sp)
    8000210a:	6442                	ld	s0,16(sp)
    8000210c:	478d                	li	a5,3
    8000210e:	c09c                	sw	a5,0(s1)
    80002110:	64a2                	ld	s1,8(sp)
    80002112:	6105                	add	sp,sp,32
    80002114:	8082                	ret

0000000080002116 <debug_printf>:
    80002116:	7139                	add	sp,sp,-64
    80002118:	e42e                	sd	a1,8(sp)
    8000211a:	e832                	sd	a2,16(sp)
    8000211c:	ec36                	sd	a3,24(sp)
    8000211e:	f03a                	sd	a4,32(sp)
    80002120:	f43e                	sd	a5,40(sp)
    80002122:	f842                	sd	a6,48(sp)
    80002124:	fc46                	sd	a7,56(sp)
    80002126:	6121                	add	sp,sp,64
    80002128:	8082                	ret

000000008000212a <Proc_2>:
    8000212a:	8351c703          	lbu	a4,-1995(gp) # 80003859 <Ch_1_Glob>
    8000212e:	04100793          	li	a5,65
    80002132:	00f70363          	beq	a4,a5,80002138 <Proc_2+0xe>
    80002136:	8082                	ret
    80002138:	411c                	lw	a5,0(a0)
    8000213a:	83c1a703          	lw	a4,-1988(gp) # 80003860 <Int_Glob>
    8000213e:	27a5                	addw	a5,a5,9
    80002140:	9f99                	subw	a5,a5,a4
    80002142:	c11c                	sw	a5,0(a0)
    80002144:	8082                	ret

0000000080002146 <Proc_3>:
    80002146:	84c18793          	add	a5,gp,-1972 # 80003870 <Ptr_Glob>
    8000214a:	6390                	ld	a2,0(a5)
    8000214c:	c601                	beqz	a2,80002154 <Proc_3+0xe>
    8000214e:	6218                	ld	a4,0(a2)
    80002150:	e118                	sd	a4,0(a0)
    80002152:	6390                	ld	a2,0(a5)
    80002154:	0641                	add	a2,a2,16
    80002156:	83c1a583          	lw	a1,-1988(gp) # 80003860 <Int_Glob>
    8000215a:	4529                	li	a0,10
    8000215c:	b555                	j	80002000 <Proc_7>

000000008000215e <Proc_1>:
    8000215e:	1101                	add	sp,sp,-32
    80002160:	e04a                	sd	s2,0(sp)
    80002162:	84c18913          	add	s2,gp,-1972 # 80003870 <Ptr_Glob>
    80002166:	00093783          	ld	a5,0(s2)
    8000216a:	e822                	sd	s0,16(sp)
    8000216c:	6100                	ld	s0,0(a0)
    8000216e:	6398                	ld	a4,0(a5)
    80002170:	0087b803          	ld	a6,8(a5)
    80002174:	0107b883          	ld	a7,16(a5)
    80002178:	738c                	ld	a1,32(a5)
    8000217a:	7790                	ld	a2,40(a5)
    8000217c:	7b94                	ld	a3,48(a5)
    8000217e:	e426                	sd	s1,8(sp)
    80002180:	ec06                	sd	ra,24(sp)
    80002182:	84aa                	mv	s1,a0
    80002184:	6f88                	ld	a0,24(a5)
    80002186:	e018                	sd	a4,0(s0)
    80002188:	6098                	ld	a4,0(s1)
    8000218a:	4795                	li	a5,5
    8000218c:	01143823          	sd	a7,16(s0)
    80002190:	ec08                	sd	a0,24(s0)
    80002192:	01043423          	sd	a6,8(s0)
    80002196:	f00c                	sd	a1,32(s0)
    80002198:	f410                	sd	a2,40(s0)
    8000219a:	f814                	sd	a3,48(s0)
    8000219c:	c89c                	sw	a5,16(s1)
    8000219e:	c81c                	sw	a5,16(s0)
    800021a0:	e018                	sd	a4,0(s0)
    800021a2:	8522                	mv	a0,s0
    800021a4:	fa3ff0ef          	jal	80002146 <Proc_3>
    800021a8:	441c                	lw	a5,8(s0)
    800021aa:	cb95                	beqz	a5,800021de <Proc_1+0x80>
    800021ac:	609c                	ld	a5,0(s1)
    800021ae:	60e2                	ld	ra,24(sp)
    800021b0:	6442                	ld	s0,16(sp)
    800021b2:	0007b883          	ld	a7,0(a5)
    800021b6:	0087b803          	ld	a6,8(a5)
    800021ba:	6b8c                	ld	a1,16(a5)
    800021bc:	6f90                	ld	a2,24(a5)
    800021be:	7394                	ld	a3,32(a5)
    800021c0:	7798                	ld	a4,40(a5)
    800021c2:	7b9c                	ld	a5,48(a5)
    800021c4:	0114b023          	sd	a7,0(s1)
    800021c8:	0104b423          	sd	a6,8(s1)
    800021cc:	e88c                	sd	a1,16(s1)
    800021ce:	ec90                	sd	a2,24(s1)
    800021d0:	f094                	sd	a3,32(s1)
    800021d2:	f498                	sd	a4,40(s1)
    800021d4:	f89c                	sd	a5,48(s1)
    800021d6:	6902                	ld	s2,0(sp)
    800021d8:	64a2                	ld	s1,8(sp)
    800021da:	6105                	add	sp,sp,32
    800021dc:	8082                	ret
    800021de:	44c8                	lw	a0,12(s1)
    800021e0:	4799                	li	a5,6
    800021e2:	c81c                	sw	a5,16(s0)
    800021e4:	00c40593          	add	a1,s0,12
    800021e8:	ec3ff0ef          	jal	800020aa <Proc_6>
    800021ec:	00093783          	ld	a5,0(s2)
    800021f0:	4808                	lw	a0,16(s0)
    800021f2:	01040613          	add	a2,s0,16
    800021f6:	639c                	ld	a5,0(a5)
    800021f8:	60e2                	ld	ra,24(sp)
    800021fa:	64a2                	ld	s1,8(sp)
    800021fc:	e01c                	sd	a5,0(s0)
    800021fe:	6442                	ld	s0,16(sp)
    80002200:	6902                	ld	s2,0(sp)
    80002202:	45a9                	li	a1,10
    80002204:	6105                	add	sp,sp,32
    80002206:	bbed                	j	80002000 <Proc_7>

0000000080002208 <Proc_4>:
    80002208:	83818693          	add	a3,gp,-1992 # 8000385c <Bool_Glob>
    8000220c:	4298                	lw	a4,0(a3)
    8000220e:	8351c783          	lbu	a5,-1995(gp) # 80003859 <Ch_1_Glob>
    80002212:	fbf78793          	add	a5,a5,-65
    80002216:	0017b793          	seqz	a5,a5
    8000221a:	8fd9                	or	a5,a5,a4
    8000221c:	c29c                	sw	a5,0(a3)
    8000221e:	04200793          	li	a5,66
    80002222:	82f18a23          	sb	a5,-1996(gp) # 80003858 <Ch_2_Glob>
    80002226:	8082                	ret

0000000080002228 <Proc_5>:
    80002228:	04100793          	li	a5,65
    8000222c:	82f18aa3          	sb	a5,-1995(gp) # 80003859 <Ch_1_Glob>
    80002230:	8201ac23          	sw	zero,-1992(gp) # 8000385c <Bool_Glob>
    80002234:	8082                	ret

0000000080002236 <vprintfmt>:
    80002236:	7149                	add	sp,sp,-368
    80002238:	f2a2                	sd	s0,352(sp)
    8000223a:	eea6                	sd	s1,344(sp)
    8000223c:	eaca                	sd	s2,336(sp)
    8000223e:	e2d2                	sd	s4,320(sp)
    80002240:	fe56                	sd	s5,312(sp)
    80002242:	fa5a                	sd	s6,304(sp)
    80002244:	f65e                	sd	s7,296(sp)
    80002246:	f686                	sd	ra,360(sp)
    80002248:	e6ce                	sd	s3,328(sp)
    8000224a:	f262                	sd	s8,288(sp)
    8000224c:	ee66                	sd	s9,280(sp)
    8000224e:	e66e                	sd	s11,264(sp)
    80002250:	892a                	mv	s2,a0
    80002252:	84ae                	mv	s1,a1
    80002254:	8432                	mv	s0,a2
    80002256:	8bb6                	mv	s7,a3
    80002258:	02500a13          	li	s4,37
    8000225c:	05500b13          	li	s6,85
    80002260:	00001a97          	auipc	s5,0x1
    80002264:	46ca8a93          	add	s5,s5,1132 # 800036cc <main+0xd0a>
    80002268:	a029                	j	80002272 <vprintfmt+0x3c>
    8000226a:	cd1d                	beqz	a0,800022a8 <vprintfmt+0x72>
    8000226c:	85a6                	mv	a1,s1
    8000226e:	0405                	add	s0,s0,1
    80002270:	9902                	jalr	s2
    80002272:	00044503          	lbu	a0,0(s0)
    80002276:	ff451ae3          	bne	a0,s4,8000226a <vprintfmt+0x34>
    8000227a:	00144683          	lbu	a3,1(s0)
    8000227e:	00140993          	add	s3,s0,1
    80002282:	874e                	mv	a4,s3
    80002284:	02000c93          	li	s9,32
    80002288:	5c7d                	li	s8,-1
    8000228a:	5dfd                	li	s11,-1
    8000228c:	4581                	li	a1,0
    8000228e:	fdd6879b          	addw	a5,a3,-35
    80002292:	0ff7f793          	zext.b	a5,a5
    80002296:	00170413          	add	s0,a4,1
    8000229a:	04fb6163          	bltu	s6,a5,800022dc <vprintfmt+0xa6>
    8000229e:	078a                	sll	a5,a5,0x2
    800022a0:	97d6                	add	a5,a5,s5
    800022a2:	439c                	lw	a5,0(a5)
    800022a4:	97d6                	add	a5,a5,s5
    800022a6:	8782                	jr	a5
    800022a8:	70b6                	ld	ra,360(sp)
    800022aa:	7416                	ld	s0,352(sp)
    800022ac:	64f6                	ld	s1,344(sp)
    800022ae:	6956                	ld	s2,336(sp)
    800022b0:	69b6                	ld	s3,328(sp)
    800022b2:	6a16                	ld	s4,320(sp)
    800022b4:	7af2                	ld	s5,312(sp)
    800022b6:	7b52                	ld	s6,304(sp)
    800022b8:	7bb2                	ld	s7,296(sp)
    800022ba:	7c12                	ld	s8,288(sp)
    800022bc:	6cf2                	ld	s9,280(sp)
    800022be:	6db2                	ld	s11,264(sp)
    800022c0:	6175                	add	sp,sp,368
    800022c2:	8082                	ret
    800022c4:	8cb6                	mv	s9,a3
    800022c6:	00174683          	lbu	a3,1(a4)
    800022ca:	8722                	mv	a4,s0
    800022cc:	00170413          	add	s0,a4,1
    800022d0:	fdd6879b          	addw	a5,a3,-35
    800022d4:	0ff7f793          	zext.b	a5,a5
    800022d8:	fcfb73e3          	bgeu	s6,a5,8000229e <vprintfmt+0x68>
    800022dc:	85a6                	mv	a1,s1
    800022de:	02500513          	li	a0,37
    800022e2:	9902                	jalr	s2
    800022e4:	844e                	mv	s0,s3
    800022e6:	b771                	j	80002272 <vprintfmt+0x3c>
    800022e8:	fd068c1b          	addw	s8,a3,-48
    800022ec:	00174683          	lbu	a3,1(a4)
    800022f0:	47a5                	li	a5,9
    800022f2:	fd06871b          	addw	a4,a3,-48
    800022f6:	0006861b          	sext.w	a2,a3
    800022fa:	20e7ef63          	bltu	a5,a4,80002518 <vprintfmt+0x2e2>
    800022fe:	8722                	mv	a4,s0
    80002300:	4825                	li	a6,9
    80002302:	00174683          	lbu	a3,1(a4)
    80002306:	002c179b          	sllw	a5,s8,0x2
    8000230a:	018787bb          	addw	a5,a5,s8
    8000230e:	0017979b          	sllw	a5,a5,0x1
    80002312:	9fb1                	addw	a5,a5,a2
    80002314:	fd06851b          	addw	a0,a3,-48
    80002318:	0705                	add	a4,a4,1
    8000231a:	fd078c1b          	addw	s8,a5,-48
    8000231e:	0006861b          	sext.w	a2,a3
    80002322:	fea870e3          	bgeu	a6,a0,80002302 <vprintfmt+0xcc>
    80002326:	f60dd4e3          	bgez	s11,8000228e <vprintfmt+0x58>
    8000232a:	8de2                	mv	s11,s8
    8000232c:	5c7d                	li	s8,-1
    8000232e:	b785                	j	8000228e <vprintfmt+0x58>
    80002330:	00174683          	lbu	a3,1(a4)
    80002334:	8722                	mv	a4,s0
    80002336:	bfa1                	j	8000228e <vprintfmt+0x58>
    80002338:	85a6                	mv	a1,s1
    8000233a:	02500513          	li	a0,37
    8000233e:	9902                	jalr	s2
    80002340:	bf0d                	j	80002272 <vprintfmt+0x3c>
    80002342:	000bac03          	lw	s8,0(s7)
    80002346:	00174683          	lbu	a3,1(a4)
    8000234a:	0ba1                	add	s7,s7,8
    8000234c:	8722                	mv	a4,s0
    8000234e:	bfe1                	j	80002326 <vprintfmt+0xf0>
    80002350:	85a6                	mv	a1,s1
    80002352:	03000513          	li	a0,48
    80002356:	ea6a                	sd	s10,272(sp)
    80002358:	9902                	jalr	s2
    8000235a:	85a6                	mv	a1,s1
    8000235c:	07800513          	li	a0,120
    80002360:	9902                	jalr	s2
    80002362:	4641                	li	a2,16
    80002364:	008b8713          	add	a4,s7,8
    80002368:	000bb783          	ld	a5,0(s7)
    8000236c:	8bba                	mv	s7,a4
    8000236e:	02c7f5b3          	remu	a1,a5,a2
    80002372:	000c899b          	sext.w	s3,s9
    80002376:	0054                	add	a3,sp,4
    80002378:	4705                	li	a4,1
    8000237a:	c02e                	sw	a1,0(sp)
    8000237c:	16c7ea63          	bltu	a5,a2,800024f0 <vprintfmt+0x2ba>
    80002380:	02c7d7b3          	divu	a5,a5,a2
    80002384:	0691                	add	a3,a3,4
    80002386:	8c3a                	mv	s8,a4
    80002388:	2705                	addw	a4,a4,1
    8000238a:	02c7f5b3          	remu	a1,a5,a2
    8000238e:	feb6ae23          	sw	a1,-4(a3)
    80002392:	fec7f7e3          	bgeu	a5,a2,80002380 <vprintfmt+0x14a>
    80002396:	fffd8c9b          	addw	s9,s11,-1
    8000239a:	fff70d1b          	addw	s10,a4,-1
    8000239e:	01b75863          	bge	a4,s11,800023ae <vprintfmt+0x178>
    800023a2:	85a6                	mv	a1,s1
    800023a4:	854e                	mv	a0,s3
    800023a6:	3cfd                	addw	s9,s9,-1
    800023a8:	9902                	jalr	s2
    800023aa:	ffac9ce3          	bne	s9,s10,800023a2 <vprintfmt+0x16c>
    800023ae:	0c0a                	sll	s8,s8,0x2
    800023b0:	018109b3          	add	s3,sp,s8
    800023b4:	ffc10c93          	add	s9,sp,-4
    800023b8:	4c25                	li	s8,9
    800023ba:	0009a783          	lw	a5,0(s3)
    800023be:	03000513          	li	a0,48
    800023c2:	00fc7463          	bgeu	s8,a5,800023ca <vprintfmt+0x194>
    800023c6:	05700513          	li	a0,87
    800023ca:	85a6                	mv	a1,s1
    800023cc:	9d3d                	addw	a0,a0,a5
    800023ce:	19f1                	add	s3,s3,-4
    800023d0:	9902                	jalr	s2
    800023d2:	ff9994e3          	bne	s3,s9,800023ba <vprintfmt+0x184>
    800023d6:	6d52                	ld	s10,272(sp)
    800023d8:	bd69                	j	80002272 <vprintfmt+0x3c>
    800023da:	ea6a                	sd	s10,272(sp)
    800023dc:	4785                	li	a5,1
    800023de:	008b8c13          	add	s8,s7,8
    800023e2:	00b7c463          	blt	a5,a1,800023ea <vprintfmt+0x1b4>
    800023e6:	10058763          	beqz	a1,800024f4 <vprintfmt+0x2be>
    800023ea:	000bb983          	ld	s3,0(s7)
    800023ee:	1009cc63          	bltz	s3,80002506 <vprintfmt+0x2d0>
    800023f2:	87ce                	mv	a5,s3
    800023f4:	8be2                	mv	s7,s8
    800023f6:	4629                	li	a2,10
    800023f8:	bf9d                	j	8000236e <vprintfmt+0x138>
    800023fa:	00174683          	lbu	a3,1(a4)
    800023fe:	2585                	addw	a1,a1,1
    80002400:	8722                	mv	a4,s0
    80002402:	b571                	j	8000228e <vprintfmt+0x58>
    80002404:	ea6a                	sd	s10,272(sp)
    80002406:	4641                	li	a2,16
    80002408:	4785                	li	a5,1
    8000240a:	008b8713          	add	a4,s7,8
    8000240e:	f4b7cde3          	blt	a5,a1,80002368 <vprintfmt+0x132>
    80002412:	f9b9                	bnez	a1,80002368 <vprintfmt+0x132>
    80002414:	000be783          	lwu	a5,0(s7)
    80002418:	8bba                	mv	s7,a4
    8000241a:	bf91                	j	8000236e <vprintfmt+0x138>
    8000241c:	ea6a                	sd	s10,272(sp)
    8000241e:	000bbd03          	ld	s10,0(s7)
    80002422:	0ba1                	add	s7,s7,8
    80002424:	040d0363          	beqz	s10,8000246a <vprintfmt+0x234>
    80002428:	09b05e63          	blez	s11,800024c4 <vprintfmt+0x28e>
    8000242c:	02d00793          	li	a5,45
    80002430:	04fc9f63          	bne	s9,a5,8000248e <vprintfmt+0x258>
    80002434:	000d4503          	lbu	a0,0(s10)
    80002438:	c105                	beqz	a0,80002458 <vprintfmt+0x222>
    8000243a:	59fd                	li	s3,-1
    8000243c:	000c4563          	bltz	s8,80002446 <vprintfmt+0x210>
    80002440:	3c7d                	addw	s8,s8,-1
    80002442:	013c0963          	beq	s8,s3,80002454 <vprintfmt+0x21e>
    80002446:	85a6                	mv	a1,s1
    80002448:	9902                	jalr	s2
    8000244a:	001d4503          	lbu	a0,1(s10)
    8000244e:	3dfd                	addw	s11,s11,-1
    80002450:	0d05                	add	s10,s10,1
    80002452:	f56d                	bnez	a0,8000243c <vprintfmt+0x206>
    80002454:	f9b051e3          	blez	s11,800023d6 <vprintfmt+0x1a0>
    80002458:	85a6                	mv	a1,s1
    8000245a:	02000513          	li	a0,32
    8000245e:	3dfd                	addw	s11,s11,-1
    80002460:	9902                	jalr	s2
    80002462:	fe0d9be3          	bnez	s11,80002458 <vprintfmt+0x222>
    80002466:	6d52                	ld	s10,272(sp)
    80002468:	b529                	j	80002272 <vprintfmt+0x3c>
    8000246a:	00001d17          	auipc	s10,0x1
    8000246e:	21ed0d13          	add	s10,s10,542 # 80003688 <main+0xcc6>
    80002472:	02800513          	li	a0,40
    80002476:	fdb052e3          	blez	s11,8000243a <vprintfmt+0x204>
    8000247a:	02d00793          	li	a5,45
    8000247e:	00001d17          	auipc	s10,0x1
    80002482:	20ad0d13          	add	s10,s10,522 # 80003688 <main+0xcc6>
    80002486:	02800513          	li	a0,40
    8000248a:	fafc88e3          	beq	s9,a5,8000243a <vprintfmt+0x204>
    8000248e:	000d861b          	sext.w	a2,s11
    80002492:	87ea                	mv	a5,s10
    80002494:	018d06b3          	add	a3,s10,s8
    80002498:	000c1663          	bnez	s8,800024a4 <vprintfmt+0x26e>
    8000249c:	a829                	j	800024b6 <vprintfmt+0x280>
    8000249e:	0785                	add	a5,a5,1
    800024a0:	00d78563          	beq	a5,a3,800024aa <vprintfmt+0x274>
    800024a4:	0007c703          	lbu	a4,0(a5)
    800024a8:	fb7d                	bnez	a4,8000249e <vprintfmt+0x268>
    800024aa:	41a787b3          	sub	a5,a5,s10
    800024ae:	40f60dbb          	subw	s11,a2,a5
    800024b2:	01b05963          	blez	s11,800024c4 <vprintfmt+0x28e>
    800024b6:	2c81                	sext.w	s9,s9
    800024b8:	85a6                	mv	a1,s1
    800024ba:	8566                	mv	a0,s9
    800024bc:	3dfd                	addw	s11,s11,-1
    800024be:	9902                	jalr	s2
    800024c0:	fe0d9ce3          	bnez	s11,800024b8 <vprintfmt+0x282>
    800024c4:	000d4503          	lbu	a0,0(s10)
    800024c8:	d519                	beqz	a0,800023d6 <vprintfmt+0x1a0>
    800024ca:	59fd                	li	s3,-1
    800024cc:	bf85                	j	8000243c <vprintfmt+0x206>
    800024ce:	fffdc793          	not	a5,s11
    800024d2:	97fd                	sra	a5,a5,0x3f
    800024d4:	00fdf7b3          	and	a5,s11,a5
    800024d8:	00174683          	lbu	a3,1(a4)
    800024dc:	00078d9b          	sext.w	s11,a5
    800024e0:	8722                	mv	a4,s0
    800024e2:	b375                	j	8000228e <vprintfmt+0x58>
    800024e4:	000ba503          	lw	a0,0(s7)
    800024e8:	85a6                	mv	a1,s1
    800024ea:	0ba1                	add	s7,s7,8
    800024ec:	9902                	jalr	s2
    800024ee:	b351                	j	80002272 <vprintfmt+0x3c>
    800024f0:	4c01                	li	s8,0
    800024f2:	b555                	j	80002396 <vprintfmt+0x160>
    800024f4:	000ba983          	lw	s3,0(s7)
    800024f8:	bddd                	j	800023ee <vprintfmt+0x1b8>
    800024fa:	ea6a                	sd	s10,272(sp)
    800024fc:	4629                	li	a2,10
    800024fe:	b729                	j	80002408 <vprintfmt+0x1d2>
    80002500:	ea6a                	sd	s10,272(sp)
    80002502:	4621                	li	a2,8
    80002504:	b711                	j	80002408 <vprintfmt+0x1d2>
    80002506:	85a6                	mv	a1,s1
    80002508:	02d00513          	li	a0,45
    8000250c:	9902                	jalr	s2
    8000250e:	413007b3          	neg	a5,s3
    80002512:	8be2                	mv	s7,s8
    80002514:	4629                	li	a2,10
    80002516:	bda1                	j	8000236e <vprintfmt+0x138>
    80002518:	8722                	mv	a4,s0
    8000251a:	b531                	j	80002326 <vprintfmt+0xf0>

000000008000251c <sprintf_putch.0>:
    8000251c:	619c                	ld	a5,0(a1)
    8000251e:	00a78023          	sb	a0,0(a5)
    80002522:	619c                	ld	a5,0(a1)
    80002524:	0785                	add	a5,a5,1
    80002526:	e19c                	sd	a5,0(a1)
    80002528:	8082                	ret

000000008000252a <putchar>:
    8000252a:	04022803          	lw	a6,64(tp) # 40 <buflen.1>
    8000252e:	00020793          	mv	a5,tp
    80002532:	97c2                	add	a5,a5,a6
    80002534:	7159                	add	sp,sp,-112
    80002536:	0018069b          	addw	a3,a6,1
    8000253a:	04d22023          	sw	a3,64(tp) # 40 <buflen.1>
    8000253e:	00a78023          	sb	a0,0(a5)
    80002542:	03f10713          	add	a4,sp,63
    80002546:	47a9                	li	a5,10
    80002548:	fc077713          	and	a4,a4,-64
    8000254c:	00f50963          	beq	a0,a5,8000255e <putchar+0x34>
    80002550:	04000793          	li	a5,64
    80002554:	00f68563          	beq	a3,a5,8000255e <putchar+0x34>
    80002558:	4501                	li	a0,0
    8000255a:	6165                	add	sp,sp,112
    8000255c:	8082                	ret
    8000255e:	04000793          	li	a5,64
    80002562:	e31c                	sd	a5,0(a4)
    80002564:	4785                	li	a5,1
    80002566:	e71c                	sd	a5,8(a4)
    80002568:	00020613          	mv	a2,tp
    8000256c:	eb10                	sd	a2,16(a4)
    8000256e:	ef14                	sd	a3,24(a4)
    80002570:	0ff0000f          	fence
    80002574:	fffff697          	auipc	a3,0xfffff
    80002578:	acc68693          	add	a3,a3,-1332 # 80001040 <fromhost>
    8000257c:	fffff797          	auipc	a5,0xfffff
    80002580:	a8e7b223          	sd	a4,-1404(a5) # 80001000 <tohost>
    80002584:	629c                	ld	a5,0(a3)
    80002586:	dffd                	beqz	a5,80002584 <putchar+0x5a>
    80002588:	fffff797          	auipc	a5,0xfffff
    8000258c:	aa07bc23          	sd	zero,-1352(a5) # 80001040 <fromhost>
    80002590:	0ff0000f          	fence
    80002594:	04022023          	sw	zero,64(tp) # 40 <buflen.1>
    80002598:	631c                	ld	a5,0(a4)
    8000259a:	4501                	li	a0,0
    8000259c:	6165                	add	sp,sp,112
    8000259e:	8082                	ret

00000000800025a0 <setStats>:
    800025a0:	b0002773          	csrr	a4,mcycle
    800025a4:	00004797          	auipc	a5,0x4
    800025a8:	aac78793          	add	a5,a5,-1364 # 80006050 <counters>
    800025ac:	c511                	beqz	a0,800025b8 <setStats+0x18>
    800025ae:	e398                	sd	a4,0(a5)
    800025b0:	b0202773          	csrr	a4,minstret
    800025b4:	e798                	sd	a4,8(a5)
    800025b6:	8082                	ret
    800025b8:	6394                	ld	a3,0(a5)
    800025ba:	00001617          	auipc	a2,0x1
    800025be:	0d660613          	add	a2,a2,214 # 80003690 <main+0xcce>
    800025c2:	eb90                	sd	a2,16(a5)
    800025c4:	8f15                	sub	a4,a4,a3
    800025c6:	e398                	sd	a4,0(a5)
    800025c8:	b0202773          	csrr	a4,minstret
    800025cc:	6794                	ld	a3,8(a5)
    800025ce:	00001617          	auipc	a2,0x1
    800025d2:	0ca60613          	add	a2,a2,202 # 80003698 <main+0xcd6>
    800025d6:	ef90                	sd	a2,24(a5)
    800025d8:	8f15                	sub	a4,a4,a3
    800025da:	e798                	sd	a4,8(a5)
    800025dc:	8082                	ret

00000000800025de <tohost_exit>:
    800025de:	00151793          	sll	a5,a0,0x1
    800025e2:	0017e793          	or	a5,a5,1
    800025e6:	fffff717          	auipc	a4,0xfffff
    800025ea:	a0f73d23          	sd	a5,-1510(a4) # 80001000 <tohost>
    800025ee:	a001                	j	800025ee <tohost_exit+0x10>

00000000800025f0 <handle_trap>:
    800025f0:	6785                	lui	a5,0x1
    800025f2:	a7378793          	add	a5,a5,-1421 # a73 <buflen.1+0xa33>
    800025f6:	fffff717          	auipc	a4,0xfffff
    800025fa:	a0f73523          	sd	a5,-1526(a4) # 80001000 <tohost>
    800025fe:	a001                	j	800025fe <handle_trap+0xe>

0000000080002600 <exit>:
    80002600:	1141                	add	sp,sp,-16
    80002602:	e406                	sd	ra,8(sp)
    80002604:	fdbff0ef          	jal	800025de <tohost_exit>

0000000080002608 <abort>:
    80002608:	10d00793          	li	a5,269
    8000260c:	fffff717          	auipc	a4,0xfffff
    80002610:	9ef73a23          	sd	a5,-1548(a4) # 80001000 <tohost>
    80002614:	a001                	j	80002614 <abort+0xc>

0000000080002616 <printstr>:
    80002616:	00054783          	lbu	a5,0(a0)
    8000261a:	7159                	add	sp,sp,-112
    8000261c:	03f10693          	add	a3,sp,63
    80002620:	fc06f693          	and	a3,a3,-64
    80002624:	c3b9                	beqz	a5,8000266a <printstr+0x54>
    80002626:	87aa                	mv	a5,a0
    80002628:	0017c703          	lbu	a4,1(a5)
    8000262c:	0785                	add	a5,a5,1
    8000262e:	ff6d                	bnez	a4,80002628 <printstr+0x12>
    80002630:	8f89                	sub	a5,a5,a0
    80002632:	04000713          	li	a4,64
    80002636:	e298                	sd	a4,0(a3)
    80002638:	4705                	li	a4,1
    8000263a:	e698                	sd	a4,8(a3)
    8000263c:	ea88                	sd	a0,16(a3)
    8000263e:	ee9c                	sd	a5,24(a3)
    80002640:	0ff0000f          	fence
    80002644:	fffff717          	auipc	a4,0xfffff
    80002648:	9fc70713          	add	a4,a4,-1540 # 80001040 <fromhost>
    8000264c:	fffff797          	auipc	a5,0xfffff
    80002650:	9ad7ba23          	sd	a3,-1612(a5) # 80001000 <tohost>
    80002654:	631c                	ld	a5,0(a4)
    80002656:	dffd                	beqz	a5,80002654 <printstr+0x3e>
    80002658:	fffff797          	auipc	a5,0xfffff
    8000265c:	9e07b423          	sd	zero,-1560(a5) # 80001040 <fromhost>
    80002660:	0ff0000f          	fence
    80002664:	629c                	ld	a5,0(a3)
    80002666:	6165                	add	sp,sp,112
    80002668:	8082                	ret
    8000266a:	4781                	li	a5,0
    8000266c:	b7d9                	j	80002632 <printstr+0x1c>

000000008000266e <thread_entry>:
    8000266e:	c111                	beqz	a0,80002672 <thread_entry+0x4>
    80002670:	a001                	j	80002670 <thread_entry+0x2>
    80002672:	8082                	ret

0000000080002674 <printhex>:
    80002674:	7179                	add	sp,sp,-48
    80002676:	87aa                	mv	a5,a0
    80002678:	f406                	sd	ra,40(sp)
    8000267a:	0028                	add	a0,sp,8
    8000267c:	01710713          	add	a4,sp,23
    80002680:	4825                	li	a6,9
    80002682:	a011                	j	80002686 <printhex+0x12>
    80002684:	8736                	mv	a4,a3
    80002686:	00f7f613          	and	a2,a5,15
    8000268a:	86b2                	mv	a3,a2
    8000268c:	03000593          	li	a1,48
    80002690:	00c87463          	bgeu	a6,a2,80002698 <printhex+0x24>
    80002694:	05700593          	li	a1,87
    80002698:	9ead                	addw	a3,a3,a1
    8000269a:	00d70023          	sb	a3,0(a4)
    8000269e:	8391                	srl	a5,a5,0x4
    800026a0:	fff70693          	add	a3,a4,-1
    800026a4:	fee510e3          	bne	a0,a4,80002684 <printhex+0x10>
    800026a8:	00010c23          	sb	zero,24(sp)
    800026ac:	f6bff0ef          	jal	80002616 <printstr>
    800026b0:	70a2                	ld	ra,40(sp)
    800026b2:	6145                	add	sp,sp,48
    800026b4:	8082                	ret

00000000800026b6 <printf>:
    800026b6:	711d                	add	sp,sp,-96
    800026b8:	02810313          	add	t1,sp,40
    800026bc:	f42e                	sd	a1,40(sp)
    800026be:	f832                	sd	a2,48(sp)
    800026c0:	fc36                	sd	a3,56(sp)
    800026c2:	862a                	mv	a2,a0
    800026c4:	869a                	mv	a3,t1
    800026c6:	00000517          	auipc	a0,0x0
    800026ca:	e6450513          	add	a0,a0,-412 # 8000252a <putchar>
    800026ce:	4581                	li	a1,0
    800026d0:	ec06                	sd	ra,24(sp)
    800026d2:	e0ba                	sd	a4,64(sp)
    800026d4:	e4be                	sd	a5,72(sp)
    800026d6:	e8c2                	sd	a6,80(sp)
    800026d8:	ecc6                	sd	a7,88(sp)
    800026da:	e41a                	sd	t1,8(sp)
    800026dc:	b5bff0ef          	jal	80002236 <vprintfmt>
    800026e0:	60e2                	ld	ra,24(sp)
    800026e2:	4501                	li	a0,0
    800026e4:	6125                	add	sp,sp,96
    800026e6:	8082                	ret

00000000800026e8 <sprintf>:
    800026e8:	711d                	add	sp,sp,-96
    800026ea:	03010e13          	add	t3,sp,48
    800026ee:	f022                	sd	s0,32(sp)
    800026f0:	e42a                	sd	a0,8(sp)
    800026f2:	842a                	mv	s0,a0
    800026f4:	f832                	sd	a2,48(sp)
    800026f6:	fc36                	sd	a3,56(sp)
    800026f8:	862e                	mv	a2,a1
    800026fa:	00000517          	auipc	a0,0x0
    800026fe:	e2250513          	add	a0,a0,-478 # 8000251c <sprintf_putch.0>
    80002702:	002c                	add	a1,sp,8
    80002704:	86f2                	mv	a3,t3
    80002706:	f406                	sd	ra,40(sp)
    80002708:	e4be                	sd	a5,72(sp)
    8000270a:	e0ba                	sd	a4,64(sp)
    8000270c:	e8c2                	sd	a6,80(sp)
    8000270e:	ecc6                	sd	a7,88(sp)
    80002710:	ec72                	sd	t3,24(sp)
    80002712:	b25ff0ef          	jal	80002236 <vprintfmt>
    80002716:	67a2                	ld	a5,8(sp)
    80002718:	00078023          	sb	zero,0(a5)
    8000271c:	6522                	ld	a0,8(sp)
    8000271e:	70a2                	ld	ra,40(sp)
    80002720:	9d01                	subw	a0,a0,s0
    80002722:	7402                	ld	s0,32(sp)
    80002724:	6125                	add	sp,sp,96
    80002726:	8082                	ret

0000000080002728 <memcpy>:
    80002728:	00c5e7b3          	or	a5,a1,a2
    8000272c:	8fc9                	or	a5,a5,a0
    8000272e:	8b9d                	and	a5,a5,7
    80002730:	00c50833          	add	a6,a0,a2
    80002734:	cf91                	beqz	a5,80002750 <memcpy+0x28>
    80002736:	962e                	add	a2,a2,a1
    80002738:	87aa                	mv	a5,a0
    8000273a:	09057c63          	bgeu	a0,a6,800027d2 <memcpy+0xaa>
    8000273e:	0005c703          	lbu	a4,0(a1)
    80002742:	0585                	add	a1,a1,1
    80002744:	0785                	add	a5,a5,1
    80002746:	fee78fa3          	sb	a4,-1(a5)
    8000274a:	fec59ae3          	bne	a1,a2,8000273e <memcpy+0x16>
    8000274e:	8082                	ret
    80002750:	04050693          	add	a3,a0,64
    80002754:	0906f063          	bgeu	a3,a6,800027d4 <memcpy+0xac>
    80002758:	87b6                	mv	a5,a3
    8000275a:	872e                	mv	a4,a1
    8000275c:	00073383          	ld	t2,0(a4)
    80002760:	00873283          	ld	t0,8(a4)
    80002764:	01073f83          	ld	t6,16(a4)
    80002768:	01873f03          	ld	t5,24(a4)
    8000276c:	02073e83          	ld	t4,32(a4)
    80002770:	02873e03          	ld	t3,40(a4)
    80002774:	03073303          	ld	t1,48(a4)
    80002778:	03873883          	ld	a7,56(a4)
    8000277c:	04078793          	add	a5,a5,64
    80002780:	f877b023          	sd	t2,-128(a5)
    80002784:	f857b423          	sd	t0,-120(a5)
    80002788:	f9f7b823          	sd	t6,-112(a5)
    8000278c:	f9e7bc23          	sd	t5,-104(a5)
    80002790:	fbd7b023          	sd	t4,-96(a5)
    80002794:	fbc7b423          	sd	t3,-88(a5)
    80002798:	fa67b823          	sd	t1,-80(a5)
    8000279c:	fb17bc23          	sd	a7,-72(a5)
    800027a0:	04070713          	add	a4,a4,64
    800027a4:	fb07ece3          	bltu	a5,a6,8000275c <memcpy+0x34>
    800027a8:	fbf60613          	add	a2,a2,-65
    800027ac:	fc067793          	and	a5,a2,-64
    800027b0:	04078793          	add	a5,a5,64
    800027b4:	fc067613          	and	a2,a2,-64
    800027b8:	95be                	add	a1,a1,a5
    800027ba:	00c687b3          	add	a5,a3,a2
    800027be:	f907f8e3          	bgeu	a5,a6,8000274e <memcpy+0x26>
    800027c2:	6198                	ld	a4,0(a1)
    800027c4:	07a1                	add	a5,a5,8
    800027c6:	05a1                	add	a1,a1,8
    800027c8:	fee7bc23          	sd	a4,-8(a5)
    800027cc:	ff07ebe3          	bltu	a5,a6,800027c2 <memcpy+0x9a>
    800027d0:	8082                	ret
    800027d2:	8082                	ret
    800027d4:	87aa                	mv	a5,a0
    800027d6:	b7e5                	j	800027be <memcpy+0x96>

00000000800027d8 <memset>:
    800027d8:	00c567b3          	or	a5,a0,a2
    800027dc:	8b9d                	and	a5,a5,7
    800027de:	962a                	add	a2,a2,a0
    800027e0:	cf81                	beqz	a5,800027f8 <memset+0x20>
    800027e2:	0ff5f713          	zext.b	a4,a1
    800027e6:	87aa                	mv	a5,a0
    800027e8:	02c57f63          	bgeu	a0,a2,80002826 <memset+0x4e>
    800027ec:	0785                	add	a5,a5,1
    800027ee:	fee78fa3          	sb	a4,-1(a5)
    800027f2:	fec79de3          	bne	a5,a2,800027ec <memset+0x14>
    800027f6:	8082                	ret
    800027f8:	010107b7          	lui	a5,0x1010
    800027fc:	10178793          	add	a5,a5,257 # 1010101 <buflen.1+0x10100c1>
    80002800:	07c2                	sll	a5,a5,0x10
    80002802:	10178793          	add	a5,a5,257
    80002806:	07c2                	sll	a5,a5,0x10
    80002808:	0ff5f713          	zext.b	a4,a1
    8000280c:	10178793          	add	a5,a5,257
    80002810:	02f70733          	mul	a4,a4,a5
    80002814:	fec571e3          	bgeu	a0,a2,800027f6 <memset+0x1e>
    80002818:	87aa                	mv	a5,a0
    8000281a:	07a1                	add	a5,a5,8
    8000281c:	fee7bc23          	sd	a4,-8(a5)
    80002820:	fec7ede3          	bltu	a5,a2,8000281a <memset+0x42>
    80002824:	8082                	ret
    80002826:	8082                	ret

0000000080002828 <_init>:
    80002828:	7171                	add	sp,sp,-176
    8000282a:	00004797          	auipc	a5,0x4
    8000282e:	84678793          	add	a5,a5,-1978 # 80006070 <_tdata_begin>
    80002832:	e152                	sd	s4,128(sp)
    80002834:	00004a17          	auipc	s4,0x4
    80002838:	83ca0a13          	add	s4,s4,-1988 # 80006070 <_tdata_begin>
    8000283c:	e54e                	sd	s3,136(sp)
    8000283e:	40fa09b3          	sub	s3,s4,a5
    80002842:	ed26                	sd	s1,152(sp)
    80002844:	e94a                	sd	s2,144(sp)
    80002846:	84aa                	mv	s1,a0
    80002848:	892e                	mv	s2,a1
    8000284a:	8512                	mv	a0,tp
    8000284c:	85be                	mv	a1,a5
    8000284e:	864e                	mv	a2,s3
    80002850:	f506                	sd	ra,168(sp)
    80002852:	f122                	sd	s0,160(sp)
    80002854:	fcd6                	sd	s5,120(sp)
    80002856:	8a92                	mv	s5,tp
    80002858:	ed1ff0ef          	jal	80002728 <memcpy>
    8000285c:	00004617          	auipc	a2,0x4
    80002860:	86860613          	add	a2,a2,-1944 # 800060c4 <_tbss_end>
    80002864:	41460633          	sub	a2,a2,s4
    80002868:	4581                	li	a1,0
    8000286a:	013a8533          	add	a0,s5,s3
    8000286e:	f6bff0ef          	jal	800027d8 <memset>
    80002872:	85ca                	mv	a1,s2
    80002874:	8526                	mv	a0,s1
    80002876:	df9ff0ef          	jal	8000266e <thread_entry>
    8000287a:	4581                	li	a1,0
    8000287c:	4501                	li	a0,0
    8000287e:	144000ef          	jal	800029c2 <main>
    80002882:	00003917          	auipc	s2,0x3
    80002886:	7ce90913          	add	s2,s2,1998 # 80006050 <counters>
    8000288a:	00093683          	ld	a3,0(s2)
    8000288e:	03f10413          	add	s0,sp,63
    80002892:	fc047413          	and	s0,s0,-64
    80002896:	84aa                	mv	s1,a0
    80002898:	ea85                	bnez	a3,800028c8 <_init+0xa0>
    8000289a:	00893683          	ld	a3,8(s2)
    8000289e:	e681                	bnez	a3,800028a6 <_init+0x7e>
    800028a0:	8526                	mv	a0,s1
    800028a2:	d3dff0ef          	jal	800025de <tohost_exit>
    800028a6:	89a2                	mv	s3,s0
    800028a8:	01893603          	ld	a2,24(s2)
    800028ac:	854e                	mv	a0,s3
    800028ae:	00001597          	auipc	a1,0x1
    800028b2:	e1258593          	add	a1,a1,-494 # 800036c0 <main+0xcfe>
    800028b6:	e33ff0ef          	jal	800026e8 <sprintf>
    800028ba:	99aa                	add	s3,s3,a0
    800028bc:	ff3402e3          	beq	s0,s3,800028a0 <_init+0x78>
    800028c0:	8522                	mv	a0,s0
    800028c2:	d55ff0ef          	jal	80002616 <printstr>
    800028c6:	bfe9                	j	800028a0 <_init+0x78>
    800028c8:	01093603          	ld	a2,16(s2)
    800028cc:	00001597          	auipc	a1,0x1
    800028d0:	df458593          	add	a1,a1,-524 # 800036c0 <main+0xcfe>
    800028d4:	8522                	mv	a0,s0
    800028d6:	e13ff0ef          	jal	800026e8 <sprintf>
    800028da:	00893683          	ld	a3,8(s2)
    800028de:	00a409b3          	add	s3,s0,a0
    800028e2:	dee9                	beqz	a3,800028bc <_init+0x94>
    800028e4:	b7d1                	j	800028a8 <_init+0x80>

00000000800028e6 <strlen>:
    800028e6:	00054783          	lbu	a5,0(a0)
    800028ea:	cb89                	beqz	a5,800028fc <strlen+0x16>
    800028ec:	87aa                	mv	a5,a0
    800028ee:	0017c703          	lbu	a4,1(a5)
    800028f2:	0785                	add	a5,a5,1
    800028f4:	ff6d                	bnez	a4,800028ee <strlen+0x8>
    800028f6:	40a78533          	sub	a0,a5,a0
    800028fa:	8082                	ret
    800028fc:	4501                	li	a0,0
    800028fe:	8082                	ret

0000000080002900 <strnlen>:
    80002900:	00b506b3          	add	a3,a0,a1
    80002904:	87aa                	mv	a5,a0
    80002906:	e589                	bnez	a1,80002910 <strnlen+0x10>
    80002908:	a829                	j	80002922 <strnlen+0x22>
    8000290a:	0785                	add	a5,a5,1
    8000290c:	00f68863          	beq	a3,a5,8000291c <strnlen+0x1c>
    80002910:	0007c703          	lbu	a4,0(a5)
    80002914:	fb7d                	bnez	a4,8000290a <strnlen+0xa>
    80002916:	40a78533          	sub	a0,a5,a0
    8000291a:	8082                	ret
    8000291c:	40a68533          	sub	a0,a3,a0
    80002920:	8082                	ret
    80002922:	4501                	li	a0,0
    80002924:	8082                	ret

0000000080002926 <strcmp>:
    80002926:	00054783          	lbu	a5,0(a0)
    8000292a:	0585                	add	a1,a1,1
    8000292c:	0505                	add	a0,a0,1
    8000292e:	fff5c703          	lbu	a4,-1(a1)
    80002932:	c799                	beqz	a5,80002940 <strcmp+0x1a>
    80002934:	fee789e3          	beq	a5,a4,80002926 <strcmp>
    80002938:	0007851b          	sext.w	a0,a5
    8000293c:	9d19                	subw	a0,a0,a4
    8000293e:	8082                	ret
    80002940:	4501                	li	a0,0
    80002942:	bfed                	j	8000293c <strcmp+0x16>

0000000080002944 <strcpy>:
    80002944:	87aa                	mv	a5,a0
    80002946:	0005c703          	lbu	a4,0(a1)
    8000294a:	0785                	add	a5,a5,1
    8000294c:	0585                	add	a1,a1,1
    8000294e:	fee78fa3          	sb	a4,-1(a5)
    80002952:	fb75                	bnez	a4,80002946 <strcpy+0x2>
    80002954:	8082                	ret

0000000080002956 <atol>:
    80002956:	00054703          	lbu	a4,0(a0)
    8000295a:	02000693          	li	a3,32
    8000295e:	87aa                	mv	a5,a0
    80002960:	00d71763          	bne	a4,a3,8000296e <atol+0x18>
    80002964:	0017c703          	lbu	a4,1(a5)
    80002968:	0785                	add	a5,a5,1
    8000296a:	fed70de3          	beq	a4,a3,80002964 <atol+0xe>
    8000296e:	02d00693          	li	a3,45
    80002972:	04d70163          	beq	a4,a3,800029b4 <atol+0x5e>
    80002976:	02b00693          	li	a3,43
    8000297a:	02d70763          	beq	a4,a3,800029a8 <atol+0x52>
    8000297e:	0007c683          	lbu	a3,0(a5)
    80002982:	4581                	li	a1,0
    80002984:	ce8d                	beqz	a3,800029be <atol+0x68>
    80002986:	4501                	li	a0,0
    80002988:	0785                	add	a5,a5,1
    8000298a:	00251713          	sll	a4,a0,0x2
    8000298e:	fd06861b          	addw	a2,a3,-48
    80002992:	0007c683          	lbu	a3,0(a5)
    80002996:	972a                	add	a4,a4,a0
    80002998:	0706                	sll	a4,a4,0x1
    8000299a:	00e60533          	add	a0,a2,a4
    8000299e:	f6ed                	bnez	a3,80002988 <atol+0x32>
    800029a0:	c185                	beqz	a1,800029c0 <atol+0x6a>
    800029a2:	40a00533          	neg	a0,a0
    800029a6:	8082                	ret
    800029a8:	0017c683          	lbu	a3,1(a5)
    800029ac:	0785                	add	a5,a5,1
    800029ae:	ca81                	beqz	a3,800029be <atol+0x68>
    800029b0:	4581                	li	a1,0
    800029b2:	bfd1                	j	80002986 <atol+0x30>
    800029b4:	0017c683          	lbu	a3,1(a5)
    800029b8:	4585                	li	a1,1
    800029ba:	0785                	add	a5,a5,1
    800029bc:	f6e9                	bnez	a3,80002986 <atol+0x30>
    800029be:	4501                	li	a0,0
    800029c0:	8082                	ret

Disassembly of section .text.startup:

00000000800029c2 <main>:
    800029c2:	7155                	add	sp,sp,-208
    800029c4:	e586                	sd	ra,200(sp)
    800029c6:	e1a2                	sd	s0,192(sp)
    800029c8:	fd26                	sd	s1,184(sp)
    800029ca:	0980                	add	s0,sp,208
    800029cc:	f94a                	sd	s2,176(sp)
    800029ce:	f54e                	sd	s3,168(sp)
    800029d0:	f152                	sd	s4,160(sp)
    800029d2:	ed56                	sd	s5,152(sp)
    800029d4:	e95a                	sd	s6,144(sp)
    800029d6:	e55e                	sd	s7,136(sp)
    800029d8:	e162                	sd	s8,128(sp)
    800029da:	fce6                	sd	s9,120(sp)
    800029dc:	f8ea                	sd	s10,112(sp)
    800029de:	f4ee                	sd	s11,104(sp)
    800029e0:	00000797          	auipc	a5,0x0
    800029e4:	67878793          	add	a5,a5,1656 # 80003058 <main+0x696>
    800029e8:	7139                	add	sp,sp,-64
    800029ea:	860a                	mv	a2,sp
    800029ec:	0007a983          	lw	s3,0(a5)
    800029f0:	7139                	add	sp,sp,-64
    800029f2:	4685                	li	a3,1
    800029f4:	0047af83          	lw	t6,4(a5)
    800029f8:	0087af03          	lw	t5,8(a5)
    800029fc:	00c7ae83          	lw	t4,12(a5)
    80002a00:	0107ae03          	lw	t3,16(a5)
    80002a04:	0147a303          	lw	t1,20(a5)
    80002a08:	0187a883          	lw	a7,24(a5)
    80002a0c:	01c7d803          	lhu	a6,28(a5)
    80002a10:	01e7c503          	lbu	a0,30(a5)
    80002a14:	1686                	sll	a3,a3,0x21
    80002a16:	878a                	mv	a5,sp
    80002a18:	e794                	sd	a3,8(a5)
    80002a1a:	02800693          	li	a3,40
    80002a1e:	00001717          	auipc	a4,0x1
    80002a22:	c0a70713          	add	a4,a4,-1014 # 80003628 <main+0xc66>
    80002a26:	e390                	sd	a2,0(a5)
    80002a28:	cb94                	sw	a3,16(a5)
    80002a2a:	0137aa23          	sw	s3,20(a5)
    80002a2e:	84418693          	add	a3,gp,-1980 # 80003868 <Next_Ptr_Glob>
    80002a32:	01073383          	ld	t2,16(a4)
    80002a36:	01872283          	lw	t0,24(a4)
    80002a3a:	01c75583          	lhu	a1,28(a4)
    80002a3e:	00073903          	ld	s2,0(a4)
    80002a42:	6704                	ld	s1,8(a4)
    80002a44:	e290                	sd	a2,0(a3)
    80002a46:	84c18693          	add	a3,gp,-1972 # 80003870 <Ptr_Glob>
    80002a4a:	e29c                	sd	a5,0(a3)
    80002a4c:	01f7ac23          	sw	t6,24(a5)
    80002a50:	01e7ae23          	sw	t5,28(a5)
    80002a54:	03d7a023          	sw	t4,32(a5)
    80002a58:	03c7a223          	sw	t3,36(a5)
    80002a5c:	0267a423          	sw	t1,40(a5)
    80002a60:	0317a623          	sw	a7,44(a5)
    80002a64:	03079823          	sh	a6,48(a5)
    80002a68:	02a78923          	sb	a0,50(a5)
    80002a6c:	01e74783          	lbu	a5,30(a4)
    80002a70:	00000517          	auipc	a0,0x0
    80002a74:	61050513          	add	a0,a0,1552 # 80003080 <main+0x6be>
    80002a78:	00001717          	auipc	a4,0x1
    80002a7c:	ec870713          	add	a4,a4,-312 # 80003940 <Arr_2_Glob>
    80002a80:	f6f40723          	sb	a5,-146(s0)
    80002a84:	47a9                	li	a5,10
    80002a86:	64f72e23          	sw	a5,1628(a4)
    80002a8a:	f6743023          	sd	t2,-160(s0)
    80002a8e:	f6542423          	sw	t0,-152(s0)
    80002a92:	f6b41623          	sh	a1,-148(s0)
    80002a96:	f5243823          	sd	s2,-176(s0)
    80002a9a:	f4943c23          	sd	s1,-168(s0)
    80002a9e:	e78ff0ef          	jal	80002116 <debug_printf>
    80002aa2:	00000597          	auipc	a1,0x0
    80002aa6:	5e658593          	add	a1,a1,1510 # 80003088 <main+0x6c6>
    80002aaa:	00000517          	auipc	a0,0x0
    80002aae:	5ee50513          	add	a0,a0,1518 # 80003098 <main+0x6d6>
    80002ab2:	e64ff0ef          	jal	80002116 <debug_printf>
    80002ab6:	8301a783          	lw	a5,-2000(gp) # 80003854 <Reg>
    80002aba:	4981                	li	s3,0
    80002abc:	56078b63          	beqz	a5,80003032 <main+0x670>
    80002ac0:	00000517          	auipc	a0,0x0
    80002ac4:	60050513          	add	a0,a0,1536 # 800030c0 <main+0x6fe>
    80002ac8:	e4eff0ef          	jal	80002116 <debug_printf>
    80002acc:	000f4637          	lui	a2,0xf4
    80002ad0:	24060613          	add	a2,a2,576 # f4240 <buflen.1+0xf4200>
    80002ad4:	00000597          	auipc	a1,0x0
    80002ad8:	64c58593          	add	a1,a1,1612 # 80003120 <main+0x75e>
    80002adc:	00000517          	auipc	a0,0x0
    80002ae0:	65450513          	add	a0,a0,1620 # 80003130 <main+0x76e>
    80002ae4:	e32ff0ef          	jal	80002116 <debug_printf>
    80002ae8:	00000517          	auipc	a0,0x0
    80002aec:	59850513          	add	a0,a0,1432 # 80003080 <main+0x6be>
    80002af0:	e26ff0ef          	jal	80002116 <debug_printf>
    80002af4:	1f400793          	li	a5,500
    80002af8:	f2f43c23          	sd	a5,-200(s0)
    80002afc:	83418913          	add	s2,gp,-1996 # 80003858 <Ch_2_Glob>
    80002b00:	8201a623          	sw	zero,-2004(gp) # 80003850 <Done>
    80002b04:	83c18b13          	add	s6,gp,-1988 # 80003860 <Int_Glob>
    80002b08:	00001a17          	auipc	s4,0x1
    80002b0c:	b40a0a13          	add	s4,s4,-1216 # 80003648 <main+0xc86>
    80002b10:	00001497          	auipc	s1,0x1
    80002b14:	b5848493          	add	s1,s1,-1192 # 80003668 <main+0xca6>
    80002b18:	f3843a83          	ld	s5,-200(s0)
    80002b1c:	00000517          	auipc	a0,0x0
    80002b20:	62c50513          	add	a0,a0,1580 # 80003148 <main+0x786>
    80002b24:	85d6                	mv	a1,s5
    80002b26:	df0ff0ef          	jal	80002116 <debug_printf>
    80002b2a:	4505                	li	a0,1
    80002b2c:	a75ff0ef          	jal	800025a0 <setStats>
    80002b30:	b00027f3          	csrr	a5,mcycle
    80002b34:	82418713          	add	a4,gp,-2012 # 80003848 <Begin_Time>
    80002b38:	e31c                	sd	a5,0(a4)
    80002b3a:	15505463          	blez	s5,80002c82 <main+0x2c0>
    80002b3e:	001a8c9b          	addw	s9,s5,1
    80002b42:	4985                	li	s3,1
    80002b44:	4c05                	li	s8,1
    80002b46:	4b9d                	li	s7,7
    80002b48:	ee0ff0ef          	jal	80002228 <Proc_5>
    80002b4c:	ebcff0ef          	jal	80002208 <Proc_4>
    80002b50:	000a3883          	ld	a7,0(s4)
    80002b54:	008a3803          	ld	a6,8(s4)
    80002b58:	018a2683          	lw	a3,24(s4)
    80002b5c:	010a3603          	ld	a2,16(s4)
    80002b60:	01ca5703          	lhu	a4,28(s4)
    80002b64:	01ea4783          	lbu	a5,30(s4)
    80002b68:	f7040593          	add	a1,s0,-144
    80002b6c:	f5040513          	add	a0,s0,-176
    80002b70:	f7143823          	sd	a7,-144(s0)
    80002b74:	f7043c23          	sd	a6,-136(s0)
    80002b78:	f8d42423          	sw	a3,-120(s0)
    80002b7c:	f8c43023          	sd	a2,-128(s0)
    80002b80:	f8e41623          	sh	a4,-116(s0)
    80002b84:	f8f40723          	sb	a5,-114(s0)
    80002b88:	f5842623          	sw	s8,-180(s0)
    80002b8c:	cdaff0ef          	jal	80002066 <Func_2>
    80002b90:	83818713          	add	a4,gp,-1992 # 8000385c <Bool_Glob>
    80002b94:	00153793          	seqz	a5,a0
    80002b98:	f4840613          	add	a2,s0,-184
    80002b9c:	458d                	li	a1,3
    80002b9e:	4509                	li	a0,2
    80002ba0:	c31c                	sw	a5,0(a4)
    80002ba2:	f5742423          	sw	s7,-184(s0)
    80002ba6:	c5aff0ef          	jal	80002000 <Proc_7>
    80002baa:	f4842683          	lw	a3,-184(s0)
    80002bae:	478d                	li	a5,3
    80002bb0:	460d                	li	a2,3
    80002bb2:	00001597          	auipc	a1,0x1
    80002bb6:	d8e58593          	add	a1,a1,-626 # 80003940 <Arr_2_Glob>
    80002bba:	85418513          	add	a0,gp,-1964 # 80003878 <Arr_1_Glob>
    80002bbe:	f4f42223          	sw	a5,-188(s0)
    80002bc2:	c46ff0ef          	jal	80002008 <Proc_8>
    80002bc6:	84c18793          	add	a5,gp,-1972 # 80003870 <Ptr_Glob>
    80002bca:	6388                	ld	a0,0(a5)
    80002bcc:	d92ff0ef          	jal	8000215e <Proc_1>
    80002bd0:	00094703          	lbu	a4,0(s2)
    80002bd4:	04000793          	li	a5,64
    80002bd8:	42e7f063          	bgeu	a5,a4,80002ff8 <main+0x636>
    80002bdc:	04100d13          	li	s10,65
    80002be0:	4a8d                	li	s5,3
    80002be2:	a809                	j	80002bf4 <main+0x232>
    80002be4:	00094703          	lbu	a4,0(s2)
    80002be8:	001d079b          	addw	a5,s10,1
    80002bec:	0ff7fd13          	zext.b	s10,a5
    80002bf0:	07a76063          	bltu	a4,s10,80002c50 <main+0x28e>
    80002bf4:	04300593          	li	a1,67
    80002bf8:	856a                	mv	a0,s10
    80002bfa:	c54ff0ef          	jal	8000204e <Func_1>
    80002bfe:	f4c42703          	lw	a4,-180(s0)
    80002c02:	fea711e3          	bne	a4,a0,80002be4 <main+0x222>
    80002c06:	f4c40593          	add	a1,s0,-180
    80002c0a:	4501                	li	a0,0
    80002c0c:	c9eff0ef          	jal	800020aa <Proc_6>
    80002c10:	01e4c703          	lbu	a4,30(s1)
    80002c14:	0004b803          	ld	a6,0(s1)
    80002c18:	6488                	ld	a0,8(s1)
    80002c1a:	688c                	ld	a1,16(s1)
    80002c1c:	4c90                	lw	a2,24(s1)
    80002c1e:	01c4d683          	lhu	a3,28(s1)
    80002c22:	f8e40723          	sb	a4,-114(s0)
    80002c26:	00094703          	lbu	a4,0(s2)
    80002c2a:	001d079b          	addw	a5,s10,1
    80002c2e:	f7043823          	sd	a6,-144(s0)
    80002c32:	f6a43c23          	sd	a0,-136(s0)
    80002c36:	f8b43023          	sd	a1,-128(s0)
    80002c3a:	f8c42423          	sw	a2,-120(s0)
    80002c3e:	f8d41623          	sh	a3,-116(s0)
    80002c42:	013b2023          	sw	s3,0(s6)
    80002c46:	0ff7fd13          	zext.b	s10,a5
    80002c4a:	8ace                	mv	s5,s3
    80002c4c:	fba774e3          	bgeu	a4,s10,80002bf4 <main+0x232>
    80002c50:	001a979b          	sllw	a5,s5,0x1
    80002c54:	01578abb          	addw	s5,a5,s5
    80002c58:	f4842d03          	lw	s10,-184(s0)
    80002c5c:	f4440513          	add	a0,s0,-188
    80002c60:	2985                	addw	s3,s3,1
    80002c62:	03aacdbb          	divw	s11,s5,s10
    80002c66:	f5b42223          	sw	s11,-188(s0)
    80002c6a:	cc0ff0ef          	jal	8000212a <Proc_2>
    80002c6e:	ed3c9de3          	bne	s9,s3,80002b48 <main+0x186>
    80002c72:	41aa8abb          	subw	s5,s5,s10
    80002c76:	003a971b          	sllw	a4,s5,0x3
    80002c7a:	4157073b          	subw	a4,a4,s5
    80002c7e:	41b709bb          	subw	s3,a4,s11
    80002c82:	b00027f3          	csrr	a5,mcycle
    80002c86:	81c18713          	add	a4,gp,-2020 # 80003840 <End_Time>
    80002c8a:	4501                	li	a0,0
    80002c8c:	8aba                	mv	s5,a4
    80002c8e:	e31c                	sd	a5,0(a4)
    80002c90:	911ff0ef          	jal	800025a0 <setStats>
    80002c94:	82418713          	add	a4,gp,-2012 # 80003848 <Begin_Time>
    80002c98:	6318                	ld	a4,0(a4)
    80002c9a:	000ab783          	ld	a5,0(s5)
    80002c9e:	8f99                	sub	a5,a5,a4
    80002ca0:	81418713          	add	a4,gp,-2028 # 80003838 <User_Time>
    80002ca4:	e31c                	sd	a5,0(a4)
    80002ca6:	34f05b63          	blez	a5,80002ffc <main+0x63a>
    80002caa:	4785                	li	a5,1
    80002cac:	82c18713          	add	a4,gp,-2004 # 80003850 <Done>
    80002cb0:	c31c                	sw	a5,0(a4)
    80002cb2:	00000517          	auipc	a0,0x0
    80002cb6:	4f650513          	add	a0,a0,1270 # 800031a8 <main+0x7e6>
    80002cba:	c5cff0ef          	jal	80002116 <debug_printf>
    80002cbe:	00000517          	auipc	a0,0x0
    80002cc2:	3c250513          	add	a0,a0,962 # 80003080 <main+0x6be>
    80002cc6:	c50ff0ef          	jal	80002116 <debug_printf>
    80002cca:	000b2583          	lw	a1,0(s6)
    80002cce:	00000517          	auipc	a0,0x0
    80002cd2:	51250513          	add	a0,a0,1298 # 800031e0 <main+0x81e>
    80002cd6:	84c18493          	add	s1,gp,-1972 # 80003870 <Ptr_Glob>
    80002cda:	c3cff0ef          	jal	80002116 <debug_printf>
    80002cde:	4595                	li	a1,5
    80002ce0:	00000517          	auipc	a0,0x0
    80002ce4:	52050513          	add	a0,a0,1312 # 80003200 <main+0x83e>
    80002ce8:	c2eff0ef          	jal	80002116 <debug_printf>
    80002cec:	83818793          	add	a5,gp,-1992 # 8000385c <Bool_Glob>
    80002cf0:	438c                	lw	a1,0(a5)
    80002cf2:	00000517          	auipc	a0,0x0
    80002cf6:	52e50513          	add	a0,a0,1326 # 80003220 <main+0x85e>
    80002cfa:	c1cff0ef          	jal	80002116 <debug_printf>
    80002cfe:	4585                	li	a1,1
    80002d00:	00000517          	auipc	a0,0x0
    80002d04:	50050513          	add	a0,a0,1280 # 80003200 <main+0x83e>
    80002d08:	c0eff0ef          	jal	80002116 <debug_printf>
    80002d0c:	8351c583          	lbu	a1,-1995(gp) # 80003859 <Ch_1_Glob>
    80002d10:	00000517          	auipc	a0,0x0
    80002d14:	53050513          	add	a0,a0,1328 # 80003240 <main+0x87e>
    80002d18:	bfeff0ef          	jal	80002116 <debug_printf>
    80002d1c:	04100593          	li	a1,65
    80002d20:	00000517          	auipc	a0,0x0
    80002d24:	54050513          	add	a0,a0,1344 # 80003260 <main+0x89e>
    80002d28:	beeff0ef          	jal	80002116 <debug_printf>
    80002d2c:	00094583          	lbu	a1,0(s2)
    80002d30:	00000517          	auipc	a0,0x0
    80002d34:	55050513          	add	a0,a0,1360 # 80003280 <main+0x8be>
    80002d38:	bdeff0ef          	jal	80002116 <debug_printf>
    80002d3c:	04200593          	li	a1,66
    80002d40:	00000517          	auipc	a0,0x0
    80002d44:	52050513          	add	a0,a0,1312 # 80003260 <main+0x89e>
    80002d48:	bceff0ef          	jal	80002116 <debug_printf>
    80002d4c:	8741a583          	lw	a1,-1932(gp) # 80003898 <Arr_1_Glob+0x20>
    80002d50:	00000517          	auipc	a0,0x0
    80002d54:	55050513          	add	a0,a0,1360 # 800032a0 <main+0x8de>
    80002d58:	bbeff0ef          	jal	80002116 <debug_printf>
    80002d5c:	459d                	li	a1,7
    80002d5e:	00000517          	auipc	a0,0x0
    80002d62:	4a250513          	add	a0,a0,1186 # 80003200 <main+0x83e>
    80002d66:	bb0ff0ef          	jal	80002116 <debug_printf>
    80002d6a:	00001797          	auipc	a5,0x1
    80002d6e:	bd678793          	add	a5,a5,-1066 # 80003940 <Arr_2_Glob>
    80002d72:	65c7a583          	lw	a1,1628(a5)
    80002d76:	00000517          	auipc	a0,0x0
    80002d7a:	54a50513          	add	a0,a0,1354 # 800032c0 <main+0x8fe>
    80002d7e:	b98ff0ef          	jal	80002116 <debug_printf>
    80002d82:	00000517          	auipc	a0,0x0
    80002d86:	55e50513          	add	a0,a0,1374 # 800032e0 <main+0x91e>
    80002d8a:	b8cff0ef          	jal	80002116 <debug_printf>
    80002d8e:	00000517          	auipc	a0,0x0
    80002d92:	58250513          	add	a0,a0,1410 # 80003310 <main+0x94e>
    80002d96:	b80ff0ef          	jal	80002116 <debug_printf>
    80002d9a:	609c                	ld	a5,0(s1)
    80002d9c:	00000517          	auipc	a0,0x0
    80002da0:	58450513          	add	a0,a0,1412 # 80003320 <main+0x95e>
    80002da4:	638c                	ld	a1,0(a5)
    80002da6:	b70ff0ef          	jal	80002116 <debug_printf>
    80002daa:	00000517          	auipc	a0,0x0
    80002dae:	59650513          	add	a0,a0,1430 # 80003340 <main+0x97e>
    80002db2:	b64ff0ef          	jal	80002116 <debug_printf>
    80002db6:	609c                	ld	a5,0(s1)
    80002db8:	00000517          	auipc	a0,0x0
    80002dbc:	5c050513          	add	a0,a0,1472 # 80003378 <main+0x9b6>
    80002dc0:	478c                	lw	a1,8(a5)
    80002dc2:	b54ff0ef          	jal	80002116 <debug_printf>
    80002dc6:	4581                	li	a1,0
    80002dc8:	00000517          	auipc	a0,0x0
    80002dcc:	43850513          	add	a0,a0,1080 # 80003200 <main+0x83e>
    80002dd0:	b46ff0ef          	jal	80002116 <debug_printf>
    80002dd4:	609c                	ld	a5,0(s1)
    80002dd6:	00000517          	auipc	a0,0x0
    80002dda:	5c250513          	add	a0,a0,1474 # 80003398 <main+0x9d6>
    80002dde:	47cc                	lw	a1,12(a5)
    80002de0:	b36ff0ef          	jal	80002116 <debug_printf>
    80002de4:	4589                	li	a1,2
    80002de6:	00000517          	auipc	a0,0x0
    80002dea:	41a50513          	add	a0,a0,1050 # 80003200 <main+0x83e>
    80002dee:	b28ff0ef          	jal	80002116 <debug_printf>
    80002df2:	609c                	ld	a5,0(s1)
    80002df4:	00000517          	auipc	a0,0x0
    80002df8:	5c450513          	add	a0,a0,1476 # 800033b8 <main+0x9f6>
    80002dfc:	4b8c                	lw	a1,16(a5)
    80002dfe:	b18ff0ef          	jal	80002116 <debug_printf>
    80002e02:	45c5                	li	a1,17
    80002e04:	00000517          	auipc	a0,0x0
    80002e08:	3fc50513          	add	a0,a0,1020 # 80003200 <main+0x83e>
    80002e0c:	b0aff0ef          	jal	80002116 <debug_printf>
    80002e10:	608c                	ld	a1,0(s1)
    80002e12:	00000517          	auipc	a0,0x0
    80002e16:	5c650513          	add	a0,a0,1478 # 800033d8 <main+0xa16>
    80002e1a:	84418493          	add	s1,gp,-1980 # 80003868 <Next_Ptr_Glob>
    80002e1e:	05d1                	add	a1,a1,20
    80002e20:	af6ff0ef          	jal	80002116 <debug_printf>
    80002e24:	00000517          	auipc	a0,0x0
    80002e28:	5d450513          	add	a0,a0,1492 # 800033f8 <main+0xa36>
    80002e2c:	aeaff0ef          	jal	80002116 <debug_printf>
    80002e30:	00000517          	auipc	a0,0x0
    80002e34:	60050513          	add	a0,a0,1536 # 80003430 <main+0xa6e>
    80002e38:	adeff0ef          	jal	80002116 <debug_printf>
    80002e3c:	609c                	ld	a5,0(s1)
    80002e3e:	00000517          	auipc	a0,0x0
    80002e42:	4e250513          	add	a0,a0,1250 # 80003320 <main+0x95e>
    80002e46:	638c                	ld	a1,0(a5)
    80002e48:	aceff0ef          	jal	80002116 <debug_printf>
    80002e4c:	00000517          	auipc	a0,0x0
    80002e50:	5fc50513          	add	a0,a0,1532 # 80003448 <main+0xa86>
    80002e54:	ac2ff0ef          	jal	80002116 <debug_printf>
    80002e58:	609c                	ld	a5,0(s1)
    80002e5a:	00000517          	auipc	a0,0x0
    80002e5e:	51e50513          	add	a0,a0,1310 # 80003378 <main+0x9b6>
    80002e62:	478c                	lw	a1,8(a5)
    80002e64:	ab2ff0ef          	jal	80002116 <debug_printf>
    80002e68:	4581                	li	a1,0
    80002e6a:	00000517          	auipc	a0,0x0
    80002e6e:	39650513          	add	a0,a0,918 # 80003200 <main+0x83e>
    80002e72:	aa4ff0ef          	jal	80002116 <debug_printf>
    80002e76:	609c                	ld	a5,0(s1)
    80002e78:	00000517          	auipc	a0,0x0
    80002e7c:	52050513          	add	a0,a0,1312 # 80003398 <main+0x9d6>
    80002e80:	47cc                	lw	a1,12(a5)
    80002e82:	a94ff0ef          	jal	80002116 <debug_printf>
    80002e86:	4585                	li	a1,1
    80002e88:	00000517          	auipc	a0,0x0
    80002e8c:	37850513          	add	a0,a0,888 # 80003200 <main+0x83e>
    80002e90:	a86ff0ef          	jal	80002116 <debug_printf>
    80002e94:	609c                	ld	a5,0(s1)
    80002e96:	00000517          	auipc	a0,0x0
    80002e9a:	52250513          	add	a0,a0,1314 # 800033b8 <main+0x9f6>
    80002e9e:	4b8c                	lw	a1,16(a5)
    80002ea0:	a76ff0ef          	jal	80002116 <debug_printf>
    80002ea4:	45c9                	li	a1,18
    80002ea6:	00000517          	auipc	a0,0x0
    80002eaa:	35a50513          	add	a0,a0,858 # 80003200 <main+0x83e>
    80002eae:	a68ff0ef          	jal	80002116 <debug_printf>
    80002eb2:	608c                	ld	a1,0(s1)
    80002eb4:	00000517          	auipc	a0,0x0
    80002eb8:	52450513          	add	a0,a0,1316 # 800033d8 <main+0xa16>
    80002ebc:	00001497          	auipc	s1,0x1
    80002ec0:	96c48493          	add	s1,s1,-1684 # 80003828 <Dhrystones_Per_Second>
    80002ec4:	05d1                	add	a1,a1,20
    80002ec6:	a50ff0ef          	jal	80002116 <debug_printf>
    80002eca:	00000517          	auipc	a0,0x0
    80002ece:	52e50513          	add	a0,a0,1326 # 800033f8 <main+0xa36>
    80002ed2:	a44ff0ef          	jal	80002116 <debug_printf>
    80002ed6:	f4442583          	lw	a1,-188(s0)
    80002eda:	00000517          	auipc	a0,0x0
    80002ede:	5ae50513          	add	a0,a0,1454 # 80003488 <main+0xac6>
    80002ee2:	a34ff0ef          	jal	80002116 <debug_printf>
    80002ee6:	4595                	li	a1,5
    80002ee8:	00000517          	auipc	a0,0x0
    80002eec:	31850513          	add	a0,a0,792 # 80003200 <main+0x83e>
    80002ef0:	a26ff0ef          	jal	80002116 <debug_printf>
    80002ef4:	85ce                	mv	a1,s3
    80002ef6:	00000517          	auipc	a0,0x0
    80002efa:	5b250513          	add	a0,a0,1458 # 800034a8 <main+0xae6>
    80002efe:	a18ff0ef          	jal	80002116 <debug_printf>
    80002f02:	45b5                	li	a1,13
    80002f04:	00000517          	auipc	a0,0x0
    80002f08:	2fc50513          	add	a0,a0,764 # 80003200 <main+0x83e>
    80002f0c:	a0aff0ef          	jal	80002116 <debug_printf>
    80002f10:	f4842583          	lw	a1,-184(s0)
    80002f14:	00000517          	auipc	a0,0x0
    80002f18:	5b450513          	add	a0,a0,1460 # 800034c8 <main+0xb06>
    80002f1c:	9faff0ef          	jal	80002116 <debug_printf>
    80002f20:	459d                	li	a1,7
    80002f22:	00000517          	auipc	a0,0x0
    80002f26:	2de50513          	add	a0,a0,734 # 80003200 <main+0x83e>
    80002f2a:	9ecff0ef          	jal	80002116 <debug_printf>
    80002f2e:	f4c42583          	lw	a1,-180(s0)
    80002f32:	00000517          	auipc	a0,0x0
    80002f36:	5b650513          	add	a0,a0,1462 # 800034e8 <main+0xb26>
    80002f3a:	9dcff0ef          	jal	80002116 <debug_printf>
    80002f3e:	4585                	li	a1,1
    80002f40:	00000517          	auipc	a0,0x0
    80002f44:	2c050513          	add	a0,a0,704 # 80003200 <main+0x83e>
    80002f48:	9ceff0ef          	jal	80002116 <debug_printf>
    80002f4c:	f5040593          	add	a1,s0,-176
    80002f50:	00000517          	auipc	a0,0x0
    80002f54:	5b850513          	add	a0,a0,1464 # 80003508 <main+0xb46>
    80002f58:	9beff0ef          	jal	80002116 <debug_printf>
    80002f5c:	00000517          	auipc	a0,0x0
    80002f60:	5cc50513          	add	a0,a0,1484 # 80003528 <main+0xb66>
    80002f64:	9b2ff0ef          	jal	80002116 <debug_printf>
    80002f68:	f7040593          	add	a1,s0,-144
    80002f6c:	00000517          	auipc	a0,0x0
    80002f70:	5f450513          	add	a0,a0,1524 # 80003560 <main+0xb9e>
    80002f74:	9a2ff0ef          	jal	80002116 <debug_printf>
    80002f78:	00000517          	auipc	a0,0x0
    80002f7c:	60850513          	add	a0,a0,1544 # 80003580 <main+0xbbe>
    80002f80:	996ff0ef          	jal	80002116 <debug_printf>
    80002f84:	00000517          	auipc	a0,0x0
    80002f88:	0fc50513          	add	a0,a0,252 # 80003080 <main+0x6be>
    80002f8c:	98aff0ef          	jal	80002116 <debug_printf>
    80002f90:	f3843603          	ld	a2,-200(s0)
    80002f94:	000f47b7          	lui	a5,0xf4
    80002f98:	2407879b          	addw	a5,a5,576 # f4240 <buflen.1+0xf4200>
    80002f9c:	02c7873b          	mulw	a4,a5,a2
    80002fa0:	81418793          	add	a5,gp,-2028 # 80003838 <User_Time>
    80002fa4:	6394                	ld	a3,0(a5)
    80002fa6:	00000517          	auipc	a0,0x0
    80002faa:	61250513          	add	a0,a0,1554 # 800035b8 <main+0xbf6>
    80002fae:	02c6c7b3          	div	a5,a3,a2
    80002fb2:	02d74733          	div	a4,a4,a3
    80002fb6:	85be                	mv	a1,a5
    80002fb8:	00001697          	auipc	a3,0x1
    80002fbc:	86f6bc23          	sd	a5,-1928(a3) # 80003830 <Microseconds>
    80002fc0:	e098                	sd	a4,0(s1)
    80002fc2:	ef4ff0ef          	jal	800026b6 <printf>
    80002fc6:	608c                	ld	a1,0(s1)
    80002fc8:	00000517          	auipc	a0,0x0
    80002fcc:	62850513          	add	a0,a0,1576 # 800035f0 <main+0xc2e>
    80002fd0:	ee6ff0ef          	jal	800026b6 <printf>
    80002fd4:	f3040113          	add	sp,s0,-208
    80002fd8:	60ae                	ld	ra,200(sp)
    80002fda:	640e                	ld	s0,192(sp)
    80002fdc:	74ea                	ld	s1,184(sp)
    80002fde:	794a                	ld	s2,176(sp)
    80002fe0:	79aa                	ld	s3,168(sp)
    80002fe2:	7a0a                	ld	s4,160(sp)
    80002fe4:	6aea                	ld	s5,152(sp)
    80002fe6:	6b4a                	ld	s6,144(sp)
    80002fe8:	6baa                	ld	s7,136(sp)
    80002fea:	6c0a                	ld	s8,128(sp)
    80002fec:	7ce6                	ld	s9,120(sp)
    80002fee:	7d46                	ld	s10,112(sp)
    80002ff0:	7da6                	ld	s11,104(sp)
    80002ff2:	4501                	li	a0,0
    80002ff4:	6169                	add	sp,sp,208
    80002ff6:	8082                	ret
    80002ff8:	4aa5                	li	s5,9
    80002ffa:	b9b9                	j	80002c58 <main+0x296>
    80002ffc:	00000517          	auipc	a0,0x0
    80003000:	17450513          	add	a0,a0,372 # 80003170 <main+0x7ae>
    80003004:	eb2ff0ef          	jal	800026b6 <printf>
    80003008:	f3843703          	ld	a4,-200(s0)
    8000300c:	00000517          	auipc	a0,0x0
    80003010:	07450513          	add	a0,a0,116 # 80003080 <main+0x6be>
    80003014:	0027179b          	sllw	a5,a4,0x2
    80003018:	9fb9                	addw	a5,a5,a4
    8000301a:	0017979b          	sllw	a5,a5,0x1
    8000301e:	f2f43c23          	sd	a5,-200(s0)
    80003022:	e94ff0ef          	jal	800026b6 <printf>
    80003026:	82c18793          	add	a5,gp,-2004 # 80003850 <Done>
    8000302a:	439c                	lw	a5,0(a5)
    8000302c:	ae0786e3          	beqz	a5,80002b18 <main+0x156>
    80003030:	b149                	j	80002cb2 <main+0x2f0>
    80003032:	00000517          	auipc	a0,0x0
    80003036:	0be50513          	add	a0,a0,190 # 800030f0 <main+0x72e>
    8000303a:	8dcff0ef          	jal	80002116 <debug_printf>
    8000303e:	b479                	j	80002acc <main+0x10a>
    80003040:	1141                	add	sp,sp,-16
    80003042:	00000517          	auipc	a0,0x0
    80003046:	66650513          	add	a0,a0,1638 # 800036a8 <main+0xce6>
    8000304a:	e406                	sd	ra,8(sp)
    8000304c:	dcaff0ef          	jal	80002616 <printstr>
    80003050:	60a2                	ld	ra,8(sp)
    80003052:	557d                	li	a0,-1
    80003054:	0141                	add	sp,sp,16
    80003056:	8082                	ret
