
mm.riscv:     file format elf64-littleriscv


Disassembly of section .text.init:

0000000080000000 <_start>:
    80000000:	4081                	li	ra,0
    80000002:	4101                	li	sp,0
    80000004:	4181                	li	gp,0
    80000006:	4201                	li	tp,0
    80000008:	4281                	li	t0,0
    8000000a:	4301                	li	t1,0
    8000000c:	4381                	li	t2,0
    8000000e:	4401                	li	s0,0
    80000010:	4481                	li	s1,0
    80000012:	4501                	li	a0,0
    80000014:	4581                	li	a1,0
    80000016:	4601                	li	a2,0
    80000018:	4681                	li	a3,0
    8000001a:	4701                	li	a4,0
    8000001c:	4781                	li	a5,0
    8000001e:	4801                	li	a6,0
    80000020:	4881                	li	a7,0
    80000022:	4901                	li	s2,0
    80000024:	4981                	li	s3,0
    80000026:	4a01                	li	s4,0
    80000028:	4a81                	li	s5,0
    8000002a:	4b01                	li	s6,0
    8000002c:	4b81                	li	s7,0
    8000002e:	4c01                	li	s8,0
    80000030:	4c81                	li	s9,0
    80000032:	4d01                	li	s10,0
    80000034:	4d81                	li	s11,0
    80000036:	4e01                	li	t3,0
    80000038:	4e81                	li	t4,0
    8000003a:	4f01                	li	t5,0
    8000003c:	4f81                	li	t6,0
    8000003e:	62f9                	lui	t0,0x1e
    80000040:	6002829b          	addw	t0,t0,1536 # 1e600 <buflen.1+0x1e580>
    80000044:	3002a073          	csrs	mstatus,t0
    80000048:	4285                	li	t0,1
    8000004a:	02fe                	sll	t0,t0,0x1f
    8000004c:	0002d863          	bgez	t0,8000005c <_start+0x5c>
    80000050:	4505                	li	a0,1
    80000052:	00001297          	auipc	t0,0x1
    80000056:	faa2a723          	sw	a0,-82(t0) # 80001000 <tohost>
    8000005a:	bfdd                	j	80000050 <_start+0x50>
    8000005c:	00000297          	auipc	t0,0x0
    80000060:	09028293          	add	t0,t0,144 # 800000ec <_start+0xec>
    80000064:	30529073          	csrw	mtvec,t0
    80000068:	00301073          	fscsr	zero
    8000006c:	f0000053          	fmv.w.x	ft0,zero
    80000070:	f00000d3          	fmv.w.x	ft1,zero
    80000074:	f0000153          	fmv.w.x	ft2,zero
    80000078:	f00001d3          	fmv.w.x	ft3,zero
    8000007c:	f0000253          	fmv.w.x	ft4,zero
    80000080:	f00002d3          	fmv.w.x	ft5,zero
    80000084:	f0000353          	fmv.w.x	ft6,zero
    80000088:	f00003d3          	fmv.w.x	ft7,zero
    8000008c:	f0000453          	fmv.w.x	fs0,zero
    80000090:	f00004d3          	fmv.w.x	fs1,zero
    80000094:	f0000553          	fmv.w.x	fa0,zero
    80000098:	f00005d3          	fmv.w.x	fa1,zero
    8000009c:	f0000653          	fmv.w.x	fa2,zero
    800000a0:	f00006d3          	fmv.w.x	fa3,zero
    800000a4:	f0000753          	fmv.w.x	fa4,zero
    800000a8:	f00007d3          	fmv.w.x	fa5,zero
    800000ac:	f0000853          	fmv.w.x	fa6,zero
    800000b0:	f00008d3          	fmv.w.x	fa7,zero
    800000b4:	f0000953          	fmv.w.x	fs2,zero
    800000b8:	f00009d3          	fmv.w.x	fs3,zero
    800000bc:	f0000a53          	fmv.w.x	fs4,zero
    800000c0:	f0000ad3          	fmv.w.x	fs5,zero
    800000c4:	f0000b53          	fmv.w.x	fs6,zero
    800000c8:	f0000bd3          	fmv.w.x	fs7,zero
    800000cc:	f0000c53          	fmv.w.x	fs8,zero
    800000d0:	f0000cd3          	fmv.w.x	fs9,zero
    800000d4:	f0000d53          	fmv.w.x	fs10,zero
    800000d8:	f0000dd3          	fmv.w.x	fs11,zero
    800000dc:	f0000e53          	fmv.w.x	ft8,zero
    800000e0:	f0000ed3          	fmv.w.x	ft9,zero
    800000e4:	f0000f53          	fmv.w.x	ft10,zero
    800000e8:	f0000fd3          	fmv.w.x	ft11,zero
    800000ec:	00000297          	auipc	t0,0x0
    800000f0:	03828293          	add	t0,t0,56 # 80000124 <trap_entry>
    800000f4:	30529073          	csrw	mtvec,t0
    800000f8:	00005197          	auipc	gp,0x5
    800000fc:	75018193          	add	gp,gp,1872 # 80005848 <__global_pointer$>
    80000100:	af718213          	add	tp,gp,-1289 # 8000533f <_end+0x3f>
    80000104:	fc027213          	and	tp,tp,-64
    80000108:	f1402573          	csrr	a0,mhartid
    8000010c:	4585                	li	a1,1
    8000010e:	00b57063          	bgeu	a0,a1,8000010e <_start+0x10e>
    80000112:	00150113          	add	sp,a0,1
    80000116:	0146                	sll	sp,sp,0x11
    80000118:	9112                	add	sp,sp,tp
    8000011a:	01151613          	sll	a2,a0,0x11
    8000011e:	9232                	add	tp,tp,a2
    80000120:	5870406f          	j	80004ea6 <_init>

0000000080000124 <trap_entry>:
    80000124:	716d                	add	sp,sp,-272
    80000126:	e406                	sd	ra,8(sp)
    80000128:	e80a                	sd	sp,16(sp)
    8000012a:	ec0e                	sd	gp,24(sp)
    8000012c:	f012                	sd	tp,32(sp)
    8000012e:	f416                	sd	t0,40(sp)
    80000130:	f81a                	sd	t1,48(sp)
    80000132:	fc1e                	sd	t2,56(sp)
    80000134:	e0a2                	sd	s0,64(sp)
    80000136:	e4a6                	sd	s1,72(sp)
    80000138:	e8aa                	sd	a0,80(sp)
    8000013a:	ecae                	sd	a1,88(sp)
    8000013c:	f0b2                	sd	a2,96(sp)
    8000013e:	f4b6                	sd	a3,104(sp)
    80000140:	f8ba                	sd	a4,112(sp)
    80000142:	fcbe                	sd	a5,120(sp)
    80000144:	e142                	sd	a6,128(sp)
    80000146:	e546                	sd	a7,136(sp)
    80000148:	e94a                	sd	s2,144(sp)
    8000014a:	ed4e                	sd	s3,152(sp)
    8000014c:	f152                	sd	s4,160(sp)
    8000014e:	f556                	sd	s5,168(sp)
    80000150:	f95a                	sd	s6,176(sp)
    80000152:	fd5e                	sd	s7,184(sp)
    80000154:	e1e2                	sd	s8,192(sp)
    80000156:	e5e6                	sd	s9,200(sp)
    80000158:	e9ea                	sd	s10,208(sp)
    8000015a:	edee                	sd	s11,216(sp)
    8000015c:	f1f2                	sd	t3,224(sp)
    8000015e:	f5f6                	sd	t4,232(sp)
    80000160:	f9fa                	sd	t5,240(sp)
    80000162:	fdfe                	sd	t6,248(sp)
    80000164:	34202573          	csrr	a0,mcause
    80000168:	341025f3          	csrr	a1,mepc
    8000016c:	860a                	mv	a2,sp
    8000016e:	301040ef          	jal	80004c6e <handle_trap>
    80000172:	34151073          	csrw	mepc,a0
    80000176:	6289                	lui	t0,0x2
    80000178:	8002829b          	addw	t0,t0,-2048 # 1800 <buflen.1+0x1780>
    8000017c:	3002a073          	csrs	mstatus,t0
    80000180:	60a2                	ld	ra,8(sp)
    80000182:	6142                	ld	sp,16(sp)
    80000184:	61e2                	ld	gp,24(sp)
    80000186:	7202                	ld	tp,32(sp)
    80000188:	72a2                	ld	t0,40(sp)
    8000018a:	7342                	ld	t1,48(sp)
    8000018c:	73e2                	ld	t2,56(sp)
    8000018e:	6406                	ld	s0,64(sp)
    80000190:	64a6                	ld	s1,72(sp)
    80000192:	6546                	ld	a0,80(sp)
    80000194:	65e6                	ld	a1,88(sp)
    80000196:	7606                	ld	a2,96(sp)
    80000198:	76a6                	ld	a3,104(sp)
    8000019a:	7746                	ld	a4,112(sp)
    8000019c:	77e6                	ld	a5,120(sp)
    8000019e:	680a                	ld	a6,128(sp)
    800001a0:	68aa                	ld	a7,136(sp)
    800001a2:	694a                	ld	s2,144(sp)
    800001a4:	69ea                	ld	s3,152(sp)
    800001a6:	7a0a                	ld	s4,160(sp)
    800001a8:	7aaa                	ld	s5,168(sp)
    800001aa:	7b4a                	ld	s6,176(sp)
    800001ac:	7bea                	ld	s7,184(sp)
    800001ae:	6c0e                	ld	s8,192(sp)
    800001b0:	6cae                	ld	s9,200(sp)
    800001b2:	6d4e                	ld	s10,208(sp)
    800001b4:	6dee                	ld	s11,216(sp)
    800001b6:	7e0e                	ld	t3,224(sp)
    800001b8:	7eae                	ld	t4,232(sp)
    800001ba:	7f4e                	ld	t5,240(sp)
    800001bc:	7fee                	ld	t6,248(sp)
    800001be:	6151                	add	sp,sp,272
    800001c0:	30200073          	mret
    800001c4:	0000                	unimp

Disassembly of section .text:

0000000080002000 <mm_naive>:
    80002000:	7119                	add	sp,sp,-128
    80002002:	f46a                	sd	s10,40(sp)
    80002004:	6d0a                	ld	s10,128(sp)
    80002006:	14050163          	beqz	a0,80002148 <mm_naive+0x148>
    8000200a:	e4da                	sd	s6,72(sp)
    8000200c:	fc62                	sd	s8,56(sp)
    8000200e:	8b2a                	mv	s6,a0
    80002010:	8c46                	mv	s8,a7
    80002012:	00361513          	sll	a0,a2,0x3
    80002016:	ffc67893          	and	a7,a2,-4
    8000201a:	82b2                	mv	t0,a2
    8000201c:	00381613          	sll	a2,a6,0x3
    80002020:	f0ce                	sd	s3,96(sp)
    80002022:	031609b3          	mul	s3,a2,a7
    80002026:	00181e13          	sll	t3,a6,0x1
    8000202a:	e0de                	sd	s7,64(sp)
    8000202c:	9e42                	add	t3,t3,a6
    8000202e:	00371b93          	sll	s7,a4,0x3
    80002032:	f8a6                	sd	s1,112(sp)
    80002034:	f4ca                	sd	s2,104(sp)
    80002036:	ecd2                	sd	s4,88(sp)
    80002038:	e8d6                	sd	s5,80(sp)
    8000203a:	f866                	sd	s9,48(sp)
    8000203c:	84ae                	mv	s1,a1
    8000203e:	8a36                	mv	s4,a3
    80002040:	8aba                	mv	s5,a4
    80002042:	8cbe                	mv	s9,a5
    80002044:	9536                	add	a0,a0,a3
    80002046:	fca2                	sd	s0,120(sp)
    80002048:	f06e                	sd	s11,32(sp)
    8000204a:	00581e93          	sll	t4,a6,0x5
    8000204e:	00481313          	sll	t1,a6,0x4
    80002052:	0e0e                	sll	t3,t3,0x3
    80002054:	4781                	li	a5,0
    80002056:	4581                	li	a1,0
    80002058:	4701                	li	a4,0
    8000205a:	490d                	li	s2,3
    8000205c:	ec5e                	sd	s7,24(sp)
    8000205e:	86da                	mv	a3,s6
    80002060:	8fe2                	mv	t6,s8
    80002062:	c0e9                	beqz	s1,80002124 <mm_naive+0x124>
    80002064:	01178bb3          	add	s7,a5,a7
    80002068:	00359393          	sll	t2,a1,0x3
    8000206c:	00379c13          	sll	s8,a5,0x3
    80002070:	0b8e                	sll	s7,s7,0x3
    80002072:	93fe                	add	t2,t2,t6
    80002074:	8466                	mv	s0,s9
    80002076:	9c52                	add	s8,s8,s4
    80002078:	9bd2                	add	s7,s7,s4
    8000207a:	4b01                	li	s6,0
    8000207c:	e83a                	sd	a4,16(sp)
    8000207e:	8dbe                	mv	s11,a5
    80002080:	8f2e                	mv	t5,a1
    80002082:	0003b787          	fld	fa5,0(t2)
    80002086:	0c597463          	bgeu	s2,t0,8000214e <mm_naive+0x14e>
    8000208a:	f20006d3          	fmv.d.x	fa3,zero
    8000208e:	8722                	mv	a4,s0
    80002090:	87e2                	mv	a5,s8
    80002092:	22d68653          	fmv.d	fa2,fa3
    80002096:	22d68753          	fmv.d	fa4,fa3
    8000209a:	4581                	li	a1,0
    8000209c:	e05a                	sd	s6,0(sp)
    8000209e:	e462                	sd	s8,8(sp)
    800020a0:	00c70c33          	add	s8,a4,a2
    800020a4:	00670b33          	add	s6,a4,t1
    800020a8:	01c70833          	add	a6,a4,t3
    800020ac:	0007b287          	fld	ft5,0(a5)
    800020b0:	00073207          	fld	ft4,0(a4)
    800020b4:	0087b187          	fld	ft3,8(a5)
    800020b8:	0107b087          	fld	ft1,16(a5)
    800020bc:	2f88                	fld	fa0,24(a5)
    800020be:	000c3107          	fld	ft2,0(s8)
    800020c2:	000b3007          	fld	ft0,0(s6)
    800020c6:	00083587          	fld	fa1,0(a6)
    800020ca:	0591                	add	a1,a1,4
    800020cc:	7a42f7c3          	fmadd.d	fa5,ft5,ft4,fa5
    800020d0:	7221f743          	fmadd.d	fa4,ft3,ft2,fa4
    800020d4:	6200f643          	fmadd.d	fa2,ft1,ft0,fa2
    800020d8:	6ab576c3          	fmadd.d	fa3,fa0,fa1,fa3
    800020dc:	02078793          	add	a5,a5,32
    800020e0:	9776                	add	a4,a4,t4
    800020e2:	fb15efe3          	bltu	a1,a7,800020a0 <mm_naive+0xa0>
    800020e6:	02c77753          	fadd.d	fa4,fa4,fa2
    800020ea:	6b02                	ld	s6,0(sp)
    800020ec:	6c22                	ld	s8,8(sp)
    800020ee:	02d77753          	fadd.d	fa4,fa4,fa3
    800020f2:	0058fd63          	bgeu	a7,t0,8000210c <mm_naive+0x10c>
    800020f6:	00898733          	add	a4,s3,s0
    800020fa:	87de                	mv	a5,s7
    800020fc:	2390                	fld	fa2,0(a5)
    800020fe:	2314                	fld	fa3,0(a4)
    80002100:	07a1                	add	a5,a5,8
    80002102:	9732                	add	a4,a4,a2
    80002104:	7ad677c3          	fmadd.d	fa5,fa2,fa3,fa5
    80002108:	fef51ae3          	bne	a0,a5,800020fc <mm_naive+0xfc>
    8000210c:	02e7f7d3          	fadd.d	fa5,fa5,fa4
    80002110:	0b05                	add	s6,s6,1
    80002112:	03a1                	add	t2,t2,8
    80002114:	0421                	add	s0,s0,8
    80002116:	fef3bc27          	fsd	fa5,-8(t2)
    8000211a:	f76494e3          	bne	s1,s6,80002082 <mm_naive+0x82>
    8000211e:	6742                	ld	a4,16(sp)
    80002120:	87ee                	mv	a5,s11
    80002122:	85fa                	mv	a1,t5
    80002124:	6462                	ld	s0,24(sp)
    80002126:	0705                	add	a4,a4,1
    80002128:	95ea                	add	a1,a1,s10
    8000212a:	97d6                	add	a5,a5,s5
    8000212c:	9522                	add	a0,a0,s0
    8000212e:	f2e69ae3          	bne	a3,a4,80002062 <mm_naive+0x62>
    80002132:	7466                	ld	s0,120(sp)
    80002134:	74c6                	ld	s1,112(sp)
    80002136:	7926                	ld	s2,104(sp)
    80002138:	7986                	ld	s3,96(sp)
    8000213a:	6a66                	ld	s4,88(sp)
    8000213c:	6ac6                	ld	s5,80(sp)
    8000213e:	6b26                	ld	s6,72(sp)
    80002140:	6b86                	ld	s7,64(sp)
    80002142:	7c62                	ld	s8,56(sp)
    80002144:	7cc2                	ld	s9,48(sp)
    80002146:	7d82                	ld	s11,32(sp)
    80002148:	7d22                	ld	s10,40(sp)
    8000214a:	6109                	add	sp,sp,128
    8000214c:	8082                	ret
    8000214e:	f2000753          	fmv.d.x	fa4,zero
    80002152:	b745                	j	800020f2 <mm_naive+0xf2>

0000000080002154 <mm_cb>:
    80002154:	4365                	li	t1,25
    80002156:	0265d2b3          	divu	t0,a1,t1
    8000215a:	d3010113          	add	sp,sp,-720
    8000215e:	4ee1                	li	t4,24
    80002160:	8fb2                	mv	t6,a2
    80002162:	29713423          	sd	s7,648(sp)
    80002166:	8bc6                	mv	s7,a7
    80002168:	29513c23          	sd	s5,664(sp)
    8000216c:	8abe                	mv	s5,a5
    8000216e:	2c813023          	sd	s0,704(sp)
    80002172:	2a913c23          	sd	s1,696(sp)
    80002176:	2b313423          	sd	s3,680(sp)
    8000217a:	2b413023          	sd	s4,672(sp)
    8000217e:	27913c23          	sd	s9,632(sp)
    80002182:	0d80                	add	s0,sp,720
    80002184:	2c113423          	sd	ra,712(sp)
    80002188:	2b213823          	sd	s2,688(sp)
    8000218c:	29613823          	sd	s6,656(sp)
    80002190:	29813023          	sd	s8,640(sp)
    80002194:	27a13823          	sd	s10,624(sp)
    80002198:	27b13423          	sd	s11,616(sp)
    8000219c:	24813c27          	fsd	fs0,600(sp)
    800021a0:	24913827          	fsd	fs1,592(sp)
    800021a4:	25213427          	fsd	fs2,584(sp)
    800021a8:	25313027          	fsd	fs3,576(sp)
    800021ac:	23413c27          	fsd	fs4,568(sp)
    800021b0:	23513827          	fsd	fs5,560(sp)
    800021b4:	23613427          	fsd	fs6,552(sp)
    800021b8:	23713027          	fsd	fs7,544(sp)
    800021bc:	21813c27          	fsd	fs8,536(sp)
    800021c0:	21913827          	fsd	fs9,528(sp)
    800021c4:	21a13427          	fsd	fs10,520(sp)
    800021c8:	84aa                	mv	s1,a0
    800021ca:	eaa43c23          	sd	a0,-328(s0)
    800021ce:	8542                	mv	a0,a6
    800021d0:	f2e43423          	sd	a4,-216(s0)
    800021d4:	8f3a                	mv	t5,a4
    800021d6:	89b6                	mv	s3,a3
    800021d8:	6e09                	lui	t3,0x2
    800021da:	f2c43023          	sd	a2,-224(s0)
    800021de:	fffe0613          	add	a2,t3,-1 # 1fff <buflen.1+0x1f7f>
    800021e2:	7379                	lui	t1,0xffffe
    800021e4:	03dfd8b3          	divu	a7,t6,t4
    800021e8:	00129793          	sll	a5,t0,0x1
    800021ec:	9796                	add	a5,a5,t0
    800021ee:	078e                	sll	a5,a5,0x3
    800021f0:	00578833          	add	a6,a5,t0
    800021f4:	f1043023          	sd	a6,-256(s0)
    800021f8:	03d4f7b3          	remu	a5,s1,t4
    800021fc:	00189713          	sll	a4,a7,0x1
    80002200:	9746                	add	a4,a4,a7
    80002202:	00671693          	sll	a3,a4,0x6
    80002206:	00371c93          	sll	s9,a4,0x3
    8000220a:	0c800713          	li	a4,200
    8000220e:	e2d43823          	sd	a3,-464(s0)
    80002212:	f1943c23          	sd	s9,-232(s0)
    80002216:	02e28a33          	mul	s4,t0,a4
    8000221a:	8c9d                	sub	s1,s1,a5
    8000221c:	02d80733          	mul	a4,a6,a3
    80002220:	034487b3          	mul	a5,s1,s4
    80002224:	9732                	add	a4,a4,a2
    80002226:	073d                	add	a4,a4,15
    80002228:	9b41                	and	a4,a4,-16
    8000222a:	02d486b3          	mul	a3,s1,a3
    8000222e:	97b2                	add	a5,a5,a2
    80002230:	07bd                	add	a5,a5,15
    80002232:	9bc1                	and	a5,a5,-16
    80002234:	96f2                	add	a3,a3,t3
    80002236:	40d10133          	sub	sp,sp,a3
    8000223a:	0814                	add	a3,sp,16
    8000223c:	40e10133          	sub	sp,sp,a4
    80002240:	0818                	add	a4,sp,16
    80002242:	40f10133          	sub	sp,sp,a5
    80002246:	96b2                	add	a3,a3,a2
    80002248:	081c                	add	a5,sp,16
    8000224a:	9732                	add	a4,a4,a2
    8000224c:	0066f6b3          	and	a3,a3,t1
    80002250:	97b2                	add	a5,a5,a2
    80002252:	e6d43c23          	sd	a3,-392(s0)
    80002256:	00677733          	and	a4,a4,t1
    8000225a:	0067f7b3          	and	a5,a5,t1
    8000225e:	e6e43823          	sd	a4,-400(s0)
    80002262:	eef43423          	sd	a5,-280(s0)
    80002266:	e099                	bnez	s1,8000226c <mm_cb+0x118>
    80002268:	3670106f          	j	80003dce <mm_cb+0x1c7a>
    8000226c:	001f1313          	sll	t1,t5,0x1
    80002270:	877a                	mv	a4,t5
    80002272:	01e307b3          	add	a5,t1,t5
    80002276:	00371813          	sll	a6,a4,0x3
    8000227a:	00679f13          	sll	t5,a5,0x6
    8000227e:	86ce                	mv	a3,s3
    80002280:	4701                	li	a4,0
    80002282:	43e1                	li	t2,24
    80002284:	24000913          	li	s2,576
    80002288:	080c8263          	beqz	s9,8000230c <mm_cb+0x1b8>
    8000228c:	027757b3          	divu	a5,a4,t2
    80002290:	8b36                	mv	s6,a3
    80002292:	4f81                	li	t6,0
    80002294:	031787b3          	mul	a5,a5,a7
    80002298:	0c0b0b13          	add	s6,s6,192
    8000229c:	8eda                	mv	t4,s6
    8000229e:	4d01                	li	s10,0
    800022a0:	027fd633          	divu	a2,t6,t2
    800022a4:	963e                	add	a2,a2,a5
    800022a6:	00361c13          	sll	s8,a2,0x3
    800022aa:	9c32                	add	s8,s8,a2
    800022ac:	e7843603          	ld	a2,-392(s0)
    800022b0:	0c26                	sll	s8,s8,0x9
    800022b2:	9c32                	add	s8,s8,a2
    800022b4:	f40e8613          	add	a2,t4,-192
    800022b8:	8e62                	mv	t3,s8
    800022ba:	00063087          	fld	ft1,0(a2)
    800022be:	00863007          	fld	ft0,8(a2)
    800022c2:	2a08                	fld	fa0,16(a2)
    800022c4:	2e0c                	fld	fa1,24(a2)
    800022c6:	3210                	fld	fa2,32(a2)
    800022c8:	3614                	fld	fa3,40(a2)
    800022ca:	3a18                	fld	fa4,48(a2)
    800022cc:	3e1c                	fld	fa5,56(a2)
    800022ce:	001e3027          	fsd	ft1,0(t3)
    800022d2:	000e3427          	fsd	ft0,8(t3)
    800022d6:	00ae3827          	fsd	fa0,16(t3)
    800022da:	00be3c27          	fsd	fa1,24(t3)
    800022de:	02ce3027          	fsd	fa2,32(t3)
    800022e2:	02de3427          	fsd	fa3,40(t3)
    800022e6:	02ee3827          	fsd	fa4,48(t3)
    800022ea:	02fe3c27          	fsd	fa5,56(t3)
    800022ee:	04060613          	add	a2,a2,64
    800022f2:	040e0e13          	add	t3,t3,64
    800022f6:	fcce92e3          	bne	t4,a2,800022ba <mm_cb+0x166>
    800022fa:	0d61                	add	s10,s10,24
    800022fc:	0c0c0c13          	add	s8,s8,192
    80002300:	9ec2                	add	t4,t4,a6
    80002302:	fb2d19e3          	bne	s10,s2,800022b4 <mm_cb+0x160>
    80002306:	0fe1                	add	t6,t6,24
    80002308:	f99fe8e3          	bltu	t6,s9,80002298 <mm_cb+0x144>
    8000230c:	0761                	add	a4,a4,24
    8000230e:	96fa                	add	a3,a3,t5
    80002310:	f6976ce3          	bltu	a4,s1,80002288 <mm_cb+0x134>
    80002314:	f1843783          	ld	a5,-232(s0)
    80002318:	e399                	bnez	a5,8000231e <mm_cb+0x1ca>
    8000231a:	34f0106f          	j	80003e68 <mm_cb+0x1d14>
    8000231e:	00151913          	sll	s2,a0,0x1
    80002322:	00a907b3          	add	a5,s2,a0
    80002326:	6f85                	lui	t6,0x1
    80002328:	00679f13          	sll	t5,a5,0x6
    8000232c:	00351793          	sll	a5,a0,0x3
    80002330:	86d6                	mv	a3,s5
    80002332:	f0f43423          	sd	a5,-248(s0)
    80002336:	4701                	li	a4,0
    80002338:	43e1                	li	t2,24
    8000233a:	4865                	li	a6,25
    8000233c:	2c0f8f93          	add	t6,t6,704 # 12c0 <buflen.1+0x1240>
    80002340:	25800c93          	li	s9,600
    80002344:	08b3f963          	bgeu	t2,a1,800023d6 <mm_cb+0x282>
    80002348:	027757b3          	divu	a5,a4,t2
    8000234c:	8b36                	mv	s6,a3
    8000234e:	4e81                	li	t4,0
    80002350:	025787b3          	mul	a5,a5,t0
    80002354:	e7043603          	ld	a2,-400(s0)
    80002358:	0c0b0e13          	add	t3,s6,192
    8000235c:	4d01                	li	s10,0
    8000235e:	030edc33          	divu	s8,t4,a6
    80002362:	9c3e                	add	s8,s8,a5
    80002364:	03fc0c33          	mul	s8,s8,t6
    80002368:	9c32                	add	s8,s8,a2
    8000236a:	f40e0613          	add	a2,t3,-192
    8000236e:	8362                	mv	t1,s8
    80002370:	00063087          	fld	ft1,0(a2)
    80002374:	00863007          	fld	ft0,8(a2)
    80002378:	2a08                	fld	fa0,16(a2)
    8000237a:	2e0c                	fld	fa1,24(a2)
    8000237c:	3210                	fld	fa2,32(a2)
    8000237e:	3614                	fld	fa3,40(a2)
    80002380:	3a18                	fld	fa4,48(a2)
    80002382:	3e1c                	fld	fa5,56(a2)
    80002384:	00133027          	fsd	ft1,0(t1) # ffffffffffffe000 <__global_pointer$+0xffffffff7fff87b8>
    80002388:	00033427          	fsd	ft0,8(t1)
    8000238c:	00a33827          	fsd	fa0,16(t1)
    80002390:	00b33c27          	fsd	fa1,24(t1)
    80002394:	02c33027          	fsd	fa2,32(t1)
    80002398:	02d33427          	fsd	fa3,40(t1)
    8000239c:	02e33827          	fsd	fa4,48(t1)
    800023a0:	02f33c27          	fsd	fa5,56(t1)
    800023a4:	04060613          	add	a2,a2,64
    800023a8:	04030313          	add	t1,t1,64
    800023ac:	fcce12e3          	bne	t3,a2,80002370 <mm_cb+0x21c>
    800023b0:	000e3787          	fld	fa5,0(t3)
    800023b4:	f0843603          	ld	a2,-248(s0)
    800023b8:	0d65                	add	s10,s10,25
    800023ba:	0cfc3027          	fsd	fa5,192(s8)
    800023be:	0c8c0c13          	add	s8,s8,200
    800023c2:	9e32                	add	t3,t3,a2
    800023c4:	fb9d13e3          	bne	s10,s9,8000236a <mm_cb+0x216>
    800023c8:	f0043603          	ld	a2,-256(s0)
    800023cc:	0ee5                	add	t4,t4,25
    800023ce:	0c8b0b13          	add	s6,s6,200
    800023d2:	f8cee1e3          	bltu	t4,a2,80002354 <mm_cb+0x200>
    800023d6:	f1843783          	ld	a5,-232(s0)
    800023da:	0761                	add	a4,a4,24
    800023dc:	96fa                	add	a3,a3,t5
    800023de:	f6f763e3          	bltu	a4,a5,80002344 <mm_cb+0x1f0>
    800023e2:	e099                	bnez	s1,800023e8 <mm_cb+0x294>
    800023e4:	1f50106f          	j	80003dd8 <mm_cb+0x1c84>
    800023e8:	f2843783          	ld	a5,-216(s0)
    800023ec:	00179313          	sll	t1,a5,0x1
    800023f0:	00379813          	sll	a6,a5,0x3
    800023f4:	601c                	ld	a5,0(s0)
    800023f6:	6018                	ld	a4,0(s0)
    800023f8:	6f05                	lui	t5,0x1
    800023fa:	0786                	sll	a5,a5,0x1
    800023fc:	eaf43023          	sd	a5,-352(s0)
    80002400:	97ba                	add	a5,a5,a4
    80002402:	079a                	sll	a5,a5,0x6
    80002404:	eef43023          	sd	a5,-288(s0)
    80002408:	00371793          	sll	a5,a4,0x3
    8000240c:	86de                	mv	a3,s7
    8000240e:	f0f43823          	sd	a5,-240(s0)
    80002412:	4701                	li	a4,0
    80002414:	4fe1                	li	t6,24
    80002416:	43e5                	li	t2,25
    80002418:	2c0f0f13          	add	t5,t5,704 # 12c0 <buflen.1+0x1240>
    8000241c:	25800d13          	li	s10,600
    80002420:	08bff963          	bgeu	t6,a1,800024b2 <mm_cb+0x35e>
    80002424:	03f757b3          	divu	a5,a4,t6
    80002428:	8c36                	mv	s8,a3
    8000242a:	4b01                	li	s6,0
    8000242c:	025787b3          	mul	a5,a5,t0
    80002430:	ee843603          	ld	a2,-280(s0)
    80002434:	0c0c0e93          	add	t4,s8,192
    80002438:	4d81                	li	s11,0
    8000243a:	027b5cb3          	divu	s9,s6,t2
    8000243e:	9cbe                	add	s9,s9,a5
    80002440:	03ec8cb3          	mul	s9,s9,t5
    80002444:	9cb2                	add	s9,s9,a2
    80002446:	f40e8613          	add	a2,t4,-192
    8000244a:	8e66                	mv	t3,s9
    8000244c:	00063087          	fld	ft1,0(a2)
    80002450:	00863007          	fld	ft0,8(a2)
    80002454:	2a08                	fld	fa0,16(a2)
    80002456:	2e0c                	fld	fa1,24(a2)
    80002458:	3210                	fld	fa2,32(a2)
    8000245a:	3614                	fld	fa3,40(a2)
    8000245c:	3a18                	fld	fa4,48(a2)
    8000245e:	3e1c                	fld	fa5,56(a2)
    80002460:	001e3027          	fsd	ft1,0(t3)
    80002464:	000e3427          	fsd	ft0,8(t3)
    80002468:	00ae3827          	fsd	fa0,16(t3)
    8000246c:	00be3c27          	fsd	fa1,24(t3)
    80002470:	02ce3027          	fsd	fa2,32(t3)
    80002474:	02de3427          	fsd	fa3,40(t3)
    80002478:	02ee3827          	fsd	fa4,48(t3)
    8000247c:	02fe3c27          	fsd	fa5,56(t3)
    80002480:	04060613          	add	a2,a2,64
    80002484:	040e0e13          	add	t3,t3,64
    80002488:	fcce92e3          	bne	t4,a2,8000244c <mm_cb+0x2f8>
    8000248c:	000eb787          	fld	fa5,0(t4)
    80002490:	f1043603          	ld	a2,-240(s0)
    80002494:	0de5                	add	s11,s11,25
    80002496:	0cfcb027          	fsd	fa5,192(s9)
    8000249a:	0c8c8c93          	add	s9,s9,200
    8000249e:	9eb2                	add	t4,t4,a2
    800024a0:	fbad93e3          	bne	s11,s10,80002446 <mm_cb+0x2f2>
    800024a4:	f0043603          	ld	a2,-256(s0)
    800024a8:	0b65                	add	s6,s6,25
    800024aa:	0c8c0c13          	add	s8,s8,200
    800024ae:	f8cb61e3          	bltu	s6,a2,80002430 <mm_cb+0x2dc>
    800024b2:	ee043783          	ld	a5,-288(s0)
    800024b6:	0761                	add	a4,a4,24
    800024b8:	96be                	add	a3,a3,a5
    800024ba:	f69763e3          	bltu	a4,s1,80002420 <mm_cb+0x2cc>
    800024be:	f2043703          	ld	a4,-224(s0)
    800024c2:	47e1                	li	a5,24
    800024c4:	f2843683          	ld	a3,-216(s0)
    800024c8:	02f773b3          	remu	t2,a4,a5
    800024cc:	00a907b3          	add	a5,s2,a0
    800024d0:	00479c93          	sll	s9,a5,0x4
    800024d4:	079a                	sll	a5,a5,0x6
    800024d6:	dcf43023          	sd	a5,-576(s0)
    800024da:	014a87b3          	add	a5,s5,s4
    800024de:	def43023          	sd	a5,-544(s0)
    800024e2:	601c                	ld	a5,0(s0)
    800024e4:	00d30733          	add	a4,t1,a3
    800024e8:	6305                	lui	t1,0x1
    800024ea:	0796                	sll	a5,a5,0x5
    800024ec:	e8f43c23          	sd	a5,-360(s0)
    800024f0:	2c030793          	add	a5,t1,704 # 12c0 <buflen.1+0x1240>
    800024f4:	ecf43823          	sd	a5,-304(s0)
    800024f8:	47e5                	li	a5,25
    800024fa:	00371613          	sll	a2,a4,0x3
    800024fe:	4f95                	li	t6,5
    80002500:	dcc43823          	sd	a2,-560(s0)
    80002504:	e6c43023          	sd	a2,-416(s0)
    80002508:	00551613          	sll	a2,a0,0x5
    8000250c:	e4c43823          	sd	a2,-432(s0)
    80002510:	00469d93          	sll	s11,a3,0x4
    80002514:	0696                	sll	a3,a3,0x5
    80002516:	ecd43c23          	sd	a3,-296(s0)
    8000251a:	071a                	sll	a4,a4,0x6
    8000251c:	eae43823          	sd	a4,-336(s0)
    80002520:	6018                	ld	a4,0(s0)
    80002522:	f0843d03          	ld	s10,-248(s0)
    80002526:	6e85                	lui	t4,0x1
    80002528:	0712                	sll	a4,a4,0x4
    8000252a:	ece43023          	sd	a4,-320(s0)
    8000252e:	e3043703          	ld	a4,-464(s0)
    80002532:	e2943023          	sd	s1,-480(s0)
    80002536:	e5043023          	sd	a6,-448(s0)
    8000253a:	e5a43c23          	sd	s10,-424(s0)
    8000253e:	e5943423          	sd	s9,-440(s0)
    80002542:	974e                	add	a4,a4,s3
    80002544:	4f01                	li	t5,0
    80002546:	200e8e93          	add	t4,t4,512 # 1200 <buflen.1+0x1180>
    8000254a:	e8543423          	sd	t0,-376(s0)
    8000254e:	db143823          	sd	a7,-592(s0)
    80002552:	014b8e33          	add	t3,s7,s4
    80002556:	00451c13          	sll	s8,a0,0x4
    8000255a:	4b65                	li	s6,25
    8000255c:	8a3a                	mv	s4,a4
    8000255e:	84ea                	mv	s1,s10
    80002560:	02f5f333          	remu	t1,a1,a5
    80002564:	00339793          	sll	a5,t2,0x3
    80002568:	def43c23          	sd	a5,-520(s0)
    8000256c:	4799                	li	a5,6
    8000256e:	e0743c23          	sd	t2,-488(s0)
    80002572:	02f3d7b3          	divu	a5,t2,a5
    80002576:	e6643423          	sd	t1,-408(s0)
    8000257a:	03f35633          	divu	a2,t1,t6
    8000257e:	00179693          	sll	a3,a5,0x1
    80002582:	96be                	add	a3,a3,a5
    80002584:	0692                	sll	a3,a3,0x4
    80002586:	dcd43c23          	sd	a3,-552(s0)
    8000258a:	02f506b3          	mul	a3,a0,a5
    8000258e:	00261793          	sll	a5,a2,0x2
    80002592:	97b2                	add	a5,a5,a2
    80002594:	ecf43423          	sd	a5,-312(s0)
    80002598:	078e                	sll	a5,a5,0x3
    8000259a:	e2f43423          	sd	a5,-472(s0)
    8000259e:	f1843783          	ld	a5,-232(s0)
    800025a2:	00169613          	sll	a2,a3,0x1
    800025a6:	9636                	add	a2,a2,a3
    800025a8:	00461693          	sll	a3,a2,0x4
    800025ac:	dcd43423          	sd	a3,-568(s0)
    800025b0:	03f376b3          	remu	a3,t1,t6
    800025b4:	00551f93          	sll	t6,a0,0x5
    800025b8:	02a787b3          	mul	a5,a5,a0
    800025bc:	ded43823          	sd	a3,-528(s0)
    800025c0:	078e                	sll	a5,a5,0x3
    800025c2:	97d6                	add	a5,a5,s5
    800025c4:	e2f43c23          	sd	a5,-456(s0)
    800025c8:	e8b43023          	sd	a1,-384(s0)
    800025cc:	d9743c23          	sd	s7,-616(s0)
    800025d0:	d9243823          	sd	s2,-624(s0)
    800025d4:	db343423          	sd	s3,-600(s0)
    800025d8:	db543023          	sd	s5,-608(s0)
    800025dc:	f0a43423          	sd	a0,-248(s0)
    800025e0:	8bfa                	mv	s7,t5
    800025e2:	e1043823          	sd	a6,-496(s0)
    800025e6:	8966                	mv	s2,s9
    800025e8:	d9d43423          	sd	t4,-632(s0)
    800025ec:	e8043783          	ld	a5,-384(s0)
    800025f0:	4761                	li	a4,24
    800025f2:	00f76463          	bltu	a4,a5,800025fa <mm_cb+0x4a6>
    800025f6:	79e0106f          	j	80003d94 <mm_cb+0x1c40>
    800025fa:	02ebd733          	divu	a4,s7,a4
    800025fe:	6685                	lui	a3,0x1
    80002600:	38868693          	add	a3,a3,904 # 1388 <buflen.1+0x1308>
    80002604:	dad43c23          	sd	a3,-584(s0)
    80002608:	db043683          	ld	a3,-592(s0)
    8000260c:	eb043783          	ld	a5,-336(s0)
    80002610:	4301                	li	t1,0
    80002612:	d9743023          	sd	s7,-640(s0)
    80002616:	97d2                	add	a5,a5,s4
    80002618:	e8f43823          	sd	a5,-368(s0)
    8000261c:	dd843783          	ld	a5,-552(s0)
    80002620:	8c9a                	mv	s9,t1
    80002622:	8bfe                	mv	s7,t6
    80002624:	97d2                	add	a5,a5,s4
    80002626:	e0f43023          	sd	a5,-512(s0)
    8000262a:	df843783          	ld	a5,-520(s0)
    8000262e:	d7c43c23          	sd	t3,-648(s0)
    80002632:	97d2                	add	a5,a5,s4
    80002634:	e0f43423          	sd	a5,-504(s0)
    80002638:	e3843783          	ld	a5,-456(s0)
    8000263c:	8abe                	mv	s5,a5
    8000263e:	02d706b3          	mul	a3,a4,a3
    80002642:	ead43423          	sd	a3,-344(s0)
    80002646:	e8843683          	ld	a3,-376(s0)
    8000264a:	02d70733          	mul	a4,a4,a3
    8000264e:	eee43823          	sd	a4,-272(s0)
    80002652:	f1843783          	ld	a5,-232(s0)
    80002656:	46078863          	beqz	a5,80002ac6 <mm_cb+0x972>
    8000265a:	47e5                	li	a5,25
    8000265c:	02fcd0b3          	divu	ra,s9,a5
    80002660:	ef043783          	ld	a5,-272(s0)
    80002664:	ee843703          	ld	a4,-280(s0)
    80002668:	4d01                	li	s10,0
    8000266a:	d5243c23          	sd	s2,-680(s0)
    8000266e:	d7743823          	sd	s7,-656(s0)
    80002672:	896a                	mv	s2,s10
    80002674:	d7443423          	sd	s4,-664(s0)
    80002678:	8d26                	mv	s10,s1
    8000267a:	d7543023          	sd	s5,-672(s0)
    8000267e:	00f089b3          	add	s3,ra,a5
    80002682:	ed043783          	ld	a5,-304(s0)
    80002686:	8486                	mv	s1,ra
    80002688:	02f989b3          	mul	s3,s3,a5
    8000268c:	99ba                	add	s3,s3,a4
    8000268e:	97ce                	add	a5,a5,s3
    80002690:	eef43c23          	sd	a5,-264(s0)
    80002694:	0c898793          	add	a5,s3,200
    80002698:	def43423          	sd	a5,-536(s0)
    8000269c:	db843783          	ld	a5,-584(s0)
    800026a0:	99be                	add	s3,s3,a5
    800026a2:	47e1                	li	a5,24
    800026a4:	02f957b3          	divu	a5,s2,a5
    800026a8:	e8843703          	ld	a4,-376(s0)
    800026ac:	de843b83          	ld	s7,-536(s0)
    800026b0:	d4943423          	sd	s1,-696(s0)
    800026b4:	02e78e33          	mul	t3,a5,a4
    800026b8:	ea843703          	ld	a4,-344(s0)
    800026bc:	97ba                	add	a5,a5,a4
    800026be:	00379693          	sll	a3,a5,0x3
    800026c2:	96be                	add	a3,a3,a5
    800026c4:	e7843783          	ld	a5,-392(s0)
    800026c8:	06a6                	sll	a3,a3,0x9
    800026ca:	96be                	add	a3,a3,a5
    800026cc:	ed043783          	ld	a5,-304(s0)
    800026d0:	9e26                	add	t3,t3,s1
    800026d2:	0c068593          	add	a1,a3,192
    800026d6:	02fe0e33          	mul	t3,t3,a5
    800026da:	e7043783          	ld	a5,-400(s0)
    800026de:	d4d43823          	sd	a3,-688(s0)
    800026e2:	84de                	mv	s1,s7
    800026e4:	01c78a33          	add	s4,a5,t3
    800026e8:	0c8a0a93          	add	s5,s4,200
    800026ec:	87d6                	mv	a5,s5
    800026ee:	8aca                	mv	s5,s2
    800026f0:	893e                	mv	s2,a5
    800026f2:	f4058693          	add	a3,a1,-192
    800026f6:	f3848613          	add	a2,s1,-200
    800026fa:	8552                	mv	a0,s4
    800026fc:	2218                	fld	fa4,0(a2)
    800026fe:	00863287          	fld	ft5,8(a2)
    80002702:	01063207          	fld	ft4,16(a2)
    80002706:	01863187          	fld	ft3,24(a2)
    8000270a:	320c                	fld	fa1,32(a2)
    8000270c:	0c863b07          	fld	fs6,200(a2)
    80002710:	0d063f07          	fld	ft10,208(a2)
    80002714:	0d863e87          	fld	ft9,216(a2)
    80002718:	0e063e07          	fld	ft8,224(a2)
    8000271c:	3670                	fld	fa2,232(a2)
    8000271e:	19063887          	fld	fa7,400(a2)
    80002722:	19863807          	fld	fa6,408(a2)
    80002726:	1a063387          	fld	ft7,416(a2)
    8000272a:	1a863307          	fld	ft6,424(a2)
    8000272e:	1b063687          	fld	fa3,432(a2)
    80002732:	25863107          	fld	ft2,600(a2)
    80002736:	26063087          	fld	ft1,608(a2)
    8000273a:	26863007          	fld	ft0,616(a2)
    8000273e:	27063507          	fld	fa0,624(a2)
    80002742:	27863787          	fld	fa5,632(a2)
    80002746:	87aa                	mv	a5,a0
    80002748:	8bb6                	mv	s7,a3
    8000274a:	000bb907          	fld	fs2,0(s7)
    8000274e:	0c0bb487          	fld	fs1,192(s7)
    80002752:	180bb407          	fld	fs0,384(s7)
    80002756:	240bbf87          	fld	ft11,576(s7)
    8000275a:	0007bc07          	fld	fs8,0(a5)
    8000275e:	0087bb87          	fld	fs7,8(a5)
    80002762:	0107ba87          	fld	fs5,16(a5)
    80002766:	0187ba07          	fld	fs4,24(a5)
    8000276a:	0207b987          	fld	fs3,32(a5)
    8000276e:	13fc7143          	fmadd.d	ft2,fs8,ft11,ft2
    80002772:	0bfbf0c3          	fmadd.d	ft1,fs7,ft11,ft1
    80002776:	5b3975c3          	fmadd.d	fa1,fs2,fs3,fa1
    8000277a:	6299f643          	fmadd.d	fa2,fs3,fs1,fa2
    8000277e:	6a89f6c3          	fmadd.d	fa3,fs3,fs0,fa3
    80002782:	03faf043          	fmadd.d	ft0,fs5,ft11,ft0
    80002786:	53fa7543          	fmadd.d	fa0,fs4,ft11,fa0
    8000278a:	73897743          	fmadd.d	fa4,fs2,fs8,fa4
    8000278e:	2b7972c3          	fmadd.d	ft5,fs2,fs7,ft5
    80002792:	23597243          	fmadd.d	ft4,fs2,fs5,ft4
    80002796:	1b4971c3          	fmadd.d	ft3,fs2,fs4,ft3
    8000279a:	b29c7b43          	fmadd.d	fs6,fs8,fs1,fs6
    8000279e:	f29bff43          	fmadd.d	ft10,fs7,fs1,ft10
    800027a2:	ea9afec3          	fmadd.d	ft9,fs5,fs1,ft9
    800027a6:	e29a7e43          	fmadd.d	ft8,fs4,fs1,ft8
    800027aa:	8a8c78c3          	fmadd.d	fa7,fs8,fs0,fa7
    800027ae:	828bf843          	fmadd.d	fa6,fs7,fs0,fa6
    800027b2:	3a8af3c3          	fmadd.d	ft7,fs5,fs0,ft7
    800027b6:	328a7343          	fmadd.d	ft6,fs4,fs0,ft6
    800027ba:	7bf9f7c3          	fmadd.d	fa5,fs3,ft11,fa5
    800027be:	248bbb87          	fld	fs7,584(s7)
    800027c2:	008bb487          	fld	fs1,8(s7)
    800027c6:	0c8bb407          	fld	fs0,200(s7)
    800027ca:	188bbf87          	fld	ft11,392(s7)
    800027ce:	0e87bc07          	fld	fs8,232(a5)
    800027d2:	0c87ba87          	fld	fs5,200(a5)
    800027d6:	0d07ba07          	fld	fs4,208(a5)
    800027da:	0d87b987          	fld	fs3,216(a5)
    800027de:	0e07b907          	fld	fs2,224(a5)
    800027e2:	7354f743          	fmadd.d	fa4,fs1,fs5,fa4
    800027e6:	2334f243          	fmadd.d	ft4,fs1,fs3,ft4
    800027ea:	1b24f1c3          	fmadd.d	ft3,fs1,fs2,ft3
    800027ee:	2b44f2c3          	fmadd.d	ft5,fs1,fs4,ft5
    800027f2:	b28afb43          	fmadd.d	fs6,fs5,fs0,fs6
    800027f6:	5b84f4c3          	fmadd.d	fs1,fs1,fs8,fa1
    800027fa:	f28a7f43          	fmadd.d	ft10,fs4,fs0,ft10
    800027fe:	ea89fec3          	fmadd.d	ft9,fs3,fs0,ft9
    80002802:	e2897e43          	fmadd.d	ft8,fs2,fs0,ft8
    80002806:	8bfaf8c3          	fmadd.d	fa7,fs5,ft11,fa7
    8000280a:	628c7443          	fmadd.d	fs0,fs8,fs0,fa2
    8000280e:	137afac3          	fmadd.d	fs5,fs5,fs7,ft2
    80002812:	83fa7843          	fmadd.d	fa6,fs4,ft11,fa6
    80002816:	3bf9f3c3          	fmadd.d	ft7,fs3,ft11,ft7
    8000281a:	0b7a7a43          	fmadd.d	fs4,fs4,fs7,ft1
    8000281e:	0379f9c3          	fmadd.d	fs3,fs3,fs7,ft0
    80002822:	33f97343          	fmadd.d	ft6,fs2,ft11,ft6
    80002826:	7b7c77c3          	fmadd.d	fa5,fs8,fs7,fa5
    8000282a:	6bfc7fc3          	fmadd.d	ft11,fs8,ft11,fa3
    8000282e:	53797943          	fmadd.d	fs2,fs2,fs7,fa0
    80002832:	250bbc87          	fld	fs9,592(s7)
    80002836:	010bb007          	fld	ft0,16(s7)
    8000283a:	0d0bb507          	fld	fa0,208(s7)
    8000283e:	190bb587          	fld	fa1,400(s7)
    80002842:	1b07bd07          	fld	fs10,432(a5)
    80002846:	1907bc07          	fld	fs8,400(a5)
    8000284a:	1987bb87          	fld	fs7,408(a5)
    8000284e:	1a07b107          	fld	ft2,416(a5)
    80002852:	1a87b087          	fld	ft1,424(a5)
    80002856:	73807743          	fmadd.d	fa4,ft0,fs8,fa4
    8000285a:	22207643          	fmadd.d	fa2,ft0,ft2,ft4
    8000285e:	1a1076c3          	fmadd.d	fa3,ft0,ft1,ft3
    80002862:	2b7072c3          	fmadd.d	ft5,ft0,fs7,ft5
    80002866:	b2ac7b43          	fmadd.d	fs6,fs8,fa0,fs6
    8000286a:	4ba07043          	fmadd.d	ft0,ft0,fs10,fs1
    8000286e:	f2abff43          	fmadd.d	ft10,fs7,fa0,ft10
    80002872:	eaa17ec3          	fmadd.d	ft9,ft2,fa0,ft9
    80002876:	e2a0fe43          	fmadd.d	ft8,ft1,fa0,ft8
    8000287a:	8abc78c3          	fmadd.d	fa7,fs8,fa1,fa7
    8000287e:	42ad7543          	fmadd.d	fa0,fs10,fa0,fs0
    80002882:	ab9c7c43          	fmadd.d	fs8,fs8,fs9,fs5
    80002886:	82bbf843          	fmadd.d	fa6,fs7,fa1,fa6
    8000288a:	3ab173c3          	fmadd.d	ft7,ft2,fa1,ft7
    8000288e:	a39bfbc3          	fmadd.d	fs7,fs7,fs9,fs4
    80002892:	9b917143          	fmadd.d	ft2,ft2,fs9,fs3
    80002896:	32b0f343          	fmadd.d	ft6,ft1,fa1,ft6
    8000289a:	7b9d77c3          	fmadd.d	fa5,fs10,fs9,fa5
    8000289e:	fabd75c3          	fmadd.d	fa1,fs10,fa1,ft11
    800028a2:	9390f0c3          	fmadd.d	ft1,ft1,fs9,fs2
    800028a6:	018bbf87          	fld	ft11,24(s7)
    800028aa:	2587ba87          	fld	fs5,600(a5)
    800028ae:	2607ba07          	fld	fs4,608(a5)
    800028b2:	2687b987          	fld	fs3,616(a5)
    800028b6:	2707b907          	fld	fs2,624(a5)
    800028ba:	2787b207          	fld	ft4,632(a5)
    800028be:	258bb187          	fld	ft3,600(s7)
    800028c2:	0d8bb487          	fld	fs1,216(s7)
    800028c6:	198bb407          	fld	fs0,408(s7)
    800028ca:	024ffcc3          	fmadd.d	fs9,ft11,ft4,ft0
    800028ce:	633ff643          	fmadd.d	fa2,ft11,fs3,fa2
    800028d2:	6b2ff6c3          	fmadd.d	fa3,ft11,fs2,fa3
    800028d6:	7a3277c3          	fmadd.d	fa5,ft4,ft3,fa5
    800028da:	735ff743          	fmadd.d	fa4,ft11,fs5,fa4
    800028de:	2b4ff2c3          	fmadd.d	ft5,ft11,fs4,ft5
    800028e2:	b29afb43          	fmadd.d	fs6,fs5,fs1,fs6
    800028e6:	f29a7f43          	fmadd.d	ft10,fs4,fs1,ft10
    800028ea:	ea99fec3          	fmadd.d	ft9,fs3,fs1,ft9
    800028ee:	e2997e43          	fmadd.d	ft8,fs2,fs1,ft8
    800028f2:	8a8af8c3          	fmadd.d	fa7,fs5,fs0,fa7
    800028f6:	529274c3          	fmadd.d	fs1,ft4,fs1,fa0
    800028fa:	828a7843          	fmadd.d	fa6,fs4,fs0,fa6
    800028fe:	3a89f3c3          	fmadd.d	ft7,fs3,fs0,ft7
    80002902:	32897343          	fmadd.d	ft6,fs2,fs0,ft6
    80002906:	c23afac3          	fmadd.d	fs5,fs5,ft3,fs8
    8000290a:	5a827443          	fmadd.d	fs0,ft4,fs0,fa1
    8000290e:	ba3a7a43          	fmadd.d	fs4,fs4,ft3,fs7
    80002912:	1239f9c3          	fmadd.d	fs3,fs3,ft3,ft2
    80002916:	0a397943          	fmadd.d	fs2,fs2,ft3,ft1
    8000291a:	0e0bb007          	fld	ft0,224(s7)
    8000291e:	1a0bb507          	fld	fa0,416(s7)
    80002922:	260bb587          	fld	fa1,608(s7)
    80002926:	020bbf87          	fld	ft11,32(s7)
    8000292a:	3307bb87          	fld	fs7,816(a5)
    8000292e:	3387b107          	fld	ft2,824(a5)
    80002932:	3407b087          	fld	ft1,832(a5)
    80002936:	3207bd07          	fld	fs10,800(a5)
    8000293a:	3287bc07          	fld	fs8,808(a5)
    8000293e:	637ff243          	fmadd.d	ft4,ft11,fs7,fa2
    80002942:	6a2ff1c3          	fmadd.d	ft3,ft11,ft2,fa3
    80002946:	ea0bfec3          	fmadd.d	ft9,fs7,ft0,ft9
    8000294a:	e2017e43          	fmadd.d	ft8,ft2,ft0,ft8
    8000294e:	4a00f4c3          	fmadd.d	fs1,ft1,ft0,fs1
    80002952:	3aabf3c3          	fmadd.d	ft7,fs7,fa0,ft7
    80002956:	32a17343          	fmadd.d	ft6,ft2,fa0,ft6
    8000295a:	9abbf9c3          	fmadd.d	fs3,fs7,fa1,fs3
    8000295e:	92b17943          	fmadd.d	fs2,ft2,fa1,fs2
    80002962:	7ab0fbc3          	fmadd.d	fs7,ft1,fa1,fa5
    80002966:	73aff743          	fmadd.d	fa4,ft11,fs10,fa4
    8000296a:	2b8ff2c3          	fmadd.d	ft5,ft11,fs8,ft5
    8000296e:	b20d7b43          	fmadd.d	fs6,fs10,ft0,fs6
    80002972:	ca1fffc3          	fmadd.d	ft11,ft11,ft1,fs9
    80002976:	f20c7f43          	fmadd.d	ft10,fs8,ft0,ft10
    8000297a:	42a0fcc3          	fmadd.d	fs9,ft1,fa0,fs0
    8000297e:	8aad78c3          	fmadd.d	fa7,fs10,fa0,fa7
    80002982:	82ac7843          	fmadd.d	fa6,fs8,fa0,fa6
    80002986:	aabd7ac3          	fmadd.d	fs5,fs10,fa1,fs5
    8000298a:	a2bc7a43          	fmadd.d	fs4,fs8,fa1,fs4
    8000298e:	0e8bb607          	fld	fa2,232(s7)
    80002992:	028bb587          	fld	fa1,40(s7)
    80002996:	1a8bb687          	fld	fa3,424(s7)
    8000299a:	268bb407          	fld	fs0,616(s7)
    8000299e:	3e87b107          	fld	ft2,1000(a5)
    800029a2:	3f07b087          	fld	ft1,1008(a5)
    800029a6:	3f87b007          	fld	ft0,1016(a5)
    800029aa:	4007b507          	fld	fa0,1024(a5)
    800029ae:	4087b787          	fld	fa5,1032(a5)
    800029b2:	030b8b93          	add	s7,s7,48
    800029b6:	7225f743          	fmadd.d	fa4,fa1,ft2,fa4
    800029ba:	2a15f2c3          	fmadd.d	ft5,fa1,ft1,ft5
    800029be:	2205f243          	fmadd.d	ft4,fa1,ft0,ft4
    800029c2:	1aa5f1c3          	fmadd.d	ft3,fa1,fa0,ft3
    800029c6:	b2c17b43          	fmadd.d	fs6,ft2,fa2,fs6
    800029ca:	f2c0ff43          	fmadd.d	ft10,ft1,fa2,ft10
    800029ce:	eac07ec3          	fmadd.d	ft9,ft0,fa2,ft9
    800029d2:	e2c57e43          	fmadd.d	ft8,fa0,fa2,ft8
    800029d6:	8ad178c3          	fmadd.d	fa7,ft2,fa3,fa7
    800029da:	82d0f843          	fmadd.d	fa6,ft1,fa3,fa6
    800029de:	3ad073c3          	fmadd.d	ft7,ft0,fa3,ft7
    800029e2:	32d57343          	fmadd.d	ft6,fa0,fa3,ft6
    800029e6:	faf5f5c3          	fmadd.d	fa1,fa1,fa5,ft11
    800029ea:	4ac7f643          	fmadd.d	fa2,fa5,fa2,fs1
    800029ee:	cad7f6c3          	fmadd.d	fa3,fa5,fa3,fs9
    800029f2:	aa817143          	fmadd.d	ft2,ft2,fs0,fs5
    800029f6:	a280f0c3          	fmadd.d	ft1,ft1,fs0,fs4
    800029fa:	9a807043          	fmadd.d	ft0,ft0,fs0,fs3
    800029fe:	92857543          	fmadd.d	fa0,fa0,fs0,fs2
    80002a02:	ba87f7c3          	fmadd.d	fa5,fa5,fs0,fs7
    80002a06:	4b078793          	add	a5,a5,1200
    80002a0a:	d4bb90e3          	bne	s7,a1,8000274a <mm_cb+0x5f6>
    80002a0e:	a218                	fsd	fa4,0(a2)
    80002a10:	00563427          	fsd	ft5,8(a2)
    80002a14:	00463827          	fsd	ft4,16(a2)
    80002a18:	00363c27          	fsd	ft3,24(a2)
    80002a1c:	b20c                	fsd	fa1,32(a2)
    80002a1e:	0d663427          	fsd	fs6,200(a2)
    80002a22:	0de63827          	fsd	ft10,208(a2)
    80002a26:	0dd63c27          	fsd	ft9,216(a2)
    80002a2a:	0fc63027          	fsd	ft8,224(a2)
    80002a2e:	b670                	fsd	fa2,232(a2)
    80002a30:	19163827          	fsd	fa7,400(a2)
    80002a34:	19063c27          	fsd	fa6,408(a2)
    80002a38:	1a763027          	fsd	ft7,416(a2)
    80002a3c:	1a663427          	fsd	ft6,424(a2)
    80002a40:	1ad63827          	fsd	fa3,432(a2)
    80002a44:	24263c27          	fsd	ft2,600(a2)
    80002a48:	26163027          	fsd	ft1,608(a2)
    80002a4c:	26063427          	fsd	ft0,616(a2)
    80002a50:	26a63827          	fsd	fa0,624(a2)
    80002a54:	26f63c27          	fsd	fa5,632(a2)
    80002a58:	02850513          	add	a0,a0,40
    80002a5c:	02860613          	add	a2,a2,40
    80002a60:	c8a91ee3          	bne	s2,a0,800026fc <mm_cb+0x5a8>
    80002a64:	88a6                	mv	a7,s1
    80002a66:	4581                	li	a1,0
    80002a68:	e05a                	sd	s6,0(sp)
    80002a6a:	4865                	li	a6,25
    80002a6c:	87ca                	mv	a5,s2
    80002a6e:	4761                	li	a4,24
    80002a70:	4661                	li	a2,24
    80002a72:	4511                	li	a0,4
    80002a74:	d8cff0ef          	jal	80002000 <mm_naive>
    80002a78:	32048493          	add	s1,s1,800
    80002a7c:	300b8593          	add	a1,s7,768
    80002a80:	c69999e3          	bne	s3,s1,800026f2 <mm_cb+0x59e>
    80002a84:	d5043683          	ld	a3,-688(s0)
    80002a88:	d4843483          	ld	s1,-696(s0)
    80002a8c:	e05a                	sd	s6,0(sp)
    80002a8e:	d8843603          	ld	a2,-632(s0)
    80002a92:	ef843883          	ld	a7,-264(s0)
    80002a96:	87d2                	mv	a5,s4
    80002a98:	96b2                	add	a3,a3,a2
    80002a9a:	4865                	li	a6,25
    80002a9c:	4761                	li	a4,24
    80002a9e:	4661                	li	a2,24
    80002aa0:	45e5                	li	a1,25
    80002aa2:	4501                	li	a0,0
    80002aa4:	d5cff0ef          	jal	80002000 <mm_naive>
    80002aa8:	f1843783          	ld	a5,-232(s0)
    80002aac:	018a8913          	add	s2,s5,24
    80002ab0:	bef969e3          	bltu	s2,a5,800026a2 <mm_cb+0x54e>
    80002ab4:	d7043b83          	ld	s7,-656(s0)
    80002ab8:	d6843a03          	ld	s4,-664(s0)
    80002abc:	d6043a83          	ld	s5,-672(s0)
    80002ac0:	d5843903          	ld	s2,-680(s0)
    80002ac4:	84ea                	mv	s1,s10
    80002ac6:	f2043783          	ld	a5,-224(s0)
    80002aca:	f1843703          	ld	a4,-232(s0)
    80002ace:	0c8a8d13          	add	s10,s5,200
    80002ad2:	5af76de3          	bltu	a4,a5,8000388c <mm_cb+0x1738>
    80002ad6:	f0043783          	ld	a5,-256(s0)
    80002ada:	0ce5                	add	s9,s9,25
    80002adc:	8aea                	mv	s5,s10
    80002ade:	b6fceae3          	bltu	s9,a5,80002652 <mm_cb+0x4fe>
    80002ae2:	e8043783          	ld	a5,-384(s0)
    80002ae6:	f0043703          	ld	a4,-256(s0)
    80002aea:	8fde                	mv	t6,s7
    80002aec:	d7843e03          	ld	t3,-648(s0)
    80002af0:	d8043b83          	ld	s7,-640(s0)
    80002af4:	00f76463          	bltu	a4,a5,80002afc <mm_cb+0x9a8>
    80002af8:	2b60106f          	j	80003dae <mm_cb+0x1c5a>
    80002afc:	f2043783          	ld	a5,-224(s0)
    80002b00:	e399                	bnez	a5,80002b06 <mm_cb+0x9b2>
    80002b02:	2ac0106f          	j	80003dae <mm_cb+0x1c5a>
    80002b06:	ee043783          	ld	a5,-288(s0)
    80002b0a:	de043383          	ld	t2,-544(s0)
    80002b0e:	4e81                	li	t4,0
    80002b10:	01c788b3          	add	a7,a5,t3
    80002b14:	e3043783          	ld	a5,-464(s0)
    80002b18:	8d76                	mv	s10,t4
    80002b1a:	db743c23          	sd	s7,-584(s0)
    80002b1e:	40fa0333          	sub	t1,s4,a5
    80002b22:	8afe                	mv	s5,t6
    80002b24:	d9c43023          	sd	t3,-640(s0)
    80002b28:	8c9a                	mv	s9,t1
    80002b2a:	e1143423          	sd	a7,-504(s0)
    80002b2e:	f2043783          	ld	a5,-224(s0)
    80002b32:	41a78633          	sub	a2,a5,s10
    80002b36:	47e1                	li	a5,24
    80002b38:	00c7f363          	bgeu	a5,a2,80002b3e <mm_cb+0x9ea>
    80002b3c:	4661                	li	a2,24
    80002b3e:	4799                	li	a5,6
    80002b40:	02f657b3          	divu	a5,a2,a5
    80002b44:	e2843703          	ld	a4,-472(s0)
    80002b48:	d8043303          	ld	t1,-640(s0)
    80002b4c:	8be6                	mv	s7,s9
    80002b4e:	971e                	add	a4,a4,t2
    80002b50:	dee43423          	sd	a4,-536(s0)
    80002b54:	f0843703          	ld	a4,-248(s0)
    80002b58:	00361a13          	sll	s4,a2,0x3
    80002b5c:	4299                	li	t0,6
    80002b5e:	9a66                	add	s4,s4,s9
    80002b60:	d7a43c23          	sd	s10,-648(s0)
    80002b64:	8e66                	mv	t3,s9
    80002b66:	86de                	mv	a3,s7
    80002b68:	e0c43023          	sd	a2,-512(s0)
    80002b6c:	8b9e                	mv	s7,t2
    80002b6e:	8d16                	mv	s10,t0
    80002b70:	02f70733          	mul	a4,a4,a5
    80002b74:	00179993          	sll	s3,a5,0x1
    80002b78:	99be                	add	s3,s3,a5
    80002b7a:	0992                	sll	s3,s3,0x4
    80002b7c:	99e6                	add	s3,s3,s9
    80002b7e:	8c9a                	mv	s9,t1
    80002b80:	00171793          	sll	a5,a4,0x1
    80002b84:	97ba                	add	a5,a5,a4
    80002b86:	0792                	sll	a5,a5,0x4
    80002b88:	eaf43423          	sd	a5,-344(s0)
    80002b8c:	e6843783          	ld	a5,-408(s0)
    80002b90:	4711                	li	a4,4
    80002b92:	44f77763          	bgeu	a4,a5,80002fe0 <mm_cb+0xe8c>
    80002b96:	f1043783          	ld	a5,-240(s0)
    80002b9a:	ec043383          	ld	t2,-320(s0)
    80002b9e:	8ede                	mv	t4,s7
    80002ba0:	019788b3          	add	a7,a5,s9
    80002ba4:	e1043783          	ld	a5,-496(s0)
    80002ba8:	8866                	mv	a6,s9
    80002baa:	4f01                	li	t5,0
    80002bac:	00d782b3          	add	t0,a5,a3
    80002bb0:	01378fb3          	add	t6,a5,s3
    80002bb4:	80f2                	mv	ra,t3
    80002bb6:	00780e33          	add	t3,a6,t2
    80002bba:	00788333          	add	t1,a7,t2
    80002bbe:	00083287          	fld	ft5,0(a6)
    80002bc2:	00883207          	fld	ft4,8(a6)
    80002bc6:	01083187          	fld	ft3,16(a6)
    80002bca:	01883107          	fld	ft2,24(a6)
    80002bce:	02083687          	fld	fa3,32(a6)
    80002bd2:	0008bf87          	fld	ft11,0(a7)
    80002bd6:	0088bf07          	fld	ft10,8(a7)
    80002bda:	0108be87          	fld	ft9,16(a7)
    80002bde:	0188be07          	fld	ft8,24(a7)
    80002be2:	0208b707          	fld	fa4,32(a7)
    80002be6:	000e3887          	fld	fa7,0(t3)
    80002bea:	008e3807          	fld	fa6,8(t3)
    80002bee:	010e3387          	fld	ft7,16(t3)
    80002bf2:	018e3307          	fld	ft6,24(t3)
    80002bf6:	020e3787          	fld	fa5,32(t3)
    80002bfa:	00033087          	fld	ft1,0(t1)
    80002bfe:	00833007          	fld	ft0,8(t1)
    80002c02:	01033507          	fld	fa0,16(t1)
    80002c06:	01833587          	fld	fa1,24(t1)
    80002c0a:	02033607          	fld	fa2,32(t1)
    80002c0e:	85f6                	mv	a1,t4
    80002c10:	2d36fc63          	bgeu	a3,s3,80002ee8 <mm_cb+0xd94>
    80002c14:	01d487b3          	add	a5,s1,t4
    80002c18:	8616                	mv	a2,t0
    80002c1a:	8736                	mv	a4,a3
    80002c1c:	ee743c23          	sd	t2,-264(s0)
    80002c20:	efe43823          	sd	t5,-272(s0)
    80002c24:	01b70f33          	add	t5,a4,s11
    80002c28:	01b60533          	add	a0,a2,s11
    80002c2c:	00073c07          	fld	fs8,0(a4)
    80002c30:	00063b87          	fld	fs7,0(a2)
    80002c34:	0005ba87          	fld	fs5,0(a1)
    80002c38:	0085ba07          	fld	fs4,8(a1)
    80002c3c:	0105b987          	fld	fs3,16(a1)
    80002c40:	0185b907          	fld	fs2,24(a1)
    80002c44:	3184                	fld	fs1,32(a1)
    80002c46:	000f3b07          	fld	fs6,0(t5)
    80002c4a:	2100                	fld	fs0,0(a0)
    80002c4c:	6a9c76c3          	fmadd.d	fa3,fs8,fs1,fa3
    80002c50:	7374f743          	fmadd.d	fa4,fs1,fs7,fa4
    80002c54:	7b64f7c3          	fmadd.d	fa5,fs1,fs6,fa5
    80002c58:	0a8af0c3          	fmadd.d	ft1,fs5,fs0,ft1
    80002c5c:	028a7043          	fmadd.d	ft0,fs4,fs0,ft0
    80002c60:	5289f543          	fmadd.d	fa0,fs3,fs0,fa0
    80002c64:	5a8975c3          	fmadd.d	fa1,fs2,fs0,fa1
    80002c68:	2b5c72c3          	fmadd.d	ft5,fs8,fs5,ft5
    80002c6c:	234c7243          	fmadd.d	ft4,fs8,fs4,ft4
    80002c70:	1b3c71c3          	fmadd.d	ft3,fs8,fs3,ft3
    80002c74:	132c7143          	fmadd.d	ft2,fs8,fs2,ft2
    80002c78:	fb7affc3          	fmadd.d	ft11,fs5,fs7,ft11
    80002c7c:	f37a7f43          	fmadd.d	ft10,fs4,fs7,ft10
    80002c80:	eb79fec3          	fmadd.d	ft9,fs3,fs7,ft9
    80002c84:	e3797e43          	fmadd.d	ft8,fs2,fs7,ft8
    80002c88:	8b6af8c3          	fmadd.d	fa7,fs5,fs6,fa7
    80002c8c:	836a7843          	fmadd.d	fa6,fs4,fs6,fa6
    80002c90:	3b69f3c3          	fmadd.d	ft7,fs3,fs6,ft7
    80002c94:	33697343          	fmadd.d	ft6,fs2,fs6,ft6
    80002c98:	6284f643          	fmadd.d	fa2,fs1,fs0,fa2
    80002c9c:	00873907          	fld	fs2,8(a4)
    80002ca0:	2604                	fld	fs1,8(a2)
    80002ca2:	0207bc07          	fld	fs8,32(a5)
    80002ca6:	00853b87          	fld	fs7,8(a0)
    80002caa:	0007bb07          	fld	fs6,0(a5)
    80002cae:	0087ba87          	fld	fs5,8(a5)
    80002cb2:	0107ba07          	fld	fs4,16(a5)
    80002cb6:	0187b987          	fld	fs3,24(a5)
    80002cba:	008f3407          	fld	fs0,8(t5)
    80002cbe:	637c7643          	fmadd.d	fa2,fs8,fs7,fa2
    80002cc2:	2b6972c3          	fmadd.d	ft5,fs2,fs6,ft5
    80002cc6:	23597243          	fmadd.d	ft4,fs2,fs5,ft4
    80002cca:	1b4971c3          	fmadd.d	ft3,fs2,fs4,ft3
    80002cce:	13397143          	fmadd.d	ft2,fs2,fs3,ft2
    80002cd2:	fa9b7fc3          	fmadd.d	ft11,fs6,fs1,ft11
    80002cd6:	6b897943          	fmadd.d	fs2,fs2,fs8,fa3
    80002cda:	f29aff43          	fmadd.d	ft10,fs5,fs1,ft10
    80002cde:	ea9a7ec3          	fmadd.d	ft9,fs4,fs1,ft9
    80002ce2:	e299fe43          	fmadd.d	ft8,fs3,fs1,ft8
    80002ce6:	8a8b78c3          	fmadd.d	fa7,fs6,fs0,fa7
    80002cea:	729c74c3          	fmadd.d	fs1,fs8,fs1,fa4
    80002cee:	0b7b7b43          	fmadd.d	fs6,fs6,fs7,ft1
    80002cf2:	828af843          	fmadd.d	fa6,fs5,fs0,fa6
    80002cf6:	3a8a73c3          	fmadd.d	ft7,fs4,fs0,ft7
    80002cfa:	037afac3          	fmadd.d	fs5,fs5,fs7,ft0
    80002cfe:	537a7a43          	fmadd.d	fs4,fs4,fs7,fa0
    80002d02:	3289f343          	fmadd.d	ft6,fs3,fs0,ft6
    80002d06:	7a8c7443          	fmadd.d	fs0,fs8,fs0,fa5
    80002d0a:	5b79f9c3          	fmadd.d	fs3,fs3,fs7,fa1
    80002d0e:	00bc03b3          	add	t2,s8,a1
    80002d12:	2b0c                	fld	fa1,16(a4)
    80002d14:	2a14                	fld	fa3,16(a2)
    80002d16:	010f3787          	fld	fa5,16(t5)
    80002d1a:	01053c87          	fld	fs9,16(a0)
    80002d1e:	0003bc07          	fld	fs8,0(t2)
    80002d22:	0083bb87          	fld	fs7,8(t2)
    80002d26:	0103b087          	fld	ft1,16(t2)
    80002d2a:	0183b007          	fld	ft0,24(t2)
    80002d2e:	0203b507          	fld	fa0,32(t2)
    80002d32:	2b85f2c3          	fmadd.d	ft5,fa1,fs8,ft5
    80002d36:	2375f243          	fmadd.d	ft4,fa1,fs7,ft4
    80002d3a:	1a15f1c3          	fmadd.d	ft3,fa1,ft1,ft3
    80002d3e:	1205f143          	fmadd.d	ft2,fa1,ft0,ft2
    80002d42:	fadc7fc3          	fmadd.d	ft11,fs8,fa3,ft11
    80002d46:	92a5f5c3          	fmadd.d	fa1,fa1,fa0,fs2
    80002d4a:	f2dbff43          	fmadd.d	ft10,fs7,fa3,ft10
    80002d4e:	ead0fec3          	fmadd.d	ft9,ft1,fa3,ft9
    80002d52:	e2d07e43          	fmadd.d	ft8,ft0,fa3,ft8
    80002d56:	8afc78c3          	fmadd.d	fa7,fs8,fa5,fa7
    80002d5a:	4ad576c3          	fmadd.d	fa3,fa0,fa3,fs1
    80002d5e:	b39c7c43          	fmadd.d	fs8,fs8,fs9,fs6
    80002d62:	82fbf843          	fmadd.d	fa6,fs7,fa5,fa6
    80002d66:	3af0f3c3          	fmadd.d	ft7,ft1,fa5,ft7
    80002d6a:	ab9bfbc3          	fmadd.d	fs7,fs7,fs9,fs5
    80002d6e:	a390f0c3          	fmadd.d	ft1,ft1,fs9,fs4
    80002d72:	32f07343          	fmadd.d	ft6,ft0,fa5,ft6
    80002d76:	42f577c3          	fmadd.d	fa5,fa0,fa5,fs0
    80002d7a:	9b907043          	fmadd.d	ft0,ft0,fs9,fs3
    80002d7e:	63957543          	fmadd.d	fa0,fa0,fs9,fa2
    80002d82:	97e2                	add	a5,a5,s8
    80002d84:	01873907          	fld	fs2,24(a4)
    80002d88:	0007bb07          	fld	fs6,0(a5)
    80002d8c:	0087ba87          	fld	fs5,8(a5)
    80002d90:	0107ba07          	fld	fs4,16(a5)
    80002d94:	0187b987          	fld	fs3,24(a5)
    80002d98:	0207bc87          	fld	fs9,32(a5)
    80002d9c:	2e04                	fld	fs1,24(a2)
    80002d9e:	018f3407          	fld	fs0,24(t5)
    80002da2:	2d10                	fld	fa2,24(a0)
    80002da4:	2b697743          	fmadd.d	fa4,fs2,fs6,ft5
    80002da8:	23597243          	fmadd.d	ft4,fs2,fs5,ft4
    80002dac:	1b4971c3          	fmadd.d	ft3,fs2,fs4,ft3
    80002db0:	13397143          	fmadd.d	ft2,fs2,fs3,ft2
    80002db4:	fa9b7fc3          	fmadd.d	ft11,fs6,fs1,ft11
    80002db8:	5b997943          	fmadd.d	fs2,fs2,fs9,fa1
    80002dbc:	f29aff43          	fmadd.d	ft10,fs5,fs1,ft10
    80002dc0:	ea9a7ec3          	fmadd.d	ft9,fs4,fs1,ft9
    80002dc4:	e299fe43          	fmadd.d	ft8,fs3,fs1,ft8
    80002dc8:	8a8b78c3          	fmadd.d	fa7,fs6,fs0,fa7
    80002dcc:	6a9cf4c3          	fmadd.d	fs1,fs9,fs1,fa3
    80002dd0:	828af843          	fmadd.d	fa6,fs5,fs0,fa6
    80002dd4:	3a8a73c3          	fmadd.d	ft7,fs4,fs0,ft7
    80002dd8:	3289f343          	fmadd.d	ft6,fs3,fs0,ft6
    80002ddc:	c2cb7b43          	fmadd.d	fs6,fs6,fa2,fs8
    80002de0:	7a8cf443          	fmadd.d	fs0,fs9,fs0,fa5
    80002de4:	bacafac3          	fmadd.d	fs5,fs5,fa2,fs7
    80002de8:	0aca7a43          	fmadd.d	fs4,fs4,fa2,ft1
    80002dec:	02c9f9c3          	fmadd.d	fs3,fs3,fa2,ft0
    80002df0:	52ccf643          	fmadd.d	fa2,fs9,fa2,fa0
    80002df4:	00ba83b3          	add	t2,s5,a1
    80002df8:	3208                	fld	fa0,32(a2)
    80002dfa:	331c                	fld	fa5,32(a4)
    80002dfc:	020f3587          	fld	fa1,32(t5)
    80002e00:	3114                	fld	fa3,32(a0)
    80002e02:	0103bb87          	fld	fs7,16(t2)
    80002e06:	0183b087          	fld	ft1,24(t2)
    80002e0a:	0203b007          	fld	ft0,32(t2)
    80002e0e:	0003bc87          	fld	fs9,0(t2)
    80002e12:	0083bc07          	fld	fs8,8(t2)
    80002e16:	42b07d43          	fmadd.d	fs10,ft0,fa1,fs0
    80002e1a:	7397f2c3          	fmadd.d	ft5,fa5,fs9,fa4
    80002e1e:	1b77f1c3          	fmadd.d	ft3,fa5,fs7,ft3
    80002e22:	1217f143          	fmadd.d	ft2,fa5,ft1,ft2
    80002e26:	eaabfec3          	fmadd.d	ft9,fs7,fa0,ft9
    80002e2a:	e2a0fe43          	fmadd.d	ft8,ft1,fa0,ft8
    80002e2e:	4aa074c3          	fmadd.d	fs1,ft0,fa0,fs1
    80002e32:	3abbf3c3          	fmadd.d	ft7,fs7,fa1,ft7
    80002e36:	32b0f343          	fmadd.d	ft6,ft1,fa1,ft6
    80002e3a:	a2dbfa43          	fmadd.d	fs4,fs7,fa3,fs4
    80002e3e:	9ad0f9c3          	fmadd.d	fs3,ft1,fa3,fs3
    80002e42:	62d07bc3          	fmadd.d	fs7,ft0,fa3,fa2
    80002e46:	2387f243          	fmadd.d	ft4,fa5,fs8,ft4
    80002e4a:	faacffc3          	fmadd.d	ft11,fs9,fa0,ft11
    80002e4e:	9207f7c3          	fmadd.d	fa5,fa5,ft0,fs2
    80002e52:	f2ac7f43          	fmadd.d	ft10,fs8,fa0,ft10
    80002e56:	8abcf8c3          	fmadd.d	fa7,fs9,fa1,fa7
    80002e5a:	82bc7843          	fmadd.d	fa6,fs8,fa1,fa6
    80002e5e:	b2dcfb43          	fmadd.d	fs6,fs9,fa3,fs6
    80002e62:	aadc7ac3          	fmadd.d	fs5,fs8,fa3,fs5
    80002e66:	97e2                	add	a5,a5,s8
    80002e68:	3714                	fld	fa3,40(a4)
    80002e6a:	3618                	fld	fa4,40(a2)
    80002e6c:	028f3907          	fld	fs2,40(t5)
    80002e70:	3500                	fld	fs0,40(a0)
    80002e72:	0007b087          	fld	ft1,0(a5)
    80002e76:	0087b007          	fld	ft0,8(a5)
    80002e7a:	2b88                	fld	fa0,16(a5)
    80002e7c:	2f8c                	fld	fa1,24(a5)
    80002e7e:	3390                	fld	fa2,32(a5)
    80002e80:	03070713          	add	a4,a4,48
    80002e84:	2a16f2c3          	fmadd.d	ft5,fa3,ft1,ft5
    80002e88:	2206f243          	fmadd.d	ft4,fa3,ft0,ft4
    80002e8c:	1aa6f1c3          	fmadd.d	ft3,fa3,fa0,ft3
    80002e90:	12b6f143          	fmadd.d	ft2,fa3,fa1,ft2
    80002e94:	fae0ffc3          	fmadd.d	ft11,ft1,fa4,ft11
    80002e98:	7ac6f6c3          	fmadd.d	fa3,fa3,fa2,fa5
    80002e9c:	f2e07f43          	fmadd.d	ft10,ft0,fa4,ft10
    80002ea0:	eae57ec3          	fmadd.d	ft9,fa0,fa4,ft9
    80002ea4:	e2e5fe43          	fmadd.d	ft8,fa1,fa4,ft8
    80002ea8:	8b20f8c3          	fmadd.d	fa7,ft1,fs2,fa7
    80002eac:	4ae67743          	fmadd.d	fa4,fa2,fa4,fs1
    80002eb0:	83207843          	fmadd.d	fa6,ft0,fs2,fa6
    80002eb4:	3b2573c3          	fmadd.d	ft7,fa0,fs2,ft7
    80002eb8:	3325f343          	fmadd.d	ft6,fa1,fs2,ft6
    80002ebc:	d32677c3          	fmadd.d	fa5,fa2,fs2,fs10
    80002ec0:	b280f0c3          	fmadd.d	ft1,ft1,fs0,fs6
    80002ec4:	aa807043          	fmadd.d	ft0,ft0,fs0,fs5
    80002ec8:	a2857543          	fmadd.d	fa0,fa0,fs0,fs4
    80002ecc:	9a85f5c3          	fmadd.d	fa1,fa1,fs0,fs3
    80002ed0:	ba867643          	fmadd.d	fa2,fa2,fs0,fs7
    80002ed4:	95ca                	add	a1,a1,s2
    80002ed6:	03060613          	add	a2,a2,48
    80002eda:	97e2                	add	a5,a5,s8
    80002edc:	d53764e3          	bltu	a4,s3,80002c24 <mm_cb+0xad0>
    80002ee0:	ef843383          	ld	t2,-264(s0)
    80002ee4:	ef043f03          	ld	t5,-272(s0)
    80002ee8:	ea843783          	ld	a5,-344(s0)
    80002eec:	97f6                	add	a5,a5,t4
    80002eee:	0949f563          	bgeu	s3,s4,80002f78 <mm_cb+0xe24>
    80002ef2:	867e                	mv	a2,t6
    80002ef4:	874e                	mv	a4,s3
    80002ef6:	01b70533          	add	a0,a4,s11
    80002efa:	01b605b3          	add	a1,a2,s11
    80002efe:	00073987          	fld	fs3,0(a4)
    80002f02:	00063907          	fld	fs2,0(a2)
    80002f06:	0007bc07          	fld	fs8,0(a5)
    80002f0a:	0087bb87          	fld	fs7,8(a5)
    80002f0e:	0107bb07          	fld	fs6,16(a5)
    80002f12:	0187ba87          	fld	fs5,24(a5)
    80002f16:	0207ba07          	fld	fs4,32(a5)
    80002f1a:	2104                	fld	fs1,0(a0)
    80002f1c:	2180                	fld	fs0,0(a1)
    80002f1e:	0721                	add	a4,a4,8
    80002f20:	2b89f2c3          	fmadd.d	ft5,fs3,fs8,ft5
    80002f24:	2379f243          	fmadd.d	ft4,fs3,fs7,ft4
    80002f28:	1b69f1c3          	fmadd.d	ft3,fs3,fs6,ft3
    80002f2c:	1359f143          	fmadd.d	ft2,fs3,fs5,ft2
    80002f30:	6b49f6c3          	fmadd.d	fa3,fs3,fs4,fa3
    80002f34:	fb2c7fc3          	fmadd.d	ft11,fs8,fs2,ft11
    80002f38:	f32bff43          	fmadd.d	ft10,fs7,fs2,ft10
    80002f3c:	eb2b7ec3          	fmadd.d	ft9,fs6,fs2,ft9
    80002f40:	e32afe43          	fmadd.d	ft8,fs5,fs2,ft8
    80002f44:	732a7743          	fmadd.d	fa4,fs4,fs2,fa4
    80002f48:	8a9c78c3          	fmadd.d	fa7,fs8,fs1,fa7
    80002f4c:	829bf843          	fmadd.d	fa6,fs7,fs1,fa6
    80002f50:	3a9b73c3          	fmadd.d	ft7,fs6,fs1,ft7
    80002f54:	329af343          	fmadd.d	ft6,fs5,fs1,ft6
    80002f58:	7a9a77c3          	fmadd.d	fa5,fs4,fs1,fa5
    80002f5c:	0a8c70c3          	fmadd.d	ft1,fs8,fs0,ft1
    80002f60:	028bf043          	fmadd.d	ft0,fs7,fs0,ft0
    80002f64:	528b7543          	fmadd.d	fa0,fs6,fs0,fa0
    80002f68:	5a8af5c3          	fmadd.d	fa1,fs5,fs0,fa1
    80002f6c:	628a7643          	fmadd.d	fa2,fs4,fs0,fa2
    80002f70:	97a6                	add	a5,a5,s1
    80002f72:	0621                	add	a2,a2,8
    80002f74:	f94761e3          	bltu	a4,s4,80002ef6 <mm_cb+0xda2>
    80002f78:	00583027          	fsd	ft5,0(a6)
    80002f7c:	00483427          	fsd	ft4,8(a6)
    80002f80:	00383827          	fsd	ft3,16(a6)
    80002f84:	00283c27          	fsd	ft2,24(a6)
    80002f88:	02d83027          	fsd	fa3,32(a6)
    80002f8c:	01f8b027          	fsd	ft11,0(a7)
    80002f90:	01e8b427          	fsd	ft10,8(a7)
    80002f94:	01d8b827          	fsd	ft9,16(a7)
    80002f98:	01c8bc27          	fsd	ft8,24(a7)
    80002f9c:	02e8b027          	fsd	fa4,32(a7)
    80002fa0:	ec843783          	ld	a5,-312(s0)
    80002fa4:	011e3027          	fsd	fa7,0(t3)
    80002fa8:	010e3427          	fsd	fa6,8(t3)
    80002fac:	007e3827          	fsd	ft7,16(t3)
    80002fb0:	006e3c27          	fsd	ft6,24(t3)
    80002fb4:	02fe3027          	fsd	fa5,32(t3)
    80002fb8:	00133027          	fsd	ft1,0(t1)
    80002fbc:	00033427          	fsd	ft0,8(t1)
    80002fc0:	00a33827          	fsd	fa0,16(t1)
    80002fc4:	00b33c27          	fsd	fa1,24(t1)
    80002fc8:	02c33027          	fsd	fa2,32(t1)
    80002fcc:	0f15                	add	t5,t5,5
    80002fce:	02880813          	add	a6,a6,40
    80002fd2:	02888893          	add	a7,a7,40
    80002fd6:	028e8e93          	add	t4,t4,40
    80002fda:	bcff6ee3          	bltu	t5,a5,80002bb6 <mm_cb+0xa62>
    80002fde:	8e06                	mv	t3,ra
    80002fe0:	601c                	ld	a5,0(s0)
    80002fe2:	efc43823          	sd	t3,-272(s0)
    80002fe6:	4511                	li	a0,4
    80002fe8:	e03e                	sd	a5,0(sp)
    80002fea:	e2843783          	ld	a5,-472(s0)
    80002fee:	f0843803          	ld	a6,-248(s0)
    80002ff2:	f2843703          	ld	a4,-216(s0)
    80002ff6:	019788b3          	add	a7,a5,s9
    80002ffa:	e0043603          	ld	a2,-512(s0)
    80002ffe:	de843783          	ld	a5,-536(s0)
    80003002:	df043583          	ld	a1,-528(s0)
    80003006:	eed43c23          	sd	a3,-264(s0)
    8000300a:	1d7d                	add	s10,s10,-1
    8000300c:	ff5fe0ef          	jal	80002000 <mm_naive>
    80003010:	ed843783          	ld	a5,-296(s0)
    80003014:	ef843683          	ld	a3,-264(s0)
    80003018:	ef043e03          	ld	t3,-272(s0)
    8000301c:	9a3e                	add	s4,s4,a5
    8000301e:	96be                	add	a3,a3,a5
    80003020:	99be                	add	s3,s3,a5
    80003022:	e9843783          	ld	a5,-360(s0)
    80003026:	9cbe                	add	s9,s9,a5
    80003028:	b60d12e3          	bnez	s10,80002b8c <mm_cb+0xa38>
    8000302c:	601c                	ld	a5,0(s0)
    8000302e:	d7843d03          	ld	s10,-648(s0)
    80003032:	e0043603          	ld	a2,-512(s0)
    80003036:	e03e                	sd	a5,0(sp)
    80003038:	eb043683          	ld	a3,-336(s0)
    8000303c:	e0843883          	ld	a7,-504(s0)
    80003040:	f0843803          	ld	a6,-248(s0)
    80003044:	f2843703          	ld	a4,-216(s0)
    80003048:	e6843583          	ld	a1,-408(s0)
    8000304c:	87de                	mv	a5,s7
    8000304e:	ef743c23          	sd	s7,-264(s0)
    80003052:	96f2                	add	a3,a3,t3
    80003054:	4501                	li	a0,0
    80003056:	8cf2                	mv	s9,t3
    80003058:	fa9fe0ef          	jal	80002000 <mm_naive>
    8000305c:	dc043783          	ld	a5,-576(s0)
    80003060:	ef843383          	ld	t2,-264(s0)
    80003064:	0d61                	add	s10,s10,24
    80003066:	0c0c8c93          	add	s9,s9,192
    8000306a:	93be                	add	t2,t2,a5
    8000306c:	f2043783          	ld	a5,-224(s0)
    80003070:	aafd6fe3          	bltu	s10,a5,80002b2e <mm_cb+0x9da>
    80003074:	db843b83          	ld	s7,-584(s0)
    80003078:	e0843883          	ld	a7,-504(s0)
    8000307c:	e2043783          	ld	a5,-480(s0)
    80003080:	0be1                	add	s7,s7,24
    80003082:	e9043a03          	ld	s4,-368(s0)
    80003086:	8fd6                	mv	t6,s5
    80003088:	8e46                	mv	t3,a7
    8000308a:	d6fbe163          	bltu	s7,a5,800025ec <mm_cb+0x498>
    8000308e:	e2043483          	ld	s1,-480(s0)
    80003092:	eb843783          	ld	a5,-328(s0)
    80003096:	e8843283          	ld	t0,-376(s0)
    8000309a:	e8043583          	ld	a1,-384(s0)
    8000309e:	da843983          	ld	s3,-600(s0)
    800030a2:	da043a83          	ld	s5,-608(s0)
    800030a6:	f0843503          	ld	a0,-248(s0)
    800030aa:	d9843b83          	ld	s7,-616(s0)
    800030ae:	d9043903          	ld	s2,-624(s0)
    800030b2:	6af4fe63          	bgeu	s1,a5,8000376e <mm_cb+0x161a>
    800030b6:	6a058c63          	beqz	a1,8000376e <mm_cb+0x161a>
    800030ba:	6014                	ld	a3,0(s0)
    800030bc:	ea043783          	ld	a5,-352(s0)
    800030c0:	00251713          	sll	a4,a0,0x2
    800030c4:	972a                	add	a4,a4,a0
    800030c6:	97b6                	add	a5,a5,a3
    800030c8:	00a906b3          	add	a3,s2,a0
    800030cc:	00379893          	sll	a7,a5,0x3
    800030d0:	00369e93          	sll	t4,a3,0x3
    800030d4:	00371b13          	sll	s6,a4,0x3
    800030d8:	eb843703          	ld	a4,-328(s0)
    800030dc:	47e1                	li	a5,24
    800030de:	992a                	add	s2,s2,a0
    800030e0:	02f777b3          	remu	a5,a4,a5
    800030e4:	00691713          	sll	a4,s2,0x6
    800030e8:	e6e43c23          	sd	a4,-392(s0)
    800030ec:	f2843703          	ld	a4,-216(s0)
    800030f0:	e4043683          	ld	a3,-448(s0)
    800030f4:	8cd6                	mv	s9,s5
    800030f6:	e6943423          	sd	s1,-408(s0)
    800030fa:	83e6                	mv	t2,s9
    800030fc:	4901                	li	s2,0
    800030fe:	e6543823          	sd	t0,-400(s0)
    80003102:	8cf6                	mv	s9,t4
    80003104:	ffc7f813          	and	a6,a5,-4
    80003108:	03070733          	mul	a4,a4,a6
    8000310c:	8b8d                	and	a5,a5,3
    8000310e:	e8f43823          	sd	a5,-368(s0)
    80003112:	601c                	ld	a5,0(s0)
    80003114:	ef043823          	sd	a6,-272(s0)
    80003118:	030787b3          	mul	a5,a5,a6
    8000311c:	070e                	sll	a4,a4,0x3
    8000311e:	e8e43423          	sd	a4,-376(s0)
    80003122:	f1043703          	ld	a4,-240(s0)
    80003126:	882a                	mv	a6,a0
    80003128:	02e48733          	mul	a4,s1,a4
    8000312c:	00379a93          	sll	s5,a5,0x3
    80003130:	02d487b3          	mul	a5,s1,a3
    80003134:	00eb8f33          	add	t5,s7,a4
    80003138:	e5843483          	ld	s1,-424(s0)
    8000313c:	e5743c23          	sd	s7,-424(s0)
    80003140:	e4843b83          	ld	s7,-440(s0)
    80003144:	00f98a33          	add	s4,s3,a5
    80003148:	8d52                	mv	s10,s4
    8000314a:	87d6                	mv	a5,s5
    8000314c:	e6043a03          	ld	s4,-416(s0)
    80003150:	8ab6                	mv	s5,a3
    80003152:	e7143023          	sd	a7,-416(s0)
    80003156:	89ae                	mv	s3,a1
    80003158:	f2043703          	ld	a4,-224(s0)
    8000315c:	5e070a63          	beqz	a4,80003750 <mm_cb+0x15fc>
    80003160:	412988b3          	sub	a7,s3,s2
    80003164:	4765                	li	a4,25
    80003166:	82c6                	mv	t0,a7
    80003168:	01177363          	bgeu	a4,a7,8000316e <mm_cb+0x101a>
    8000316c:	42e5                	li	t0,25
    8000316e:	4715                	li	a4,5
    80003170:	02e2d633          	divu	a2,t0,a4
    80003174:	8eea                	mv	t4,s10
    80003176:	e3a43023          	sd	s10,-480(s0)
    8000317a:	e5043d03          	ld	s10,-432(s0)
    8000317e:	01e786b3          	add	a3,a5,t5
    80003182:	4f81                	li	t6,0
    80003184:	e8d43023          	sd	a3,-384(s0)
    80003188:	f0743c23          	sd	t2,-232(s0)
    8000318c:	e5143423          	sd	a7,-440(s0)
    80003190:	e4543023          	sd	t0,-448(s0)
    80003194:	e3243c23          	sd	s2,-456(s0)
    80003198:	8e7e                	mv	t3,t6
    8000319a:	e2f43823          	sd	a5,-464(s0)
    8000319e:	efe43023          	sd	t5,-288(s0)
    800031a2:	e2743423          	sd	t2,-472(s0)
    800031a6:	e1343c23          	sd	s3,-488(s0)
    800031aa:	02e2f733          	remu	a4,t0,a4
    800031ae:	00261513          	sll	a0,a2,0x2
    800031b2:	eae43823          	sd	a4,-336(s0)
    800031b6:	00c50733          	add	a4,a0,a2
    800031ba:	eae43c23          	sd	a4,-328(s0)
    800031be:	070e                	sll	a4,a4,0x3
    800031c0:	eee43c23          	sd	a4,-264(s0)
    800031c4:	f2043783          	ld	a5,-224(s0)
    800031c8:	41c78633          	sub	a2,a5,t3
    800031cc:	47e1                	li	a5,24
    800031ce:	00c7f363          	bgeu	a5,a2,800031d4 <mm_cb+0x1080>
    800031d2:	4661                	li	a2,24
    800031d4:	ef043783          	ld	a5,-272(s0)
    800031d8:	50078663          	beqz	a5,800036e4 <mm_cb+0x1590>
    800031dc:	f1843703          	ld	a4,-232(s0)
    800031e0:	ef843783          	ld	a5,-264(s0)
    800031e4:	ee043303          	ld	t1,-288(s0)
    800031e8:	00361993          	sll	s3,a2,0x3
    800031ec:	97ba                	add	a5,a5,a4
    800031ee:	eaf43423          	sd	a5,-344(s0)
    800031f2:	4799                	li	a5,6
    800031f4:	02f657b3          	divu	a5,a2,a5
    800031f8:	99f6                	add	s3,s3,t4
    800031fa:	86f6                	mv	a3,t4
    800031fc:	f0043423          	sd	zero,-248(s0)
    80003200:	ecc43823          	sd	a2,-304(s0)
    80003204:	e1c43823          	sd	t3,-496(s0)
    80003208:	e1d43423          	sd	t4,-504(s0)
    8000320c:	ed043423          	sd	a6,-312(s0)
    80003210:	02f80733          	mul	a4,a6,a5
    80003214:	00179913          	sll	s2,a5,0x1
    80003218:	993e                	add	s2,s2,a5
    8000321a:	0912                	sll	s2,s2,0x4
    8000321c:	9976                	add	s2,s2,t4
    8000321e:	00171793          	sll	a5,a4,0x1
    80003222:	97ba                	add	a5,a5,a4
    80003224:	00479f93          	sll	t6,a5,0x4
    80003228:	e4843783          	ld	a5,-440(s0)
    8000322c:	4711                	li	a4,4
    8000322e:	44f77263          	bgeu	a4,a5,80003672 <mm_cb+0x151e>
    80003232:	f1043783          	ld	a5,-240(s0)
    80003236:	f1843383          	ld	t2,-232(s0)
    8000323a:	eb843803          	ld	a6,-328(s0)
    8000323e:	00f302b3          	add	t0,t1,a5
    80003242:	ec043783          	ld	a5,-320(s0)
    80003246:	8e1a                	mv	t3,t1
    80003248:	4081                	li	ra,0
    8000324a:	00f30f33          	add	t5,t1,a5
    8000324e:	e6043783          	ld	a5,-416(s0)
    80003252:	00f30eb3          	add	t4,t1,a5
    80003256:	000e3287          	fld	ft5,0(t3)
    8000325a:	008e3207          	fld	ft4,8(t3)
    8000325e:	010e3187          	fld	ft3,16(t3)
    80003262:	018e3107          	fld	ft2,24(t3)
    80003266:	020e3687          	fld	fa3,32(t3)
    8000326a:	0002bf87          	fld	ft11,0(t0)
    8000326e:	0082bf07          	fld	ft10,8(t0)
    80003272:	0102be87          	fld	ft9,16(t0)
    80003276:	0182be07          	fld	ft8,24(t0)
    8000327a:	0202b707          	fld	fa4,32(t0)
    8000327e:	000f3887          	fld	fa7,0(t5)
    80003282:	008f3807          	fld	fa6,8(t5)
    80003286:	010f3387          	fld	ft7,16(t5)
    8000328a:	018f3307          	fld	ft6,24(t5)
    8000328e:	020f3787          	fld	fa5,32(t5)
    80003292:	000eb087          	fld	ft1,0(t4)
    80003296:	008eb007          	fld	ft0,8(t4)
    8000329a:	010eb507          	fld	fa0,16(t4)
    8000329e:	018eb587          	fld	fa1,24(t4)
    800032a2:	020eb607          	fld	fa2,32(t4)
    800032a6:	879e                	mv	a5,t2
    800032a8:	2d26f963          	bgeu	a3,s2,8000357a <mm_cb+0x1426>
    800032ac:	01568533          	add	a0,a3,s5
    800032b0:	01b685b3          	add	a1,a3,s11
    800032b4:	01468633          	add	a2,a3,s4
    800032b8:	8736                	mv	a4,a3
    800032ba:	00073c07          	fld	fs8,0(a4)
    800032be:	00053b87          	fld	fs7,0(a0)
    800032c2:	0005bb07          	fld	fs6,0(a1)
    800032c6:	2200                	fld	fs0,0(a2)
    800032c8:	0007ba87          	fld	fs5,0(a5)
    800032cc:	0087ba07          	fld	fs4,8(a5)
    800032d0:	0107b987          	fld	fs3,16(a5)
    800032d4:	0187b907          	fld	fs2,24(a5)
    800032d8:	3384                	fld	fs1,32(a5)
    800032da:	0a8af0c3          	fmadd.d	ft1,fs5,fs0,ft1
    800032de:	028a7043          	fmadd.d	ft0,fs4,fs0,ft0
    800032e2:	6a9c76c3          	fmadd.d	fa3,fs8,fs1,fa3
    800032e6:	7374f743          	fmadd.d	fa4,fs1,fs7,fa4
    800032ea:	7b64f7c3          	fmadd.d	fa5,fs1,fs6,fa5
    800032ee:	5289f543          	fmadd.d	fa0,fs3,fs0,fa0
    800032f2:	5a8975c3          	fmadd.d	fa1,fs2,fs0,fa1
    800032f6:	6284f643          	fmadd.d	fa2,fs1,fs0,fa2
    800032fa:	2b5c72c3          	fmadd.d	ft5,fs8,fs5,ft5
    800032fe:	234c7243          	fmadd.d	ft4,fs8,fs4,ft4
    80003302:	1b3c71c3          	fmadd.d	ft3,fs8,fs3,ft3
    80003306:	132c7143          	fmadd.d	ft2,fs8,fs2,ft2
    8000330a:	fb7affc3          	fmadd.d	ft11,fs5,fs7,ft11
    8000330e:	f37a7f43          	fmadd.d	ft10,fs4,fs7,ft10
    80003312:	eb79fec3          	fmadd.d	ft9,fs3,fs7,ft9
    80003316:	e3797e43          	fmadd.d	ft8,fs2,fs7,ft8
    8000331a:	8b6af8c3          	fmadd.d	fa7,fs5,fs6,fa7
    8000331e:	836a7843          	fmadd.d	fa6,fs4,fs6,fa6
    80003322:	3b69f3c3          	fmadd.d	ft7,fs3,fs6,ft7
    80003326:	33697343          	fmadd.d	ft6,fs2,fs6,ft6
    8000332a:	009788b3          	add	a7,a5,s1
    8000332e:	00863c07          	fld	fs8,8(a2)
    80003332:	00873907          	fld	fs2,8(a4)
    80003336:	2504                	fld	fs1,8(a0)
    80003338:	2580                	fld	fs0,8(a1)
    8000333a:	0008bb87          	fld	fs7,0(a7)
    8000333e:	0088bb07          	fld	fs6,8(a7)
    80003342:	0108ba87          	fld	fs5,16(a7)
    80003346:	0188ba07          	fld	fs4,24(a7)
    8000334a:	0208b987          	fld	fs3,32(a7)
    8000334e:	2b7972c3          	fmadd.d	ft5,fs2,fs7,ft5
    80003352:	23697243          	fmadd.d	ft4,fs2,fs6,ft4
    80003356:	1b5971c3          	fmadd.d	ft3,fs2,fs5,ft3
    8000335a:	13497143          	fmadd.d	ft2,fs2,fs4,ft2
    8000335e:	fa9bffc3          	fmadd.d	ft11,fs7,fs1,ft11
    80003362:	6b397943          	fmadd.d	fs2,fs2,fs3,fa3
    80003366:	f29b7f43          	fmadd.d	ft10,fs6,fs1,ft10
    8000336a:	ea9afec3          	fmadd.d	ft9,fs5,fs1,ft9
    8000336e:	e29a7e43          	fmadd.d	ft8,fs4,fs1,ft8
    80003372:	8a8bf8c3          	fmadd.d	fa7,fs7,fs0,fa7
    80003376:	7299f4c3          	fmadd.d	fs1,fs3,fs1,fa4
    8000337a:	0b8bfbc3          	fmadd.d	fs7,fs7,fs8,ft1
    8000337e:	828b7843          	fmadd.d	fa6,fs6,fs0,fa6
    80003382:	3a8af3c3          	fmadd.d	ft7,fs5,fs0,ft7
    80003386:	038b7b43          	fmadd.d	fs6,fs6,fs8,ft0
    8000338a:	538afac3          	fmadd.d	fs5,fs5,fs8,fa0
    8000338e:	328a7343          	fmadd.d	ft6,fs4,fs0,ft6
    80003392:	7a89f443          	fmadd.d	fs0,fs3,fs0,fa5
    80003396:	5b8a7a43          	fmadd.d	fs4,fs4,fs8,fa1
    8000339a:	6389f9c3          	fmadd.d	fs3,fs3,fs8,fa2
    8000339e:	018788b3          	add	a7,a5,s8
    800033a2:	2b10                	fld	fa2,16(a4)
    800033a4:	2914                	fld	fa3,16(a0)
    800033a6:	299c                	fld	fa5,16(a1)
    800033a8:	01063c87          	fld	fs9,16(a2)
    800033ac:	0008bc07          	fld	fs8,0(a7)
    800033b0:	0088b087          	fld	ft1,8(a7)
    800033b4:	0108b007          	fld	ft0,16(a7)
    800033b8:	0188b507          	fld	fa0,24(a7)
    800033bc:	0208b587          	fld	fa1,32(a7)
    800033c0:	2b8672c3          	fmadd.d	ft5,fa2,fs8,ft5
    800033c4:	22167243          	fmadd.d	ft4,fa2,ft1,ft4
    800033c8:	1a0671c3          	fmadd.d	ft3,fa2,ft0,ft3
    800033cc:	12a67143          	fmadd.d	ft2,fa2,fa0,ft2
    800033d0:	fadc7fc3          	fmadd.d	ft11,fs8,fa3,ft11
    800033d4:	92b67643          	fmadd.d	fa2,fa2,fa1,fs2
    800033d8:	f2d0ff43          	fmadd.d	ft10,ft1,fa3,ft10
    800033dc:	ead07ec3          	fmadd.d	ft9,ft0,fa3,ft9
    800033e0:	e2d57e43          	fmadd.d	ft8,fa0,fa3,ft8
    800033e4:	8afc78c3          	fmadd.d	fa7,fs8,fa5,fa7
    800033e8:	4ad5f6c3          	fmadd.d	fa3,fa1,fa3,fs1
    800033ec:	bb9c7c43          	fmadd.d	fs8,fs8,fs9,fs7
    800033f0:	82f0f843          	fmadd.d	fa6,ft1,fa5,fa6
    800033f4:	3af073c3          	fmadd.d	ft7,ft0,fa5,ft7
    800033f8:	b390f0c3          	fmadd.d	ft1,ft1,fs9,fs6
    800033fc:	ab907043          	fmadd.d	ft0,ft0,fs9,fs5
    80003400:	32f57343          	fmadd.d	ft6,fa0,fa5,ft6
    80003404:	42f5f7c3          	fmadd.d	fa5,fa1,fa5,fs0
    80003408:	a3957543          	fmadd.d	fa0,fa0,fs9,fs4
    8000340c:	9b95f5c3          	fmadd.d	fa1,fa1,fs9,fs3
    80003410:	019788b3          	add	a7,a5,s9
    80003414:	01873987          	fld	fs3,24(a4)
    80003418:	0008bb87          	fld	fs7,0(a7)
    8000341c:	0088bb07          	fld	fs6,8(a7)
    80003420:	0108ba87          	fld	fs5,16(a7)
    80003424:	0188ba07          	fld	fs4,24(a7)
    80003428:	0208bc87          	fld	fs9,32(a7)
    8000342c:	01853907          	fld	fs2,24(a0)
    80003430:	2d84                	fld	fs1,24(a1)
    80003432:	2e00                	fld	fs0,24(a2)
    80003434:	2b79f743          	fmadd.d	fa4,fs3,fs7,ft5
    80003438:	2369f243          	fmadd.d	ft4,fs3,fs6,ft4
    8000343c:	1b59f1c3          	fmadd.d	ft3,fs3,fs5,ft3
    80003440:	1349f143          	fmadd.d	ft2,fs3,fs4,ft2
    80003444:	fb2bffc3          	fmadd.d	ft11,fs7,fs2,ft11
    80003448:	6399f9c3          	fmadd.d	fs3,fs3,fs9,fa2
    8000344c:	f32b7f43          	fmadd.d	ft10,fs6,fs2,ft10
    80003450:	eb2afec3          	fmadd.d	ft9,fs5,fs2,ft9
    80003454:	e32a7e43          	fmadd.d	ft8,fs4,fs2,ft8
    80003458:	8a9bf8c3          	fmadd.d	fa7,fs7,fs1,fa7
    8000345c:	6b2cf943          	fmadd.d	fs2,fs9,fs2,fa3
    80003460:	829b7843          	fmadd.d	fa6,fs6,fs1,fa6
    80003464:	3a9af3c3          	fmadd.d	ft7,fs5,fs1,ft7
    80003468:	329a7343          	fmadd.d	ft6,fs4,fs1,ft6
    8000346c:	c28bfbc3          	fmadd.d	fs7,fs7,fs0,fs8
    80003470:	7a9cf4c3          	fmadd.d	fs1,fs9,fs1,fa5
    80003474:	0a8b7b43          	fmadd.d	fs6,fs6,fs0,ft1
    80003478:	028afac3          	fmadd.d	fs5,fs5,fs0,ft0
    8000347c:	528a7a43          	fmadd.d	fs4,fs4,fs0,fa0
    80003480:	5a8cf443          	fmadd.d	fs0,fs9,fs0,fa1
    80003484:	01a788b3          	add	a7,a5,s10
    80003488:	310c                	fld	fa1,32(a0)
    8000348a:	3190                	fld	fa2,32(a1)
    8000348c:	3214                	fld	fa3,32(a2)
    8000348e:	331c                	fld	fa5,32(a4)
    80003490:	0088bc07          	fld	fs8,8(a7)
    80003494:	0108b087          	fld	ft1,16(a7)
    80003498:	0188b007          	fld	ft0,24(a7)
    8000349c:	0208b507          	fld	fa0,32(a7)
    800034a0:	0008bc87          	fld	fs9,0(a7)
    800034a4:	2387f243          	fmadd.d	ft4,fa5,fs8,ft4
    800034a8:	1a17f1c3          	fmadd.d	ft3,fa5,ft1,ft3
    800034ac:	7397f2c3          	fmadd.d	ft5,fa5,fs9,fa4
    800034b0:	1207f143          	fmadd.d	ft2,fa5,ft0,ft2
    800034b4:	f2bc7f43          	fmadd.d	ft10,fs8,fa1,ft10
    800034b8:	9aa7f7c3          	fmadd.d	fa5,fa5,fa0,fs3
    800034bc:	eab0fec3          	fmadd.d	ft9,ft1,fa1,ft9
    800034c0:	4ac579c3          	fmadd.d	fs3,fa0,fa2,fs1
    800034c4:	e2b07e43          	fmadd.d	ft8,ft0,fa1,ft8
    800034c8:	92b57943          	fmadd.d	fs2,fa0,fa1,fs2
    800034cc:	82cc7843          	fmadd.d	fa6,fs8,fa2,fa6
    800034d0:	3ac0f3c3          	fmadd.d	ft7,ft1,fa2,ft7
    800034d4:	32c07343          	fmadd.d	ft6,ft0,fa2,ft6
    800034d8:	b2dc7b43          	fmadd.d	fs6,fs8,fa3,fs6
    800034dc:	aad0fac3          	fmadd.d	fs5,ft1,fa3,fs5
    800034e0:	42d57c43          	fmadd.d	fs8,fa0,fa3,fs0
    800034e4:	a2d07a43          	fmadd.d	fs4,ft0,fa3,fs4
    800034e8:	fabcffc3          	fmadd.d	ft11,fs9,fa1,ft11
    800034ec:	8accf8c3          	fmadd.d	fa7,fs9,fa2,fa7
    800034f0:	badcfbc3          	fmadd.d	fs7,fs9,fa3,fs7
    800034f4:	016788b3          	add	a7,a5,s6
    800034f8:	3714                	fld	fa3,40(a4)
    800034fa:	3518                	fld	fa4,40(a0)
    800034fc:	3584                	fld	fs1,40(a1)
    800034fe:	3600                	fld	fs0,40(a2)
    80003500:	0008b087          	fld	ft1,0(a7)
    80003504:	0088b007          	fld	ft0,8(a7)
    80003508:	0108b507          	fld	fa0,16(a7)
    8000350c:	0188b587          	fld	fa1,24(a7)
    80003510:	0208b607          	fld	fa2,32(a7)
    80003514:	03070713          	add	a4,a4,48
    80003518:	2a16f2c3          	fmadd.d	ft5,fa3,ft1,ft5
    8000351c:	2206f243          	fmadd.d	ft4,fa3,ft0,ft4
    80003520:	1aa6f1c3          	fmadd.d	ft3,fa3,fa0,ft3
    80003524:	12b6f143          	fmadd.d	ft2,fa3,fa1,ft2
    80003528:	fae0ffc3          	fmadd.d	ft11,ft1,fa4,ft11
    8000352c:	7ac6f6c3          	fmadd.d	fa3,fa3,fa2,fa5
    80003530:	f2e07f43          	fmadd.d	ft10,ft0,fa4,ft10
    80003534:	eae57ec3          	fmadd.d	ft9,fa0,fa4,ft9
    80003538:	e2e5fe43          	fmadd.d	ft8,fa1,fa4,ft8
    8000353c:	8a90f8c3          	fmadd.d	fa7,ft1,fs1,fa7
    80003540:	92e67743          	fmadd.d	fa4,fa2,fa4,fs2
    80003544:	82907843          	fmadd.d	fa6,ft0,fs1,fa6
    80003548:	3a9573c3          	fmadd.d	ft7,fa0,fs1,ft7
    8000354c:	3295f343          	fmadd.d	ft6,fa1,fs1,ft6
    80003550:	9a9677c3          	fmadd.d	fa5,fa2,fs1,fs3
    80003554:	ba80f0c3          	fmadd.d	ft1,ft1,fs0,fs7
    80003558:	b2807043          	fmadd.d	ft0,ft0,fs0,fs6
    8000355c:	aa857543          	fmadd.d	fa0,fa0,fs0,fs5
    80003560:	a285f5c3          	fmadd.d	fa1,fa1,fs0,fs4
    80003564:	c2867643          	fmadd.d	fa2,fa2,fs0,fs8
    80003568:	97de                	add	a5,a5,s7
    8000356a:	03050513          	add	a0,a0,48
    8000356e:	03058593          	add	a1,a1,48
    80003572:	03060613          	add	a2,a2,48
    80003576:	d52762e3          	bltu	a4,s2,800032ba <mm_cb+0x1166>
    8000357a:	007f8733          	add	a4,t6,t2
    8000357e:	09397563          	bgeu	s2,s3,80003608 <mm_cb+0x14b4>
    80003582:	87ca                	mv	a5,s2
    80003584:	01578533          	add	a0,a5,s5
    80003588:	01b785b3          	add	a1,a5,s11
    8000358c:	01478633          	add	a2,a5,s4
    80003590:	0007b987          	fld	fs3,0(a5)
    80003594:	00073c07          	fld	fs8,0(a4)
    80003598:	00873b87          	fld	fs7,8(a4)
    8000359c:	01073b07          	fld	fs6,16(a4)
    800035a0:	01873a87          	fld	fs5,24(a4)
    800035a4:	02073a07          	fld	fs4,32(a4)
    800035a8:	00053907          	fld	fs2,0(a0)
    800035ac:	2184                	fld	fs1,0(a1)
    800035ae:	2200                	fld	fs0,0(a2)
    800035b0:	07a1                	add	a5,a5,8
    800035b2:	2b89f2c3          	fmadd.d	ft5,fs3,fs8,ft5
    800035b6:	2379f243          	fmadd.d	ft4,fs3,fs7,ft4
    800035ba:	1b69f1c3          	fmadd.d	ft3,fs3,fs6,ft3
    800035be:	1359f143          	fmadd.d	ft2,fs3,fs5,ft2
    800035c2:	6b49f6c3          	fmadd.d	fa3,fs3,fs4,fa3
    800035c6:	fb2c7fc3          	fmadd.d	ft11,fs8,fs2,ft11
    800035ca:	f32bff43          	fmadd.d	ft10,fs7,fs2,ft10
    800035ce:	eb2b7ec3          	fmadd.d	ft9,fs6,fs2,ft9
    800035d2:	e32afe43          	fmadd.d	ft8,fs5,fs2,ft8
    800035d6:	732a7743          	fmadd.d	fa4,fs4,fs2,fa4
    800035da:	8a9c78c3          	fmadd.d	fa7,fs8,fs1,fa7
    800035de:	829bf843          	fmadd.d	fa6,fs7,fs1,fa6
    800035e2:	3a9b73c3          	fmadd.d	ft7,fs6,fs1,ft7
    800035e6:	329af343          	fmadd.d	ft6,fs5,fs1,ft6
    800035ea:	7a9a77c3          	fmadd.d	fa5,fs4,fs1,fa5
    800035ee:	0a8c70c3          	fmadd.d	ft1,fs8,fs0,ft1
    800035f2:	028bf043          	fmadd.d	ft0,fs7,fs0,ft0
    800035f6:	528b7543          	fmadd.d	fa0,fs6,fs0,fa0
    800035fa:	5a8af5c3          	fmadd.d	fa1,fs5,fs0,fa1
    800035fe:	628a7643          	fmadd.d	fa2,fs4,fs0,fa2
    80003602:	9726                	add	a4,a4,s1
    80003604:	f937e0e3          	bltu	a5,s3,80003584 <mm_cb+0x1430>
    80003608:	005e3027          	fsd	ft5,0(t3)
    8000360c:	004e3427          	fsd	ft4,8(t3)
    80003610:	003e3827          	fsd	ft3,16(t3)
    80003614:	002e3c27          	fsd	ft2,24(t3)
    80003618:	02de3027          	fsd	fa3,32(t3)
    8000361c:	01f2b027          	fsd	ft11,0(t0)
    80003620:	01e2b427          	fsd	ft10,8(t0)
    80003624:	01d2b827          	fsd	ft9,16(t0)
    80003628:	01c2bc27          	fsd	ft8,24(t0)
    8000362c:	02e2b027          	fsd	fa4,32(t0)
    80003630:	011f3027          	fsd	fa7,0(t5)
    80003634:	010f3427          	fsd	fa6,8(t5)
    80003638:	007f3827          	fsd	ft7,16(t5)
    8000363c:	006f3c27          	fsd	ft6,24(t5)
    80003640:	02ff3027          	fsd	fa5,32(t5)
    80003644:	001eb027          	fsd	ft1,0(t4)
    80003648:	000eb427          	fsd	ft0,8(t4)
    8000364c:	00aeb827          	fsd	fa0,16(t4)
    80003650:	00bebc27          	fsd	fa1,24(t4)
    80003654:	02ceb027          	fsd	fa2,32(t4)
    80003658:	0095                	add	ra,ra,5
    8000365a:	028e0e13          	add	t3,t3,40
    8000365e:	02828293          	add	t0,t0,40
    80003662:	028f0f13          	add	t5,t5,40
    80003666:	028e8e93          	add	t4,t4,40
    8000366a:	02838393          	add	t2,t2,40
    8000366e:	bf00e4e3          	bltu	ra,a6,80003256 <mm_cb+0x1102>
    80003672:	601c                	ld	a5,0(s0)
    80003674:	dff43823          	sd	t6,-528(s0)
    80003678:	4511                	li	a0,4
    8000367a:	e03e                	sd	a5,0(sp)
    8000367c:	ef843783          	ld	a5,-264(s0)
    80003680:	f2843703          	ld	a4,-216(s0)
    80003684:	ec843803          	ld	a6,-312(s0)
    80003688:	006788b3          	add	a7,a5,t1
    8000368c:	ed043603          	ld	a2,-304(s0)
    80003690:	ea843783          	ld	a5,-344(s0)
    80003694:	eb043583          	ld	a1,-336(s0)
    80003698:	de643c23          	sd	t1,-520(s0)
    8000369c:	e0d43023          	sd	a3,-512(s0)
    800036a0:	961fe0ef          	jal	80002000 <mm_naive>
    800036a4:	f0843783          	ld	a5,-248(s0)
    800036a8:	e0043683          	ld	a3,-512(s0)
    800036ac:	df843303          	ld	t1,-520(s0)
    800036b0:	00478713          	add	a4,a5,4
    800036b4:	ed843783          	ld	a5,-296(s0)
    800036b8:	f0e43423          	sd	a4,-248(s0)
    800036bc:	df043f83          	ld	t6,-528(s0)
    800036c0:	96be                	add	a3,a3,a5
    800036c2:	993e                	add	s2,s2,a5
    800036c4:	99be                	add	s3,s3,a5
    800036c6:	e9843783          	ld	a5,-360(s0)
    800036ca:	933e                	add	t1,t1,a5
    800036cc:	ef043783          	ld	a5,-272(s0)
    800036d0:	b4f76ce3          	bltu	a4,a5,80003228 <mm_cb+0x10d4>
    800036d4:	ed043603          	ld	a2,-304(s0)
    800036d8:	e1043e03          	ld	t3,-496(s0)
    800036dc:	e0843e83          	ld	t4,-504(s0)
    800036e0:	ec843803          	ld	a6,-312(s0)
    800036e4:	601c                	ld	a5,0(s0)
    800036e6:	edc43423          	sd	t3,-312(s0)
    800036ea:	e03e                	sd	a5,0(sp)
    800036ec:	f1843903          	ld	s2,-232(s0)
    800036f0:	e8843683          	ld	a3,-376(s0)
    800036f4:	e8043883          	ld	a7,-384(s0)
    800036f8:	f2843703          	ld	a4,-216(s0)
    800036fc:	e4043583          	ld	a1,-448(s0)
    80003700:	e9043503          	ld	a0,-368(s0)
    80003704:	ed043823          	sd	a6,-304(s0)
    80003708:	87ca                	mv	a5,s2
    8000370a:	96f6                	add	a3,a3,t4
    8000370c:	f1d43423          	sd	t4,-248(s0)
    80003710:	8f1fe0ef          	jal	80002000 <mm_naive>
    80003714:	e7843783          	ld	a5,-392(s0)
    80003718:	ec843e03          	ld	t3,-312(s0)
    8000371c:	f0843e83          	ld	t4,-248(s0)
    80003720:	97ca                	add	a5,a5,s2
    80003722:	f0f43c23          	sd	a5,-232(s0)
    80003726:	f2043783          	ld	a5,-224(s0)
    8000372a:	0e61                	add	t3,t3,24
    8000372c:	ed043803          	ld	a6,-304(s0)
    80003730:	0c0e8e93          	add	t4,t4,192
    80003734:	a8fe68e3          	bltu	t3,a5,800031c4 <mm_cb+0x1070>
    80003738:	e3843903          	ld	s2,-456(s0)
    8000373c:	e3043783          	ld	a5,-464(s0)
    80003740:	ee043f03          	ld	t5,-288(s0)
    80003744:	e2843383          	ld	t2,-472(s0)
    80003748:	e2043d03          	ld	s10,-480(s0)
    8000374c:	e1843983          	ld	s3,-488(s0)
    80003750:	0965                	add	s2,s2,25
    80003752:	0c838393          	add	t2,t2,200
    80003756:	0c8f0f13          	add	t5,t5,200
    8000375a:	9f396fe3          	bltu	s2,s3,80003158 <mm_cb+0x1004>
    8000375e:	e6843483          	ld	s1,-408(s0)
    80003762:	e7043283          	ld	t0,-400(s0)
    80003766:	e5843b83          	ld	s7,-424(s0)
    8000376a:	85ce                	mv	a1,s3
    8000376c:	c8dd                	beqz	s1,80003822 <mm_cb+0x16ce>
    8000376e:	ea043783          	ld	a5,-352(s0)
    80003772:	6018                	ld	a4,0(s0)
    80003774:	6e05                	lui	t3,0x1
    80003776:	4881                	li	a7,0
    80003778:	00e78533          	add	a0,a5,a4
    8000377c:	051a                	sll	a0,a0,0x6
    8000377e:	4fe1                	li	t6,24
    80003780:	4965                	li	s2,25
    80003782:	2c0e0e13          	add	t3,t3,704 # 12c0 <buflen.1+0x1240>
    80003786:	25800393          	li	t2,600
    8000378a:	08bff863          	bgeu	t6,a1,8000381a <mm_cb+0x16c6>
    8000378e:	03f8d833          	divu	a6,a7,t6
    80003792:	8ede                	mv	t4,s7
    80003794:	4301                	li	t1,0
    80003796:	02580833          	mul	a6,a6,t0
    8000379a:	ee843783          	ld	a5,-280(s0)
    8000379e:	0c0e8693          	add	a3,t4,192
    800037a2:	4f01                	li	t5,0
    800037a4:	03235633          	divu	a2,t1,s2
    800037a8:	9642                	add	a2,a2,a6
    800037aa:	03c60633          	mul	a2,a2,t3
    800037ae:	963e                	add	a2,a2,a5
    800037b0:	f4068793          	add	a5,a3,-192
    800037b4:	8732                	mv	a4,a2
    800037b6:	00073087          	fld	ft1,0(a4)
    800037ba:	00873007          	fld	ft0,8(a4)
    800037be:	2b08                	fld	fa0,16(a4)
    800037c0:	2f0c                	fld	fa1,24(a4)
    800037c2:	3310                	fld	fa2,32(a4)
    800037c4:	3714                	fld	fa3,40(a4)
    800037c6:	3b18                	fld	fa4,48(a4)
    800037c8:	3f1c                	fld	fa5,56(a4)
    800037ca:	04078793          	add	a5,a5,64
    800037ce:	fc17b027          	fsd	ft1,-64(a5)
    800037d2:	fc07b427          	fsd	ft0,-56(a5)
    800037d6:	fca7b827          	fsd	fa0,-48(a5)
    800037da:	fcb7bc27          	fsd	fa1,-40(a5)
    800037de:	fec7b027          	fsd	fa2,-32(a5)
    800037e2:	fed7b427          	fsd	fa3,-24(a5)
    800037e6:	fee7b827          	fsd	fa4,-16(a5)
    800037ea:	fef7bc27          	fsd	fa5,-8(a5)
    800037ee:	04070713          	add	a4,a4,64
    800037f2:	fcd792e3          	bne	a5,a3,800037b6 <mm_cb+0x1662>
    800037f6:	227c                	fld	fa5,192(a2)
    800037f8:	f1043703          	ld	a4,-240(s0)
    800037fc:	0f65                	add	t5,t5,25
    800037fe:	a39c                	fsd	fa5,0(a5)
    80003800:	0c860613          	add	a2,a2,200
    80003804:	00e786b3          	add	a3,a5,a4
    80003808:	fa7f14e3          	bne	t5,t2,800037b0 <mm_cb+0x165c>
    8000380c:	f0043783          	ld	a5,-256(s0)
    80003810:	0365                	add	t1,t1,25
    80003812:	0c8e8e93          	add	t4,t4,200
    80003816:	f8f362e3          	bltu	t1,a5,8000379a <mm_cb+0x1646>
    8000381a:	08e1                	add	a7,a7,24
    8000381c:	9baa                	add	s7,s7,a0
    8000381e:	f698e6e3          	bltu	a7,s1,8000378a <mm_cb+0x1636>
    80003822:	d3040113          	add	sp,s0,-720
    80003826:	2c813083          	ld	ra,712(sp)
    8000382a:	2c013403          	ld	s0,704(sp)
    8000382e:	2b813483          	ld	s1,696(sp)
    80003832:	2b013903          	ld	s2,688(sp)
    80003836:	2a813983          	ld	s3,680(sp)
    8000383a:	2a013a03          	ld	s4,672(sp)
    8000383e:	29813a83          	ld	s5,664(sp)
    80003842:	29013b03          	ld	s6,656(sp)
    80003846:	28813b83          	ld	s7,648(sp)
    8000384a:	28013c03          	ld	s8,640(sp)
    8000384e:	27813c83          	ld	s9,632(sp)
    80003852:	27013d03          	ld	s10,624(sp)
    80003856:	26813d83          	ld	s11,616(sp)
    8000385a:	25813407          	fld	fs0,600(sp)
    8000385e:	25013487          	fld	fs1,592(sp)
    80003862:	24813907          	fld	fs2,584(sp)
    80003866:	24013987          	fld	fs3,576(sp)
    8000386a:	23813a07          	fld	fs4,568(sp)
    8000386e:	23013a87          	fld	fs5,560(sp)
    80003872:	22813b07          	fld	fs6,552(sp)
    80003876:	22013b87          	fld	fs7,544(sp)
    8000387a:	21813c07          	fld	fs8,536(sp)
    8000387e:	21013c87          	fld	fs9,528(sp)
    80003882:	20813d07          	fld	fs10,520(sp)
    80003886:	2d010113          	add	sp,sp,720
    8000388a:	8082                	ret
    8000388c:	47e5                	li	a5,25
    8000388e:	02fcd7b3          	divu	a5,s9,a5
    80003892:	e3843683          	ld	a3,-456(s0)
    80003896:	003c9713          	sll	a4,s9,0x3
    8000389a:	e0843983          	ld	s3,-504(s0)
    8000389e:	00d702b3          	add	t0,a4,a3
    800038a2:	ef043703          	ld	a4,-272(s0)
    800038a6:	e0043f83          	ld	t6,-512(s0)
    800038aa:	4e81                	li	t4,0
    800038ac:	8e56                	mv	t3,s5
    800038ae:	86d2                	mv	a3,s4
    800038b0:	8352                	mv	t1,s4
    800038b2:	8af6                	mv	s5,t4
    800038b4:	97ba                	add	a5,a5,a4
    800038b6:	ed043703          	ld	a4,-304(s0)
    800038ba:	02e787b3          	mul	a5,a5,a4
    800038be:	ee843703          	ld	a4,-280(s0)
    800038c2:	97ba                	add	a5,a5,a4
    800038c4:	0c878893          	add	a7,a5,200
    800038c8:	def43423          	sd	a5,-536(s0)
    800038cc:	87ea                	mv	a5,s10
    800038ce:	8d16                	mv	s10,t0
    800038d0:	82e6                	mv	t0,s9
    800038d2:	e1043703          	ld	a4,-496(s0)
    800038d6:	dc843803          	ld	a6,-568(s0)
    800038da:	f3888e93          	add	t4,a7,-200
    800038de:	00d70a33          	add	s4,a4,a3
    800038e2:	01f70cb3          	add	s9,a4,t6
    800038e6:	8f6a                	mv	t5,s10
    800038e8:	000eb287          	fld	ft5,0(t4)
    800038ec:	008eb207          	fld	ft4,8(t4)
    800038f0:	010eb187          	fld	ft3,16(t4)
    800038f4:	018eb107          	fld	ft2,24(t4)
    800038f8:	020eb687          	fld	fa3,32(t4)
    800038fc:	0c8ebf87          	fld	ft11,200(t4)
    80003900:	0d0ebf07          	fld	ft10,208(t4)
    80003904:	0d8ebe87          	fld	ft9,216(t4)
    80003908:	0e0ebe07          	fld	ft8,224(t4)
    8000390c:	0e8eb707          	fld	fa4,232(t4)
    80003910:	190eb887          	fld	fa7,400(t4)
    80003914:	198eb807          	fld	fa6,408(t4)
    80003918:	1a0eb387          	fld	ft7,416(t4)
    8000391c:	1a8eb307          	fld	ft6,424(t4)
    80003920:	1b0eb787          	fld	fa5,432(t4)
    80003924:	258eb087          	fld	ft1,600(t4)
    80003928:	260eb007          	fld	ft0,608(t4)
    8000392c:	268eb507          	fld	fa0,616(t4)
    80003930:	270eb587          	fld	fa1,624(t4)
    80003934:	278eb607          	fld	fa2,632(t4)
    80003938:	857a                	mv	a0,t5
    8000393a:	2df6fe63          	bgeu	a3,t6,80003c16 <mm_cb+0x1ac2>
    8000393e:	01e48733          	add	a4,s1,t5
    80003942:	85d2                	mv	a1,s4
    80003944:	8636                	mv	a2,a3
    80003946:	8396                	mv	t2,t0
    80003948:	ee643c23          	sd	t1,-264(s0)
    8000394c:	01b602b3          	add	t0,a2,s11
    80003950:	01b58333          	add	t1,a1,s11
    80003954:	00063c07          	fld	fs8,0(a2)
    80003958:	0005bb87          	fld	fs7,0(a1)
    8000395c:	00053a87          	fld	fs5,0(a0)
    80003960:	00853a07          	fld	fs4,8(a0)
    80003964:	01053987          	fld	fs3,16(a0)
    80003968:	01853907          	fld	fs2,24(a0)
    8000396c:	3104                	fld	fs1,32(a0)
    8000396e:	0002bb07          	fld	fs6,0(t0)
    80003972:	00033407          	fld	fs0,0(t1)
    80003976:	6a9c76c3          	fmadd.d	fa3,fs8,fs1,fa3
    8000397a:	7374f743          	fmadd.d	fa4,fs1,fs7,fa4
    8000397e:	7b64f7c3          	fmadd.d	fa5,fs1,fs6,fa5
    80003982:	0a8af0c3          	fmadd.d	ft1,fs5,fs0,ft1
    80003986:	028a7043          	fmadd.d	ft0,fs4,fs0,ft0
    8000398a:	5289f543          	fmadd.d	fa0,fs3,fs0,fa0
    8000398e:	5a8975c3          	fmadd.d	fa1,fs2,fs0,fa1
    80003992:	2b5c72c3          	fmadd.d	ft5,fs8,fs5,ft5
    80003996:	234c7243          	fmadd.d	ft4,fs8,fs4,ft4
    8000399a:	1b3c71c3          	fmadd.d	ft3,fs8,fs3,ft3
    8000399e:	132c7143          	fmadd.d	ft2,fs8,fs2,ft2
    800039a2:	fb7affc3          	fmadd.d	ft11,fs5,fs7,ft11
    800039a6:	f37a7f43          	fmadd.d	ft10,fs4,fs7,ft10
    800039aa:	eb79fec3          	fmadd.d	ft9,fs3,fs7,ft9
    800039ae:	e3797e43          	fmadd.d	ft8,fs2,fs7,ft8
    800039b2:	8b6af8c3          	fmadd.d	fa7,fs5,fs6,fa7
    800039b6:	836a7843          	fmadd.d	fa6,fs4,fs6,fa6
    800039ba:	3b69f3c3          	fmadd.d	ft7,fs3,fs6,ft7
    800039be:	33697343          	fmadd.d	ft6,fs2,fs6,ft6
    800039c2:	6284f643          	fmadd.d	fa2,fs1,fs0,fa2
    800039c6:	00863907          	fld	fs2,8(a2)
    800039ca:	2584                	fld	fs1,8(a1)
    800039cc:	02073c07          	fld	fs8,32(a4)
    800039d0:	00833b87          	fld	fs7,8(t1)
    800039d4:	00073b07          	fld	fs6,0(a4)
    800039d8:	00873a87          	fld	fs5,8(a4)
    800039dc:	01073a07          	fld	fs4,16(a4)
    800039e0:	01873987          	fld	fs3,24(a4)
    800039e4:	0082b407          	fld	fs0,8(t0)
    800039e8:	637c7643          	fmadd.d	fa2,fs8,fs7,fa2
    800039ec:	2b6972c3          	fmadd.d	ft5,fs2,fs6,ft5
    800039f0:	23597243          	fmadd.d	ft4,fs2,fs5,ft4
    800039f4:	1b4971c3          	fmadd.d	ft3,fs2,fs4,ft3
    800039f8:	13397143          	fmadd.d	ft2,fs2,fs3,ft2
    800039fc:	fa9b7fc3          	fmadd.d	ft11,fs6,fs1,ft11
    80003a00:	6b897943          	fmadd.d	fs2,fs2,fs8,fa3
    80003a04:	f29aff43          	fmadd.d	ft10,fs5,fs1,ft10
    80003a08:	ea9a7ec3          	fmadd.d	ft9,fs4,fs1,ft9
    80003a0c:	e299fe43          	fmadd.d	ft8,fs3,fs1,ft8
    80003a10:	8a8b78c3          	fmadd.d	fa7,fs6,fs0,fa7
    80003a14:	729c74c3          	fmadd.d	fs1,fs8,fs1,fa4
    80003a18:	0b7b7b43          	fmadd.d	fs6,fs6,fs7,ft1
    80003a1c:	828af843          	fmadd.d	fa6,fs5,fs0,fa6
    80003a20:	3a8a73c3          	fmadd.d	ft7,fs4,fs0,ft7
    80003a24:	037afac3          	fmadd.d	fs5,fs5,fs7,ft0
    80003a28:	537a7a43          	fmadd.d	fs4,fs4,fs7,fa0
    80003a2c:	3289f343          	fmadd.d	ft6,fs3,fs0,ft6
    80003a30:	7a8c7443          	fmadd.d	fs0,fs8,fs0,fa5
    80003a34:	5b79f9c3          	fmadd.d	fs3,fs3,fs7,fa1
    80003a38:	00ac00b3          	add	ra,s8,a0
    80003a3c:	2a0c                	fld	fa1,16(a2)
    80003a3e:	2994                	fld	fa3,16(a1)
    80003a40:	0102b787          	fld	fa5,16(t0)
    80003a44:	01033c87          	fld	fs9,16(t1)
    80003a48:	0000bc07          	fld	fs8,0(ra)
    80003a4c:	0080bb87          	fld	fs7,8(ra)
    80003a50:	0100b087          	fld	ft1,16(ra)
    80003a54:	0180b007          	fld	ft0,24(ra)
    80003a58:	0200b507          	fld	fa0,32(ra)
    80003a5c:	2b85f2c3          	fmadd.d	ft5,fa1,fs8,ft5
    80003a60:	2375f243          	fmadd.d	ft4,fa1,fs7,ft4
    80003a64:	1a15f1c3          	fmadd.d	ft3,fa1,ft1,ft3
    80003a68:	1205f143          	fmadd.d	ft2,fa1,ft0,ft2
    80003a6c:	fadc7fc3          	fmadd.d	ft11,fs8,fa3,ft11
    80003a70:	92a5f5c3          	fmadd.d	fa1,fa1,fa0,fs2
    80003a74:	f2dbff43          	fmadd.d	ft10,fs7,fa3,ft10
    80003a78:	ead0fec3          	fmadd.d	ft9,ft1,fa3,ft9
    80003a7c:	e2d07e43          	fmadd.d	ft8,ft0,fa3,ft8
    80003a80:	8afc78c3          	fmadd.d	fa7,fs8,fa5,fa7
    80003a84:	4ad576c3          	fmadd.d	fa3,fa0,fa3,fs1
    80003a88:	b39c7c43          	fmadd.d	fs8,fs8,fs9,fs6
    80003a8c:	82fbf843          	fmadd.d	fa6,fs7,fa5,fa6
    80003a90:	3af0f3c3          	fmadd.d	ft7,ft1,fa5,ft7
    80003a94:	ab9bfbc3          	fmadd.d	fs7,fs7,fs9,fs5
    80003a98:	a390f0c3          	fmadd.d	ft1,ft1,fs9,fs4
    80003a9c:	32f07343          	fmadd.d	ft6,ft0,fa5,ft6
    80003aa0:	42f577c3          	fmadd.d	fa5,fa0,fa5,fs0
    80003aa4:	9b907043          	fmadd.d	ft0,ft0,fs9,fs3
    80003aa8:	63957543          	fmadd.d	fa0,fa0,fs9,fa2
    80003aac:	9762                	add	a4,a4,s8
    80003aae:	01863907          	fld	fs2,24(a2)
    80003ab2:	00073b07          	fld	fs6,0(a4)
    80003ab6:	00873a87          	fld	fs5,8(a4)
    80003aba:	01073a07          	fld	fs4,16(a4)
    80003abe:	01873987          	fld	fs3,24(a4)
    80003ac2:	02073c87          	fld	fs9,32(a4)
    80003ac6:	2d84                	fld	fs1,24(a1)
    80003ac8:	0182b407          	fld	fs0,24(t0)
    80003acc:	01833607          	fld	fa2,24(t1)
    80003ad0:	2b697743          	fmadd.d	fa4,fs2,fs6,ft5
    80003ad4:	23597243          	fmadd.d	ft4,fs2,fs5,ft4
    80003ad8:	1b4971c3          	fmadd.d	ft3,fs2,fs4,ft3
    80003adc:	13397143          	fmadd.d	ft2,fs2,fs3,ft2
    80003ae0:	fa9b7fc3          	fmadd.d	ft11,fs6,fs1,ft11
    80003ae4:	5b997943          	fmadd.d	fs2,fs2,fs9,fa1
    80003ae8:	f29aff43          	fmadd.d	ft10,fs5,fs1,ft10
    80003aec:	ea9a7ec3          	fmadd.d	ft9,fs4,fs1,ft9
    80003af0:	e299fe43          	fmadd.d	ft8,fs3,fs1,ft8
    80003af4:	8a8b78c3          	fmadd.d	fa7,fs6,fs0,fa7
    80003af8:	6a9cf4c3          	fmadd.d	fs1,fs9,fs1,fa3
    80003afc:	828af843          	fmadd.d	fa6,fs5,fs0,fa6
    80003b00:	3a8a73c3          	fmadd.d	ft7,fs4,fs0,ft7
    80003b04:	3289f343          	fmadd.d	ft6,fs3,fs0,ft6
    80003b08:	c2cb7b43          	fmadd.d	fs6,fs6,fa2,fs8
    80003b0c:	7a8cf443          	fmadd.d	fs0,fs9,fs0,fa5
    80003b10:	bacafac3          	fmadd.d	fs5,fs5,fa2,fs7
    80003b14:	0aca7a43          	fmadd.d	fs4,fs4,fa2,ft1
    80003b18:	02c9f9c3          	fmadd.d	fs3,fs3,fa2,ft0
    80003b1c:	52ccf643          	fmadd.d	fa2,fs9,fa2,fa0
    80003b20:	00ab80b3          	add	ra,s7,a0
    80003b24:	3188                	fld	fa0,32(a1)
    80003b26:	321c                	fld	fa5,32(a2)
    80003b28:	0202b587          	fld	fa1,32(t0)
    80003b2c:	02033687          	fld	fa3,32(t1)
    80003b30:	0100bb87          	fld	fs7,16(ra)
    80003b34:	0180b087          	fld	ft1,24(ra)
    80003b38:	0200b007          	fld	ft0,32(ra)
    80003b3c:	0000bc87          	fld	fs9,0(ra)
    80003b40:	0080bc07          	fld	fs8,8(ra)
    80003b44:	42b07d43          	fmadd.d	fs10,ft0,fa1,fs0
    80003b48:	7397f2c3          	fmadd.d	ft5,fa5,fs9,fa4
    80003b4c:	1b77f1c3          	fmadd.d	ft3,fa5,fs7,ft3
    80003b50:	1217f143          	fmadd.d	ft2,fa5,ft1,ft2
    80003b54:	eaabfec3          	fmadd.d	ft9,fs7,fa0,ft9
    80003b58:	e2a0fe43          	fmadd.d	ft8,ft1,fa0,ft8
    80003b5c:	4aa074c3          	fmadd.d	fs1,ft0,fa0,fs1
    80003b60:	3abbf3c3          	fmadd.d	ft7,fs7,fa1,ft7
    80003b64:	32b0f343          	fmadd.d	ft6,ft1,fa1,ft6
    80003b68:	a2dbfa43          	fmadd.d	fs4,fs7,fa3,fs4
    80003b6c:	9ad0f9c3          	fmadd.d	fs3,ft1,fa3,fs3
    80003b70:	62d07bc3          	fmadd.d	fs7,ft0,fa3,fa2
    80003b74:	2387f243          	fmadd.d	ft4,fa5,fs8,ft4
    80003b78:	faacffc3          	fmadd.d	ft11,fs9,fa0,ft11
    80003b7c:	9207f7c3          	fmadd.d	fa5,fa5,ft0,fs2
    80003b80:	f2ac7f43          	fmadd.d	ft10,fs8,fa0,ft10
    80003b84:	8abcf8c3          	fmadd.d	fa7,fs9,fa1,fa7
    80003b88:	82bc7843          	fmadd.d	fa6,fs8,fa1,fa6
    80003b8c:	b2dcfb43          	fmadd.d	fs6,fs9,fa3,fs6
    80003b90:	aadc7ac3          	fmadd.d	fs5,fs8,fa3,fs5
    80003b94:	9762                	add	a4,a4,s8
    80003b96:	3614                	fld	fa3,40(a2)
    80003b98:	3598                	fld	fa4,40(a1)
    80003b9a:	0282b907          	fld	fs2,40(t0)
    80003b9e:	02833407          	fld	fs0,40(t1)
    80003ba2:	00073087          	fld	ft1,0(a4)
    80003ba6:	00873007          	fld	ft0,8(a4)
    80003baa:	2b08                	fld	fa0,16(a4)
    80003bac:	2f0c                	fld	fa1,24(a4)
    80003bae:	3310                	fld	fa2,32(a4)
    80003bb0:	03060613          	add	a2,a2,48
    80003bb4:	2a16f2c3          	fmadd.d	ft5,fa3,ft1,ft5
    80003bb8:	2206f243          	fmadd.d	ft4,fa3,ft0,ft4
    80003bbc:	1aa6f1c3          	fmadd.d	ft3,fa3,fa0,ft3
    80003bc0:	12b6f143          	fmadd.d	ft2,fa3,fa1,ft2
    80003bc4:	fae0ffc3          	fmadd.d	ft11,ft1,fa4,ft11
    80003bc8:	7ac6f6c3          	fmadd.d	fa3,fa3,fa2,fa5
    80003bcc:	f2e07f43          	fmadd.d	ft10,ft0,fa4,ft10
    80003bd0:	eae57ec3          	fmadd.d	ft9,fa0,fa4,ft9
    80003bd4:	e2e5fe43          	fmadd.d	ft8,fa1,fa4,ft8
    80003bd8:	8b20f8c3          	fmadd.d	fa7,ft1,fs2,fa7
    80003bdc:	4ae67743          	fmadd.d	fa4,fa2,fa4,fs1
    80003be0:	83207843          	fmadd.d	fa6,ft0,fs2,fa6
    80003be4:	3b2573c3          	fmadd.d	ft7,fa0,fs2,ft7
    80003be8:	3325f343          	fmadd.d	ft6,fa1,fs2,ft6
    80003bec:	d32677c3          	fmadd.d	fa5,fa2,fs2,fs10
    80003bf0:	b280f0c3          	fmadd.d	ft1,ft1,fs0,fs6
    80003bf4:	aa807043          	fmadd.d	ft0,ft0,fs0,fs5
    80003bf8:	a2857543          	fmadd.d	fa0,fa0,fs0,fs4
    80003bfc:	9a85f5c3          	fmadd.d	fa1,fa1,fs0,fs3
    80003c00:	ba867643          	fmadd.d	fa2,fa2,fs0,fs7
    80003c04:	954a                	add	a0,a0,s2
    80003c06:	03058593          	add	a1,a1,48
    80003c0a:	9762                	add	a4,a4,s8
    80003c0c:	d5f660e3          	bltu	a2,t6,8000394c <mm_cb+0x17f8>
    80003c10:	ef843303          	ld	t1,-264(s0)
    80003c14:	829e                	mv	t0,t2
    80003c16:	01e80733          	add	a4,a6,t5
    80003c1a:	093ff663          	bgeu	t6,s3,80003ca6 <mm_cb+0x1b52>
    80003c1e:	85e6                	mv	a1,s9
    80003c20:	867e                	mv	a2,t6
    80003c22:	01b600b3          	add	ra,a2,s11
    80003c26:	01b58533          	add	a0,a1,s11
    80003c2a:	00063987          	fld	fs3,0(a2)
    80003c2e:	0005b907          	fld	fs2,0(a1)
    80003c32:	00073c07          	fld	fs8,0(a4)
    80003c36:	00873b87          	fld	fs7,8(a4)
    80003c3a:	01073b07          	fld	fs6,16(a4)
    80003c3e:	01873a87          	fld	fs5,24(a4)
    80003c42:	02073a07          	fld	fs4,32(a4)
    80003c46:	0000b487          	fld	fs1,0(ra)
    80003c4a:	2100                	fld	fs0,0(a0)
    80003c4c:	0621                	add	a2,a2,8
    80003c4e:	2b89f2c3          	fmadd.d	ft5,fs3,fs8,ft5
    80003c52:	2379f243          	fmadd.d	ft4,fs3,fs7,ft4
    80003c56:	1b69f1c3          	fmadd.d	ft3,fs3,fs6,ft3
    80003c5a:	1359f143          	fmadd.d	ft2,fs3,fs5,ft2
    80003c5e:	6b49f6c3          	fmadd.d	fa3,fs3,fs4,fa3
    80003c62:	fb2c7fc3          	fmadd.d	ft11,fs8,fs2,ft11
    80003c66:	f32bff43          	fmadd.d	ft10,fs7,fs2,ft10
    80003c6a:	eb2b7ec3          	fmadd.d	ft9,fs6,fs2,ft9
    80003c6e:	e32afe43          	fmadd.d	ft8,fs5,fs2,ft8
    80003c72:	732a7743          	fmadd.d	fa4,fs4,fs2,fa4
    80003c76:	8a9c78c3          	fmadd.d	fa7,fs8,fs1,fa7
    80003c7a:	829bf843          	fmadd.d	fa6,fs7,fs1,fa6
    80003c7e:	3a9b73c3          	fmadd.d	ft7,fs6,fs1,ft7
    80003c82:	329af343          	fmadd.d	ft6,fs5,fs1,ft6
    80003c86:	7a9a77c3          	fmadd.d	fa5,fs4,fs1,fa5
    80003c8a:	0a8c70c3          	fmadd.d	ft1,fs8,fs0,ft1
    80003c8e:	028bf043          	fmadd.d	ft0,fs7,fs0,ft0
    80003c92:	528b7543          	fmadd.d	fa0,fs6,fs0,fa0
    80003c96:	5a8af5c3          	fmadd.d	fa1,fs5,fs0,fa1
    80003c9a:	628a7643          	fmadd.d	fa2,fs4,fs0,fa2
    80003c9e:	9726                	add	a4,a4,s1
    80003ca0:	05a1                	add	a1,a1,8
    80003ca2:	f93660e3          	bltu	a2,s3,80003c22 <mm_cb+0x1ace>
    80003ca6:	005eb027          	fsd	ft5,0(t4)
    80003caa:	004eb427          	fsd	ft4,8(t4)
    80003cae:	003eb827          	fsd	ft3,16(t4)
    80003cb2:	002ebc27          	fsd	ft2,24(t4)
    80003cb6:	02deb027          	fsd	fa3,32(t4)
    80003cba:	0dfeb427          	fsd	ft11,200(t4)
    80003cbe:	0deeb827          	fsd	ft10,208(t4)
    80003cc2:	0ddebc27          	fsd	ft9,216(t4)
    80003cc6:	0fceb027          	fsd	ft8,224(t4)
    80003cca:	0eeeb427          	fsd	fa4,232(t4)
    80003cce:	191eb827          	fsd	fa7,400(t4)
    80003cd2:	190ebc27          	fsd	fa6,408(t4)
    80003cd6:	1a7eb027          	fsd	ft7,416(t4)
    80003cda:	1a6eb427          	fsd	ft6,424(t4)
    80003cde:	1afeb827          	fsd	fa5,432(t4)
    80003ce2:	241ebc27          	fsd	ft1,600(t4)
    80003ce6:	260eb027          	fsd	ft0,608(t4)
    80003cea:	26aeb427          	fsd	fa0,616(t4)
    80003cee:	26beb827          	fsd	fa1,624(t4)
    80003cf2:	26cebc27          	fsd	fa2,632(t4)
    80003cf6:	028f0f13          	add	t5,t5,40
    80003cfa:	028e8e93          	add	t4,t4,40
    80003cfe:	bfe795e3          	bne	a5,t5,800038e8 <mm_cb+0x1794>
    80003d02:	d4543c23          	sd	t0,-680(s0)
    80003d06:	d6643023          	sd	t1,-672(s0)
    80003d0a:	d7c43423          	sd	t3,-664(s0)
    80003d0e:	e05a                	sd	s6,0(sp)
    80003d10:	f0843803          	ld	a6,-248(s0)
    80003d14:	f2843703          	ld	a4,-216(s0)
    80003d18:	e1843603          	ld	a2,-488(s0)
    80003d1c:	d7143823          	sd	a7,-656(s0)
    80003d20:	eef43c23          	sd	a5,-264(s0)
    80003d24:	4581                	li	a1,0
    80003d26:	4511                	li	a0,4
    80003d28:	ad8fe0ef          	jal	80002000 <mm_naive>
    80003d2c:	dd043783          	ld	a5,-560(s0)
    80003d30:	d7043883          	ld	a7,-656(s0)
    80003d34:	064a8a93          	add	s5,s5,100
    80003d38:	014786b3          	add	a3,a5,s4
    80003d3c:	01978fb3          	add	t6,a5,s9
    80003d40:	ed843783          	ld	a5,-296(s0)
    80003d44:	25800393          	li	t2,600
    80003d48:	d6843e03          	ld	t3,-664(s0)
    80003d4c:	99be                	add	s3,s3,a5
    80003d4e:	d6043303          	ld	t1,-672(s0)
    80003d52:	ef843783          	ld	a5,-264(s0)
    80003d56:	d5843283          	ld	t0,-680(s0)
    80003d5a:	32088893          	add	a7,a7,800
    80003d5e:	b67a9ae3          	bne	s5,t2,800038d2 <mm_cb+0x177e>
    80003d62:	8d3e                	mv	s10,a5
    80003d64:	de843783          	ld	a5,-536(s0)
    80003d68:	e05a                	sd	s6,0(sp)
    80003d6a:	ed043703          	ld	a4,-304(s0)
    80003d6e:	f0843803          	ld	a6,-248(s0)
    80003d72:	e9043683          	ld	a3,-368(s0)
    80003d76:	00e788b3          	add	a7,a5,a4
    80003d7a:	e1843603          	ld	a2,-488(s0)
    80003d7e:	f2843703          	ld	a4,-216(s0)
    80003d82:	87f2                	mv	a5,t3
    80003d84:	45e5                	li	a1,25
    80003d86:	4501                	li	a0,0
    80003d88:	8c96                	mv	s9,t0
    80003d8a:	8a1a                	mv	s4,t1
    80003d8c:	a74fe0ef          	jal	80002000 <mm_naive>
    80003d90:	d47fe06f          	j	80002ad6 <mm_cb+0x982>
    80003d94:	eb043783          	ld	a5,-336(s0)
    80003d98:	f0043703          	ld	a4,-256(s0)
    80003d9c:	97d2                	add	a5,a5,s4
    80003d9e:	e8f43823          	sd	a5,-368(s0)
    80003da2:	e8043783          	ld	a5,-384(s0)
    80003da6:	00f77463          	bgeu	a4,a5,80003dae <mm_cb+0x1c5a>
    80003daa:	d53fe06f          	j	80002afc <mm_cb+0x9a8>
    80003dae:	ee043783          	ld	a5,-288(s0)
    80003db2:	0be1                	add	s7,s7,24
    80003db4:	e9043a03          	ld	s4,-368(s0)
    80003db8:	00fe08b3          	add	a7,t3,a5
    80003dbc:	e2043783          	ld	a5,-480(s0)
    80003dc0:	8e46                	mv	t3,a7
    80003dc2:	00fbf463          	bgeu	s7,a5,80003dca <mm_cb+0x1c76>
    80003dc6:	827fe06f          	j	800025ec <mm_cb+0x498>
    80003dca:	ac4ff06f          	j	8000308e <mm_cb+0xf3a>
    80003dce:	f1843783          	ld	a5,-232(s0)
    80003dd2:	c399                	beqz	a5,80003dd8 <mm_cb+0x1c84>
    80003dd4:	d4afe06f          	j	8000231e <mm_cb+0x1ca>
    80003dd8:	eb843783          	ld	a5,-328(s0)
    80003ddc:	a40783e3          	beqz	a5,80003822 <mm_cb+0x16ce>
    80003de0:	a40581e3          	beqz	a1,80003822 <mm_cb+0x16ce>
    80003de4:	601c                	ld	a5,0(s0)
    80003de6:	00043883          	ld	a7,0(s0)
    80003dea:	00151913          	sll	s2,a0,0x1
    80003dee:	00251713          	sll	a4,a0,0x2
    80003df2:	f2843803          	ld	a6,-216(s0)
    80003df6:	00a906b3          	add	a3,s2,a0
    80003dfa:	972a                	add	a4,a4,a0
    80003dfc:	0786                	sll	a5,a5,0x1
    80003dfe:	00371b13          	sll	s6,a4,0x3
    80003e02:	00469713          	sll	a4,a3,0x4
    80003e06:	eaf43023          	sd	a5,-352(s0)
    80003e0a:	e4e43423          	sd	a4,-440(s0)
    80003e0e:	97c6                	add	a5,a5,a7
    80003e10:	00389713          	sll	a4,a7,0x3
    80003e14:	f0e43823          	sd	a4,-240(s0)
    80003e18:	00489713          	sll	a4,a7,0x4
    80003e1c:	00379893          	sll	a7,a5,0x3
    80003e20:	00381793          	sll	a5,a6,0x3
    80003e24:	00181613          	sll	a2,a6,0x1
    80003e28:	e4f43023          	sd	a5,-448(s0)
    80003e2c:	00581793          	sll	a5,a6,0x5
    80003e30:	9642                	add	a2,a2,a6
    80003e32:	ecf43c23          	sd	a5,-296(s0)
    80003e36:	601c                	ld	a5,0(s0)
    80003e38:	060e                	sll	a2,a2,0x3
    80003e3a:	e6c43023          	sd	a2,-416(s0)
    80003e3e:	00351613          	sll	a2,a0,0x3
    80003e42:	e4c43c23          	sd	a2,-424(s0)
    80003e46:	0796                	sll	a5,a5,0x5
    80003e48:	00551613          	sll	a2,a0,0x5
    80003e4c:	00481d93          	sll	s11,a6,0x4
    80003e50:	00451c13          	sll	s8,a0,0x4
    80003e54:	00369e93          	sll	t4,a3,0x3
    80003e58:	e4c43823          	sd	a2,-432(s0)
    80003e5c:	ece43023          	sd	a4,-320(s0)
    80003e60:	e8f43c23          	sd	a5,-360(s0)
    80003e64:	a74ff06f          	j	800030d8 <mm_cb+0xf84>
    80003e68:	00351793          	sll	a5,a0,0x3
    80003e6c:	00151913          	sll	s2,a0,0x1
    80003e70:	f0f43423          	sd	a5,-248(s0)
    80003e74:	d80fe06f          	j	800023f4 <mm_cb+0x2a0>

0000000080003e78 <mm>:
    80003e78:	7149                	add	sp,sp,-368
    80003e7a:	8faa                	mv	t6,a0
    80003e7c:	f03e                	sd	a5,32(sp)
    80003e7e:	f686                	sd	ra,360(sp)
    80003e80:	03000e13          	li	t3,48
    80003e84:	8332                	mv	t1,a2
    80003e86:	8eb6                	mv	t4,a3
    80003e88:	7556                	ld	a0,368(sp)
    80003e8a:	86be                	mv	a3,a5
    80003e8c:	863a                	mv	a2,a4
    80003e8e:	87c2                	mv	a5,a6
    80003e90:	82c6                	mv	t0,a7
    80003e92:	5bfe6163          	bltu	t3,t6,80004434 <mm+0x5bc>
    80003e96:	03200713          	li	a4,50
    80003e9a:	58b76d63          	bltu	a4,a1,80004434 <mm+0x5bc>
    80003e9e:	586e6b63          	bltu	t3,t1,80004434 <mm+0x5bc>
    80003ea2:	4f15                	li	t5,5
    80003ea4:	03e5d733          	divu	a4,a1,t5
    80003ea8:	f2a2                	sd	s0,352(sp)
    80003eaa:	00351413          	sll	s0,a0,0x3
    80003eae:	f8a2                	sd	s0,112(sp)
    80003eb0:	00361413          	sll	s0,a2,0x3
    80003eb4:	ee66                	sd	s9,280(sp)
    80003eb6:	ffcff393          	and	t2,t6,-4
    80003eba:	fca2                	sd	s0,120(sp)
    80003ebc:	00271c93          	sll	s9,a4,0x2
    80003ec0:	9cba                	add	s9,s9,a4
    80003ec2:	54038463          	beqz	t2,8000440a <mm+0x592>
    80003ec6:	4899                	li	a7,6
    80003ec8:	031358b3          	divu	a7,t1,a7
    80003ecc:	003c9713          	sll	a4,s9,0x3
    80003ed0:	e13a                	sd	a4,128(sp)
    80003ed2:	9736                	add	a4,a4,a3
    80003ed4:	f0ba                	sd	a4,96(sp)
    80003ed6:	00551713          	sll	a4,a0,0x5
    80003eda:	f4ba                	sd	a4,104(sp)
    80003edc:	eaca                	sd	s2,336(sp)
    80003ede:	fe56                	sd	s5,312(sp)
    80003ee0:	00181a93          	sll	s5,a6,0x1
    80003ee4:	e2d2                	sd	s4,320(sp)
    80003ee6:	fa5a                	sd	s6,304(sp)
    80003ee8:	9ac2                	add	s5,s5,a6
    80003eea:	00381a13          	sll	s4,a6,0x3
    80003eee:	00481413          	sll	s0,a6,0x4
    80003ef2:	00581b13          	sll	s6,a6,0x5
    80003ef6:	f262                	sd	s8,288(sp)
    80003ef8:	eea6                	sd	s1,344(sp)
    80003efa:	e6ce                	sd	s3,328(sp)
    80003efc:	f65e                	sd	s7,296(sp)
    80003efe:	ea6a                	sd	s10,272(sp)
    80003f00:	e66e                	sd	s11,264(sp)
    80003f02:	bda2                	fsd	fs0,248(sp)
    80003f04:	b9a6                	fsd	fs1,240(sp)
    80003f06:	b5ca                	fsd	fs2,232(sp)
    80003f08:	b1ce                	fsd	fs3,224(sp)
    80003f0a:	add2                	fsd	fs4,216(sp)
    80003f0c:	a9d6                	fsd	fs5,208(sp)
    80003f0e:	a5da                	fsd	fs6,200(sp)
    80003f10:	a1de                	fsd	fs7,192(sp)
    80003f12:	bd62                	fsd	fs8,184(sp)
    80003f14:	b966                	fsd	fs9,176(sp)
    80003f16:	b56a                	fsd	fs10,168(sp)
    80003f18:	00331993          	sll	s3,t1,0x3
    80003f1c:	f41e                	sd	t2,40(sp)
    80003f1e:	e57e                	sd	t6,136(sp)
    80003f20:	f82e                	sd	a1,48(sp)
    80003f22:	fc1a                	sd	t1,56(sp)
    80003f24:	e976                	sd	t4,144(sp)
    80003f26:	e0b2                	sd	a2,64(sp)
    80003f28:	e4be                	sd	a5,72(sp)
    80003f2a:	00451b93          	sll	s7,a0,0x4
    80003f2e:	00461493          	sll	s1,a2,0x4
    80003f32:	0a92                	sll	s5,s5,0x4
    80003f34:	00561d93          	sll	s11,a2,0x5
    80003f38:	86f6                	mv	a3,t4
    80003f3a:	99f6                	add	s3,s3,t4
    80003f3c:	8d16                	mv	s10,t0
    80003f3e:	4e01                	li	t3,0
    80003f40:	00189713          	sll	a4,a7,0x1
    80003f44:	01170933          	add	s2,a4,a7
    80003f48:	03e5f733          	remu	a4,a1,t5
    80003f4c:	0912                	sll	s2,s2,0x4
    80003f4e:	9976                	add	s2,s2,t4
    80003f50:	03088833          	mul	a6,a7,a6
    80003f54:	ecba                	sd	a4,88(sp)
    80003f56:	ed16                	sd	t0,152(sp)
    80003f58:	e8aa                	sd	a0,80(sp)
    80003f5a:	00181c13          	sll	s8,a6,0x1
    80003f5e:	9c42                	add	s8,s8,a6
    80003f60:	0c12                	sll	s8,s8,0x4
    80003f62:	77c2                	ld	a5,48(sp)
    80003f64:	4711                	li	a4,4
    80003f66:	42f77a63          	bgeu	a4,a5,8000439a <mm+0x522>
    80003f6a:	77c6                	ld	a5,112(sp)
    80003f6c:	7e82                	ld	t4,32(sp)
    80003f6e:	886a                	mv	a6,s10
    80003f70:	00fd08b3          	add	a7,s10,a5
    80003f74:	77e6                	ld	a5,120(sp)
    80003f76:	4f01                	li	t5,0
    80003f78:	83f2                	mv	t2,t3
    80003f7a:	00f682b3          	add	t0,a3,a5
    80003f7e:	00f90fb3          	add	t6,s2,a5
    80003f82:	01780e33          	add	t3,a6,s7
    80003f86:	01788333          	add	t1,a7,s7
    80003f8a:	00083287          	fld	ft5,0(a6)
    80003f8e:	00883207          	fld	ft4,8(a6)
    80003f92:	01083187          	fld	ft3,16(a6)
    80003f96:	01883107          	fld	ft2,24(a6)
    80003f9a:	02083687          	fld	fa3,32(a6)
    80003f9e:	0008bf87          	fld	ft11,0(a7)
    80003fa2:	0088bf07          	fld	ft10,8(a7)
    80003fa6:	0108be87          	fld	ft9,16(a7)
    80003faa:	0188be07          	fld	ft8,24(a7)
    80003fae:	0208b707          	fld	fa4,32(a7)
    80003fb2:	000e3887          	fld	fa7,0(t3)
    80003fb6:	008e3807          	fld	fa6,8(t3)
    80003fba:	010e3387          	fld	ft7,16(t3)
    80003fbe:	018e3307          	fld	ft6,24(t3)
    80003fc2:	020e3787          	fld	fa5,32(t3)
    80003fc6:	00033087          	fld	ft1,0(t1)
    80003fca:	00833007          	fld	ft0,8(t1)
    80003fce:	01033507          	fld	fa0,16(t1)
    80003fd2:	01833587          	fld	fa1,24(t1)
    80003fd6:	02033607          	fld	fa2,32(t1)
    80003fda:	8676                	mv	a2,t4
    80003fdc:	2d26f663          	bgeu	a3,s2,800042a8 <mm+0x430>
    80003fe0:	01da07b3          	add	a5,s4,t4
    80003fe4:	8596                	mv	a1,t0
    80003fe6:	8736                	mv	a4,a3
    80003fe8:	e866                	sd	s9,16(sp)
    80003fea:	009700b3          	add	ra,a4,s1
    80003fee:	00958533          	add	a0,a1,s1
    80003ff2:	00073c07          	fld	fs8,0(a4)
    80003ff6:	0005bb87          	fld	fs7,0(a1)
    80003ffa:	00063a87          	fld	fs5,0(a2)
    80003ffe:	00863a07          	fld	fs4,8(a2)
    80004002:	01063987          	fld	fs3,16(a2)
    80004006:	01863907          	fld	fs2,24(a2)
    8000400a:	3204                	fld	fs1,32(a2)
    8000400c:	0000bb07          	fld	fs6,0(ra)
    80004010:	2100                	fld	fs0,0(a0)
    80004012:	6a9c76c3          	fmadd.d	fa3,fs8,fs1,fa3
    80004016:	7374f743          	fmadd.d	fa4,fs1,fs7,fa4
    8000401a:	7b64f7c3          	fmadd.d	fa5,fs1,fs6,fa5
    8000401e:	0a8af0c3          	fmadd.d	ft1,fs5,fs0,ft1
    80004022:	028a7043          	fmadd.d	ft0,fs4,fs0,ft0
    80004026:	5289f543          	fmadd.d	fa0,fs3,fs0,fa0
    8000402a:	5a8975c3          	fmadd.d	fa1,fs2,fs0,fa1
    8000402e:	2b5c72c3          	fmadd.d	ft5,fs8,fs5,ft5
    80004032:	234c7243          	fmadd.d	ft4,fs8,fs4,ft4
    80004036:	1b3c71c3          	fmadd.d	ft3,fs8,fs3,ft3
    8000403a:	132c7143          	fmadd.d	ft2,fs8,fs2,ft2
    8000403e:	fb7affc3          	fmadd.d	ft11,fs5,fs7,ft11
    80004042:	f37a7f43          	fmadd.d	ft10,fs4,fs7,ft10
    80004046:	eb79fec3          	fmadd.d	ft9,fs3,fs7,ft9
    8000404a:	e3797e43          	fmadd.d	ft8,fs2,fs7,ft8
    8000404e:	8b6af8c3          	fmadd.d	fa7,fs5,fs6,fa7
    80004052:	836a7843          	fmadd.d	fa6,fs4,fs6,fa6
    80004056:	3b69f3c3          	fmadd.d	ft7,fs3,fs6,ft7
    8000405a:	33697343          	fmadd.d	ft6,fs2,fs6,ft6
    8000405e:	6284f643          	fmadd.d	fa2,fs1,fs0,fa2
    80004062:	00873907          	fld	fs2,8(a4)
    80004066:	2584                	fld	fs1,8(a1)
    80004068:	0207bc07          	fld	fs8,32(a5)
    8000406c:	00853b87          	fld	fs7,8(a0)
    80004070:	0007bb07          	fld	fs6,0(a5)
    80004074:	0087ba87          	fld	fs5,8(a5)
    80004078:	0107ba07          	fld	fs4,16(a5)
    8000407c:	0187b987          	fld	fs3,24(a5)
    80004080:	0080b407          	fld	fs0,8(ra)
    80004084:	637c7643          	fmadd.d	fa2,fs8,fs7,fa2
    80004088:	2b6972c3          	fmadd.d	ft5,fs2,fs6,ft5
    8000408c:	23597243          	fmadd.d	ft4,fs2,fs5,ft4
    80004090:	1b4971c3          	fmadd.d	ft3,fs2,fs4,ft3
    80004094:	13397143          	fmadd.d	ft2,fs2,fs3,ft2
    80004098:	fa9b7fc3          	fmadd.d	ft11,fs6,fs1,ft11
    8000409c:	6b897943          	fmadd.d	fs2,fs2,fs8,fa3
    800040a0:	f29aff43          	fmadd.d	ft10,fs5,fs1,ft10
    800040a4:	ea9a7ec3          	fmadd.d	ft9,fs4,fs1,ft9
    800040a8:	e299fe43          	fmadd.d	ft8,fs3,fs1,ft8
    800040ac:	8a8b78c3          	fmadd.d	fa7,fs6,fs0,fa7
    800040b0:	729c74c3          	fmadd.d	fs1,fs8,fs1,fa4
    800040b4:	0b7b7b43          	fmadd.d	fs6,fs6,fs7,ft1
    800040b8:	828af843          	fmadd.d	fa6,fs5,fs0,fa6
    800040bc:	3a8a73c3          	fmadd.d	ft7,fs4,fs0,ft7
    800040c0:	037afac3          	fmadd.d	fs5,fs5,fs7,ft0
    800040c4:	537a7a43          	fmadd.d	fs4,fs4,fs7,fa0
    800040c8:	3289f343          	fmadd.d	ft6,fs3,fs0,ft6
    800040cc:	7a8c7443          	fmadd.d	fs0,fs8,fs0,fa5
    800040d0:	5b79f9c3          	fmadd.d	fs3,fs3,fs7,fa1
    800040d4:	00c40cb3          	add	s9,s0,a2
    800040d8:	2b0c                	fld	fa1,16(a4)
    800040da:	2994                	fld	fa3,16(a1)
    800040dc:	0100b787          	fld	fa5,16(ra)
    800040e0:	01053c87          	fld	fs9,16(a0)
    800040e4:	000cbc07          	fld	fs8,0(s9)
    800040e8:	008cbb87          	fld	fs7,8(s9)
    800040ec:	010cb087          	fld	ft1,16(s9)
    800040f0:	018cb007          	fld	ft0,24(s9)
    800040f4:	020cb507          	fld	fa0,32(s9)
    800040f8:	2b85f2c3          	fmadd.d	ft5,fa1,fs8,ft5
    800040fc:	2375f243          	fmadd.d	ft4,fa1,fs7,ft4
    80004100:	1a15f1c3          	fmadd.d	ft3,fa1,ft1,ft3
    80004104:	1205f143          	fmadd.d	ft2,fa1,ft0,ft2
    80004108:	fadc7fc3          	fmadd.d	ft11,fs8,fa3,ft11
    8000410c:	92a5f5c3          	fmadd.d	fa1,fa1,fa0,fs2
    80004110:	f2dbff43          	fmadd.d	ft10,fs7,fa3,ft10
    80004114:	ead0fec3          	fmadd.d	ft9,ft1,fa3,ft9
    80004118:	e2d07e43          	fmadd.d	ft8,ft0,fa3,ft8
    8000411c:	8afc78c3          	fmadd.d	fa7,fs8,fa5,fa7
    80004120:	4ad576c3          	fmadd.d	fa3,fa0,fa3,fs1
    80004124:	b39c7c43          	fmadd.d	fs8,fs8,fs9,fs6
    80004128:	82fbf843          	fmadd.d	fa6,fs7,fa5,fa6
    8000412c:	3af0f3c3          	fmadd.d	ft7,ft1,fa5,ft7
    80004130:	ab9bfbc3          	fmadd.d	fs7,fs7,fs9,fs5
    80004134:	a390f0c3          	fmadd.d	ft1,ft1,fs9,fs4
    80004138:	32f07343          	fmadd.d	ft6,ft0,fa5,ft6
    8000413c:	42f577c3          	fmadd.d	fa5,fa0,fa5,fs0
    80004140:	9b907043          	fmadd.d	ft0,ft0,fs9,fs3
    80004144:	63957543          	fmadd.d	fa0,fa0,fs9,fa2
    80004148:	97a2                	add	a5,a5,s0
    8000414a:	01873907          	fld	fs2,24(a4)
    8000414e:	0007bb07          	fld	fs6,0(a5)
    80004152:	0087ba87          	fld	fs5,8(a5)
    80004156:	0107ba07          	fld	fs4,16(a5)
    8000415a:	0187b987          	fld	fs3,24(a5)
    8000415e:	0207bc87          	fld	fs9,32(a5)
    80004162:	2d84                	fld	fs1,24(a1)
    80004164:	0180b407          	fld	fs0,24(ra)
    80004168:	2d10                	fld	fa2,24(a0)
    8000416a:	2b697743          	fmadd.d	fa4,fs2,fs6,ft5
    8000416e:	23597243          	fmadd.d	ft4,fs2,fs5,ft4
    80004172:	1b4971c3          	fmadd.d	ft3,fs2,fs4,ft3
    80004176:	13397143          	fmadd.d	ft2,fs2,fs3,ft2
    8000417a:	fa9b7fc3          	fmadd.d	ft11,fs6,fs1,ft11
    8000417e:	5b997943          	fmadd.d	fs2,fs2,fs9,fa1
    80004182:	f29aff43          	fmadd.d	ft10,fs5,fs1,ft10
    80004186:	ea9a7ec3          	fmadd.d	ft9,fs4,fs1,ft9
    8000418a:	e299fe43          	fmadd.d	ft8,fs3,fs1,ft8
    8000418e:	8a8b78c3          	fmadd.d	fa7,fs6,fs0,fa7
    80004192:	6a9cf4c3          	fmadd.d	fs1,fs9,fs1,fa3
    80004196:	828af843          	fmadd.d	fa6,fs5,fs0,fa6
    8000419a:	3a8a73c3          	fmadd.d	ft7,fs4,fs0,ft7
    8000419e:	3289f343          	fmadd.d	ft6,fs3,fs0,ft6
    800041a2:	c2cb7b43          	fmadd.d	fs6,fs6,fa2,fs8
    800041a6:	7a8cf443          	fmadd.d	fs0,fs9,fs0,fa5
    800041aa:	bacafac3          	fmadd.d	fs5,fs5,fa2,fs7
    800041ae:	0aca7a43          	fmadd.d	fs4,fs4,fa2,ft1
    800041b2:	02c9f9c3          	fmadd.d	fs3,fs3,fa2,ft0
    800041b6:	52ccf643          	fmadd.d	fa2,fs9,fa2,fa0
    800041ba:	00cb0cb3          	add	s9,s6,a2
    800041be:	3188                	fld	fa0,32(a1)
    800041c0:	331c                	fld	fa5,32(a4)
    800041c2:	0200b587          	fld	fa1,32(ra)
    800041c6:	3114                	fld	fa3,32(a0)
    800041c8:	010cbb87          	fld	fs7,16(s9)
    800041cc:	018cb087          	fld	ft1,24(s9)
    800041d0:	020cb007          	fld	ft0,32(s9)
    800041d4:	000cbc87          	fld	fs9,0(s9)
    800041d8:	008cbc07          	fld	fs8,8(s9)
    800041dc:	42b07d43          	fmadd.d	fs10,ft0,fa1,fs0
    800041e0:	7397f2c3          	fmadd.d	ft5,fa5,fs9,fa4
    800041e4:	1b77f1c3          	fmadd.d	ft3,fa5,fs7,ft3
    800041e8:	1217f143          	fmadd.d	ft2,fa5,ft1,ft2
    800041ec:	eaabfec3          	fmadd.d	ft9,fs7,fa0,ft9
    800041f0:	e2a0fe43          	fmadd.d	ft8,ft1,fa0,ft8
    800041f4:	4aa074c3          	fmadd.d	fs1,ft0,fa0,fs1
    800041f8:	3abbf3c3          	fmadd.d	ft7,fs7,fa1,ft7
    800041fc:	32b0f343          	fmadd.d	ft6,ft1,fa1,ft6
    80004200:	a2dbfa43          	fmadd.d	fs4,fs7,fa3,fs4
    80004204:	9ad0f9c3          	fmadd.d	fs3,ft1,fa3,fs3
    80004208:	62d07bc3          	fmadd.d	fs7,ft0,fa3,fa2
    8000420c:	2387f243          	fmadd.d	ft4,fa5,fs8,ft4
    80004210:	faacffc3          	fmadd.d	ft11,fs9,fa0,ft11
    80004214:	9207f7c3          	fmadd.d	fa5,fa5,ft0,fs2
    80004218:	f2ac7f43          	fmadd.d	ft10,fs8,fa0,ft10
    8000421c:	8abcf8c3          	fmadd.d	fa7,fs9,fa1,fa7
    80004220:	82bc7843          	fmadd.d	fa6,fs8,fa1,fa6
    80004224:	b2dcfb43          	fmadd.d	fs6,fs9,fa3,fs6
    80004228:	aadc7ac3          	fmadd.d	fs5,fs8,fa3,fs5
    8000422c:	97a2                	add	a5,a5,s0
    8000422e:	3714                	fld	fa3,40(a4)
    80004230:	3598                	fld	fa4,40(a1)
    80004232:	0280b907          	fld	fs2,40(ra)
    80004236:	3500                	fld	fs0,40(a0)
    80004238:	0007b087          	fld	ft1,0(a5)
    8000423c:	0087b007          	fld	ft0,8(a5)
    80004240:	2b88                	fld	fa0,16(a5)
    80004242:	2f8c                	fld	fa1,24(a5)
    80004244:	3390                	fld	fa2,32(a5)
    80004246:	03070713          	add	a4,a4,48
    8000424a:	2a16f2c3          	fmadd.d	ft5,fa3,ft1,ft5
    8000424e:	2206f243          	fmadd.d	ft4,fa3,ft0,ft4
    80004252:	1aa6f1c3          	fmadd.d	ft3,fa3,fa0,ft3
    80004256:	12b6f143          	fmadd.d	ft2,fa3,fa1,ft2
    8000425a:	fae0ffc3          	fmadd.d	ft11,ft1,fa4,ft11
    8000425e:	7ac6f6c3          	fmadd.d	fa3,fa3,fa2,fa5
    80004262:	f2e07f43          	fmadd.d	ft10,ft0,fa4,ft10
    80004266:	eae57ec3          	fmadd.d	ft9,fa0,fa4,ft9
    8000426a:	e2e5fe43          	fmadd.d	ft8,fa1,fa4,ft8
    8000426e:	8b20f8c3          	fmadd.d	fa7,ft1,fs2,fa7
    80004272:	4ae67743          	fmadd.d	fa4,fa2,fa4,fs1
    80004276:	83207843          	fmadd.d	fa6,ft0,fs2,fa6
    8000427a:	3b2573c3          	fmadd.d	ft7,fa0,fs2,ft7
    8000427e:	3325f343          	fmadd.d	ft6,fa1,fs2,ft6
    80004282:	d32677c3          	fmadd.d	fa5,fa2,fs2,fs10
    80004286:	b280f0c3          	fmadd.d	ft1,ft1,fs0,fs6
    8000428a:	aa807043          	fmadd.d	ft0,ft0,fs0,fs5
    8000428e:	a2857543          	fmadd.d	fa0,fa0,fs0,fs4
    80004292:	9a85f5c3          	fmadd.d	fa1,fa1,fs0,fs3
    80004296:	ba867643          	fmadd.d	fa2,fa2,fs0,fs7
    8000429a:	9656                	add	a2,a2,s5
    8000429c:	03058593          	add	a1,a1,48
    800042a0:	97a2                	add	a5,a5,s0
    800042a2:	d52764e3          	bltu	a4,s2,80003fea <mm+0x172>
    800042a6:	6cc2                	ld	s9,16(sp)
    800042a8:	01dc07b3          	add	a5,s8,t4
    800042ac:	09397563          	bgeu	s2,s3,80004336 <mm+0x4be>
    800042b0:	867e                	mv	a2,t6
    800042b2:	874a                	mv	a4,s2
    800042b4:	00970533          	add	a0,a4,s1
    800042b8:	009605b3          	add	a1,a2,s1
    800042bc:	00073987          	fld	fs3,0(a4)
    800042c0:	00063907          	fld	fs2,0(a2)
    800042c4:	0007bc07          	fld	fs8,0(a5)
    800042c8:	0087bb87          	fld	fs7,8(a5)
    800042cc:	0107bb07          	fld	fs6,16(a5)
    800042d0:	0187ba87          	fld	fs5,24(a5)
    800042d4:	0207ba07          	fld	fs4,32(a5)
    800042d8:	2104                	fld	fs1,0(a0)
    800042da:	2180                	fld	fs0,0(a1)
    800042dc:	0721                	add	a4,a4,8
    800042de:	2b89f2c3          	fmadd.d	ft5,fs3,fs8,ft5
    800042e2:	2379f243          	fmadd.d	ft4,fs3,fs7,ft4
    800042e6:	1b69f1c3          	fmadd.d	ft3,fs3,fs6,ft3
    800042ea:	1359f143          	fmadd.d	ft2,fs3,fs5,ft2
    800042ee:	6b49f6c3          	fmadd.d	fa3,fs3,fs4,fa3
    800042f2:	fb2c7fc3          	fmadd.d	ft11,fs8,fs2,ft11
    800042f6:	f32bff43          	fmadd.d	ft10,fs7,fs2,ft10
    800042fa:	eb2b7ec3          	fmadd.d	ft9,fs6,fs2,ft9
    800042fe:	e32afe43          	fmadd.d	ft8,fs5,fs2,ft8
    80004302:	732a7743          	fmadd.d	fa4,fs4,fs2,fa4
    80004306:	8a9c78c3          	fmadd.d	fa7,fs8,fs1,fa7
    8000430a:	829bf843          	fmadd.d	fa6,fs7,fs1,fa6
    8000430e:	3a9b73c3          	fmadd.d	ft7,fs6,fs1,ft7
    80004312:	329af343          	fmadd.d	ft6,fs5,fs1,ft6
    80004316:	7a9a77c3          	fmadd.d	fa5,fs4,fs1,fa5
    8000431a:	0a8c70c3          	fmadd.d	ft1,fs8,fs0,ft1
    8000431e:	028bf043          	fmadd.d	ft0,fs7,fs0,ft0
    80004322:	528b7543          	fmadd.d	fa0,fs6,fs0,fa0
    80004326:	5a8af5c3          	fmadd.d	fa1,fs5,fs0,fa1
    8000432a:	628a7643          	fmadd.d	fa2,fs4,fs0,fa2
    8000432e:	97d2                	add	a5,a5,s4
    80004330:	0621                	add	a2,a2,8
    80004332:	f93761e3          	bltu	a4,s3,800042b4 <mm+0x43c>
    80004336:	00583027          	fsd	ft5,0(a6)
    8000433a:	00483427          	fsd	ft4,8(a6)
    8000433e:	00383827          	fsd	ft3,16(a6)
    80004342:	00283c27          	fsd	ft2,24(a6)
    80004346:	02d83027          	fsd	fa3,32(a6)
    8000434a:	01f8b027          	fsd	ft11,0(a7)
    8000434e:	01e8b427          	fsd	ft10,8(a7)
    80004352:	01d8b827          	fsd	ft9,16(a7)
    80004356:	01c8bc27          	fsd	ft8,24(a7)
    8000435a:	02e8b027          	fsd	fa4,32(a7)
    8000435e:	011e3027          	fsd	fa7,0(t3)
    80004362:	010e3427          	fsd	fa6,8(t3)
    80004366:	007e3827          	fsd	ft7,16(t3)
    8000436a:	006e3c27          	fsd	ft6,24(t3)
    8000436e:	02fe3027          	fsd	fa5,32(t3)
    80004372:	00133027          	fsd	ft1,0(t1)
    80004376:	00033427          	fsd	ft0,8(t1)
    8000437a:	00a33827          	fsd	fa0,16(t1)
    8000437e:	00b33c27          	fsd	fa1,24(t1)
    80004382:	02c33027          	fsd	fa2,32(t1)
    80004386:	0f15                	add	t5,t5,5
    80004388:	02880813          	add	a6,a6,40
    8000438c:	02888893          	add	a7,a7,40
    80004390:	028e8e93          	add	t4,t4,40
    80004394:	bf9f67e3          	bltu	t5,s9,80003f82 <mm+0x10a>
    80004398:	8e1e                	mv	t3,t2
    8000439a:	67c6                	ld	a5,80(sp)
    8000439c:	6826                	ld	a6,72(sp)
    8000439e:	6706                	ld	a4,64(sp)
    800043a0:	e03e                	sd	a5,0(sp)
    800043a2:	678a                	ld	a5,128(sp)
    800043a4:	7662                	ld	a2,56(sp)
    800043a6:	65e6                	ld	a1,88(sp)
    800043a8:	01a788b3          	add	a7,a5,s10
    800043ac:	7786                	ld	a5,96(sp)
    800043ae:	4511                	li	a0,4
    800043b0:	ec72                	sd	t3,24(sp)
    800043b2:	e836                	sd	a3,16(sp)
    800043b4:	c4dfd0ef          	jal	80002000 <mm_naive>
    800043b8:	77a6                	ld	a5,104(sp)
    800043ba:	6e62                	ld	t3,24(sp)
    800043bc:	66c2                	ld	a3,16(sp)
    800043be:	9d3e                	add	s10,s10,a5
    800043c0:	77a2                	ld	a5,40(sp)
    800043c2:	0e11                	add	t3,t3,4
    800043c4:	96ee                	add	a3,a3,s11
    800043c6:	99ee                	add	s3,s3,s11
    800043c8:	996e                	add	s2,s2,s11
    800043ca:	b8fe6ce3          	bltu	t3,a5,80003f62 <mm+0xea>
    800043ce:	73a2                	ld	t2,40(sp)
    800043d0:	6faa                	ld	t6,136(sp)
    800043d2:	75c2                	ld	a1,48(sp)
    800043d4:	7362                	ld	t1,56(sp)
    800043d6:	6eca                	ld	t4,144(sp)
    800043d8:	6606                	ld	a2,64(sp)
    800043da:	67a6                	ld	a5,72(sp)
    800043dc:	62ea                	ld	t0,152(sp)
    800043de:	6546                	ld	a0,80(sp)
    800043e0:	64f6                	ld	s1,344(sp)
    800043e2:	6956                	ld	s2,336(sp)
    800043e4:	69b6                	ld	s3,328(sp)
    800043e6:	6a16                	ld	s4,320(sp)
    800043e8:	7af2                	ld	s5,312(sp)
    800043ea:	7b52                	ld	s6,304(sp)
    800043ec:	7bb2                	ld	s7,296(sp)
    800043ee:	7c12                	ld	s8,288(sp)
    800043f0:	6d52                	ld	s10,272(sp)
    800043f2:	6db2                	ld	s11,264(sp)
    800043f4:	346e                	fld	fs0,248(sp)
    800043f6:	34ce                	fld	fs1,240(sp)
    800043f8:	392e                	fld	fs2,232(sp)
    800043fa:	398e                	fld	fs3,224(sp)
    800043fc:	2a6e                	fld	fs4,216(sp)
    800043fe:	2ace                	fld	fs5,208(sp)
    80004400:	2b2e                	fld	fs6,200(sp)
    80004402:	2b8e                	fld	fs7,192(sp)
    80004404:	3c6a                	fld	fs8,184(sp)
    80004406:	3cca                	fld	fs9,176(sp)
    80004408:	3d2a                	fld	fs10,168(sp)
    8000440a:	7746                	ld	a4,112(sp)
    8000440c:	76e6                	ld	a3,120(sp)
    8000440e:	7416                	ld	s0,352(sp)
    80004410:	02e388b3          	mul	a7,t2,a4
    80004414:	6cf2                	ld	s9,280(sp)
    80004416:	70b6                	ld	ra,360(sp)
    80004418:	883e                	mv	a6,a5
    8000441a:	7782                	ld	a5,32(sp)
    8000441c:	faaa                	sd	a0,368(sp)
    8000441e:	8732                	mv	a4,a2
    80004420:	861a                	mv	a2,t1
    80004422:	407f8533          	sub	a0,t6,t2
    80004426:	02d386b3          	mul	a3,t2,a3
    8000442a:	9896                	add	a7,a7,t0
    8000442c:	6175                	add	sp,sp,368
    8000442e:	96f6                	add	a3,a3,t4
    80004430:	bd1fd06f          	j	80002000 <mm_naive>
    80004434:	70b6                	ld	ra,360(sp)
    80004436:	883e                	mv	a6,a5
    80004438:	7782                	ld	a5,32(sp)
    8000443a:	faaa                	sd	a0,368(sp)
    8000443c:	8732                	mv	a4,a2
    8000443e:	8896                	mv	a7,t0
    80004440:	86f6                	mv	a3,t4
    80004442:	861a                	mv	a2,t1
    80004444:	857e                	mv	a0,t6
    80004446:	6175                	add	sp,sp,368
    80004448:	d0dfd06f          	j	80002154 <mm_cb>

000000008000444c <barrier>:
    8000444c:	0ff0000f          	fence
    80004450:	00022703          	lw	a4,0(tp) # 0 <threadsense.2>
    80004454:	a5818693          	add	a3,gp,-1448 # 800052a0 <count.1>
    80004458:	4605                	li	a2,1
    8000445a:	00173713          	seqz	a4,a4
    8000445e:	00e22023          	sw	a4,0(tp) # 0 <threadsense.2>
    80004462:	0f50000f          	fence	iorw,ow
    80004466:	04c6a72f          	amoadd.w.aq	a4,a2,(a3)
    8000446a:	357d                	addw	a0,a0,-1
    8000446c:	2701                	sext.w	a4,a4
    8000446e:	00e50c63          	beq	a0,a4,80004486 <barrier+0x3a>
    80004472:	00022683          	lw	a3,0(tp) # 0 <threadsense.2>
    80004476:	a5418713          	add	a4,gp,-1452 # 8000529c <sense.0>
    8000447a:	431c                	lw	a5,0(a4)
    8000447c:	fed79fe3          	bne	a5,a3,8000447a <barrier+0x2e>
    80004480:	0ff0000f          	fence
    80004484:	8082                	ret
    80004486:	00022783          	lw	a5,0(tp) # 0 <threadsense.2>
    8000448a:	a401ac23          	sw	zero,-1448(gp) # 800052a0 <count.1>
    8000448e:	a4f1aa23          	sw	a5,-1452(gp) # 8000529c <sense.0>
    80004492:	b7fd                	j	80004480 <barrier+0x34>

0000000080004494 <thread_entry>:
    80004494:	7159                	add	sp,sp,-112
    80004496:	77fd                	lui	a5,0xfffff
    80004498:	f486                	sd	ra,104(sp)
    8000449a:	f0a2                	sd	s0,96(sp)
    8000449c:	eca6                	sd	s1,88(sp)
    8000449e:	e8ca                	sd	s2,80(sp)
    800044a0:	e4ce                	sd	s3,72(sp)
    800044a2:	e0d2                	sd	s4,64(sp)
    800044a4:	f85a                	sd	s6,48(sp)
    800044a6:	f45e                	sd	s7,40(sp)
    800044a8:	ec66                	sd	s9,24(sp)
    800044aa:	e86a                	sd	s10,16(sp)
    800044ac:	fc56                	sd	s5,56(sp)
    800044ae:	f062                	sd	s8,32(sp)
    800044b0:	1880                	add	s0,sp,112
    800044b2:	e0078093          	add	ra,a5,-512 # ffffffffffffee00 <__global_pointer$+0xffffffff7fff95b8>
    800044b6:	777d                	lui	a4,0xfffff
    800044b8:	d4070293          	add	t0,a4,-704 # ffffffffffffed40 <__global_pointer$+0xffffffff7fff94f8>
    800044bc:	9106                	add	sp,sp,ra
    800044be:	01010913          	add	s2,sp,16
    800044c2:	6f05                	lui	t5,0x1
    800044c4:	9116                	add	sp,sp,t0
    800044c6:	37ab7337          	lui	t1,0x37ab7
    800044ca:	01010993          	add	s3,sp,16
    800044ce:	2c0f0393          	add	t2,t5,704 # 12c0 <buflen.1+0x1240>
    800044d2:	9116                	add	sp,sp,t0
    800044d4:	00231613          	sll	a2,t1,0x2
    800044d8:	4e05                	li	t3,1
    800044da:	8a2a                	mv	s4,a0
    800044dc:	8d2e                	mv	s10,a1
    800044de:	0804                	add	s1,sp,16
    800044e0:	0c090e93          	add	t4,s2,192
    800044e4:	00790bb3          	add	s7,s2,t2
    800044e8:	eef60c93          	add	s9,a2,-273
    800044ec:	03ee1b13          	sll	s6,t3,0x3e
    800044f0:	f40e8a93          	add	s5,t4,-192
    800044f4:	001cd693          	srl	a3,s9,0x1
    800044f8:	0196c533          	xor	a0,a3,s9
    800044fc:	03e51593          	sll	a1,a0,0x3e
    80004500:	0165f833          	and	a6,a1,s6
    80004504:	00d86c33          	or	s8,a6,a3
    80004508:	001c5c93          	srl	s9,s8,0x1
    8000450c:	018cc8b3          	xor	a7,s9,s8
    80004510:	03e89f93          	sll	t6,a7,0x3e
    80004514:	016ff7b3          	and	a5,t6,s6
    80004518:	0197e0b3          	or	ra,a5,s9
    8000451c:	0010d713          	srl	a4,ra,0x1
    80004520:	001742b3          	xor	t0,a4,ra
    80004524:	03e29f13          	sll	t5,t0,0x3e
    80004528:	016f7333          	and	t1,t5,s6
    8000452c:	00e363b3          	or	t2,t1,a4
    80004530:	0013d613          	srl	a2,t2,0x1
    80004534:	00764e33          	xor	t3,a2,t2
    80004538:	03ee1693          	sll	a3,t3,0x3e
    8000453c:	0166f533          	and	a0,a3,s6
    80004540:	00c56833          	or	a6,a0,a2
    80004544:	00185c93          	srl	s9,a6,0x1
    80004548:	010cc5b3          	xor	a1,s9,a6
    8000454c:	03e59893          	sll	a7,a1,0x3e
    80004550:	0168ffb3          	and	t6,a7,s6
    80004554:	019fe733          	or	a4,t6,s9
    80004558:	00175793          	srl	a5,a4,0x1
    8000455c:	00e7c2b3          	xor	t0,a5,a4
    80004560:	03e29f13          	sll	t5,t0,0x3e
    80004564:	016f7333          	and	t1,t5,s6
    80004568:	00f36633          	or	a2,t1,a5
    8000456c:	00165e13          	srl	t3,a2,0x1
    80004570:	00ce46b3          	xor	a3,t3,a2
    80004574:	03e69513          	sll	a0,a3,0x3e
    80004578:	01657cb3          	and	s9,a0,s6
    8000457c:	01cce5b3          	or	a1,s9,t3
    80004580:	0015d893          	srl	a7,a1,0x1
    80004584:	00b8cfb3          	xor	t6,a7,a1
    80004588:	03ef9793          	sll	a5,t6,0x3e
    8000458c:	0167f2b3          	and	t0,a5,s6
    80004590:	0112ecb3          	or	s9,t0,a7
    80004594:	d22c70d3          	fcvt.d.l	ft1,s8
    80004598:	d220f053          	fcvt.d.l	ft0,ra
    8000459c:	d223f553          	fcvt.d.l	fa0,t2
    800045a0:	d22875d3          	fcvt.d.l	fa1,a6
    800045a4:	d2277653          	fcvt.d.l	fa2,a4
    800045a8:	d22676d3          	fcvt.d.l	fa3,a2
    800045ac:	d225f753          	fcvt.d.l	fa4,a1
    800045b0:	d22cf7d3          	fcvt.d.l	fa5,s9
    800045b4:	001ab027          	fsd	ft1,0(s5)
    800045b8:	000ab427          	fsd	ft0,8(s5)
    800045bc:	00aab827          	fsd	fa0,16(s5)
    800045c0:	00babc27          	fsd	fa1,24(s5)
    800045c4:	02cab027          	fsd	fa2,32(s5)
    800045c8:	02dab427          	fsd	fa3,40(s5)
    800045cc:	02eab827          	fsd	fa4,48(s5)
    800045d0:	02fabc27          	fsd	fa5,56(s5)
    800045d4:	040a8a93          	add	s5,s5,64
    800045d8:	f1da9ee3          	bne	s5,t4,800044f4 <thread_entry+0x60>
    800045dc:	0c0a8e93          	add	t4,s5,192
    800045e0:	f17e98e3          	bne	t4,s7,800044f0 <thread_entry+0x5c>
    800045e4:	6a85                	lui	s5,0x1
    800045e6:	388a8b13          	add	s6,s5,904 # 1388 <buflen.1+0x1308>
    800045ea:	4b85                	li	s7,1
    800045ec:	0c898e93          	add	t4,s3,200
    800045f0:	01698f33          	add	t5,s3,s6
    800045f4:	03eb9313          	sll	t1,s7,0x3e
    800045f8:	001cdc13          	srl	s8,s9,0x1
    800045fc:	019c40b3          	xor	ra,s8,s9
    80004600:	03e09393          	sll	t2,ra,0x3e
    80004604:	0063f833          	and	a6,t2,t1
    80004608:	01886cb3          	or	s9,a6,s8
    8000460c:	d22cf153          	fcvt.d.l	ft2,s9
    80004610:	f40e8593          	add	a1,t4,-192
    80004614:	f22ebc27          	fsd	ft2,-200(t4)
    80004618:	001cd713          	srl	a4,s9,0x1
    8000461c:	01974633          	xor	a2,a4,s9
    80004620:	03e61e13          	sll	t3,a2,0x3e
    80004624:	006e76b3          	and	a3,t3,t1
    80004628:	00e6e2b3          	or	t0,a3,a4
    8000462c:	0012d513          	srl	a0,t0,0x1
    80004630:	005548b3          	xor	a7,a0,t0
    80004634:	03e89f93          	sll	t6,a7,0x3e
    80004638:	006ff7b3          	and	a5,t6,t1
    8000463c:	00a7eab3          	or	s5,a5,a0
    80004640:	001adb13          	srl	s6,s5,0x1
    80004644:	015b4bb3          	xor	s7,s6,s5
    80004648:	03eb9c13          	sll	s8,s7,0x3e
    8000464c:	006c70b3          	and	ra,s8,t1
    80004650:	0160e3b3          	or	t2,ra,s6
    80004654:	0013d813          	srl	a6,t2,0x1
    80004658:	00784cb3          	xor	s9,a6,t2
    8000465c:	03ec9713          	sll	a4,s9,0x3e
    80004660:	00677633          	and	a2,a4,t1
    80004664:	01066e33          	or	t3,a2,a6
    80004668:	001e5693          	srl	a3,t3,0x1
    8000466c:	01c6c533          	xor	a0,a3,t3
    80004670:	03e51893          	sll	a7,a0,0x3e
    80004674:	0068ffb3          	and	t6,a7,t1
    80004678:	00dfeb33          	or	s6,t6,a3
    8000467c:	001b5793          	srl	a5,s6,0x1
    80004680:	0167cbb3          	xor	s7,a5,s6
    80004684:	03eb9c13          	sll	s8,s7,0x3e
    80004688:	006c70b3          	and	ra,s8,t1
    8000468c:	00f0e833          	or	a6,ra,a5
    80004690:	00185c93          	srl	s9,a6,0x1
    80004694:	010cc733          	xor	a4,s9,a6
    80004698:	03e71613          	sll	a2,a4,0x3e
    8000469c:	006676b3          	and	a3,a2,t1
    800046a0:	0196e533          	or	a0,a3,s9
    800046a4:	00155893          	srl	a7,a0,0x1
    800046a8:	00a8cfb3          	xor	t6,a7,a0
    800046ac:	03ef9793          	sll	a5,t6,0x3e
    800046b0:	0067fbb3          	and	s7,a5,t1
    800046b4:	011becb3          	or	s9,s7,a7
    800046b8:	d222f1d3          	fcvt.d.l	ft3,t0
    800046bc:	d22af253          	fcvt.d.l	ft4,s5
    800046c0:	d223f2d3          	fcvt.d.l	ft5,t2
    800046c4:	d22e7353          	fcvt.d.l	ft6,t3
    800046c8:	d22b73d3          	fcvt.d.l	ft7,s6
    800046cc:	d2287853          	fcvt.d.l	fa6,a6
    800046d0:	d22578d3          	fcvt.d.l	fa7,a0
    800046d4:	d22cfe53          	fcvt.d.l	ft8,s9
    800046d8:	0035b027          	fsd	ft3,0(a1)
    800046dc:	0045b427          	fsd	ft4,8(a1)
    800046e0:	0055b827          	fsd	ft5,16(a1)
    800046e4:	0065bc27          	fsd	ft6,24(a1)
    800046e8:	0275b027          	fsd	ft7,32(a1)
    800046ec:	0305b427          	fsd	fa6,40(a1)
    800046f0:	0315b827          	fsd	fa7,48(a1)
    800046f4:	03c5bc27          	fsd	ft8,56(a1)
    800046f8:	04058593          	add	a1,a1,64
    800046fc:	f0be9ee3          	bne	t4,a1,80004618 <thread_entry+0x184>
    80004700:	0c8e8e93          	add	t4,t4,200
    80004704:	efee9ae3          	bne	t4,t5,800045f8 <thread_entry+0x164>
    80004708:	6585                	lui	a1,0x1
    8000470a:	2c058613          	add	a2,a1,704 # 12c0 <buflen.1+0x1240>
    8000470e:	8526                	mv	a0,s1
    80004710:	4581                	li	a1,0
    80004712:	744000ef          	jal	80004e56 <memset>
    80004716:	4aa1                	li	s5,8
    80004718:	4ce5                	li	s9,25
    8000471a:	b0202b73          	csrr	s6,minstret
    8000471e:	b0002c73          	csrr	s8,mcycle
    80004722:	4865                	li	a6,25
    80004724:	e066                	sd	s9,0(sp)
    80004726:	88a6                	mv	a7,s1
    80004728:	87ce                	mv	a5,s3
    8000472a:	4761                	li	a4,24
    8000472c:	86ca                	mv	a3,s2
    8000472e:	4661                	li	a2,24
    80004730:	45e5                	li	a1,25
    80004732:	4561                	li	a0,24
    80004734:	f44ff0ef          	jal	80003e78 <mm>
    80004738:	b0202bf3          	csrr	s7,minstret
    8000473c:	b0002373          	csrr	t1,mcycle
    80004740:	3afd                	addw	s5,s5,-1
    80004742:	fc0a9ce3          	bnez	s5,8000471a <thread_entry+0x286>
    80004746:	41830cb3          	sub	s9,t1,s8
    8000474a:	0ff0000f          	fence
    8000474e:	47e1                	li	a5,24
    80004750:	48e1                	li	a7,24
    80004752:	4865                	li	a6,25
    80004754:	4719                	li	a4,6
    80004756:	4695                	li	a3,5
    80004758:	4611                	li	a2,4
    8000475a:	85d2                	mv	a1,s4
    8000475c:	00001517          	auipc	a0,0x1
    80004760:	8fc50513          	add	a0,a0,-1796 # 80005058 <main+0x28>
    80004764:	5d0000ef          	jal	80004d34 <printf>
    80004768:	416b863b          	subw	a2,s7,s6
    8000476c:	85d2                	mv	a1,s4
    8000476e:	00001517          	auipc	a0,0x1
    80004772:	92250513          	add	a0,a0,-1758 # 80005090 <main+0x60>
    80004776:	5be000ef          	jal	80004d34 <printf>
    8000477a:	000c861b          	sext.w	a2,s9
    8000477e:	85d2                	mv	a1,s4
    80004780:	00001517          	auipc	a0,0x1
    80004784:	92850513          	add	a0,a0,-1752 # 800050a8 <main+0x78>
    80004788:	5ac000ef          	jal	80004d34 <printf>
    8000478c:	6f1d                	lui	t5,0x7
    8000478e:	080f0613          	add	a2,t5,128 # 7080 <buflen.1+0x7000>
    80004792:	85d2                	mv	a1,s4
    80004794:	00001517          	auipc	a0,0x1
    80004798:	92450513          	add	a0,a0,-1756 # 800050b8 <main+0x88>
    8000479c:	598000ef          	jal	80004d34 <printf>
    800047a0:	01b772b7          	lui	t0,0x1b77
    800047a4:	40028393          	add	t2,t0,1024 # 1b77400 <buflen.1+0x1b77380>
    800047a8:	0393d633          	divu	a2,t2,s9
    800047ac:	85d2                	mv	a1,s4
    800047ae:	00001517          	auipc	a0,0x1
    800047b2:	91a50513          	add	a0,a0,-1766 # 800050c8 <main+0x98>
    800047b6:	4b65                	li	s6,25
    800047b8:	57c000ef          	jal	80004d34 <printf>
    800047bc:	6e05                	lui	t3,0x1
    800047be:	787d                	lui	a6,0xfffff
    800047c0:	4601                	li	a2,0
    800047c2:	00001797          	auipc	a5,0x1
    800047c6:	8867bf87          	fld	ft11,-1914(a5) # 80005048 <main+0x18>
    800047ca:	00001797          	auipc	a5,0x1
    800047ce:	8867bf07          	fld	ft10,-1914(a5) # 80005050 <main+0x20>
    800047d2:	2c0e0c13          	add	s8,t3,704 # 12c0 <buflen.1+0x1240>
    800047d6:	d4080893          	add	a7,a6,-704 # ffffffffffffed40 <__global_pointer$+0xffffffff7fff94f8>
    800047da:	00161093          	sll	ra,a2,0x1
    800047de:	00c08733          	add	a4,ra,a2
    800047e2:	00671693          	sll	a3,a4,0x6
    800047e6:	00d90eb3          	add	t4,s2,a3
    800047ea:	01898fb3          	add	t6,s3,s8
    800047ee:	8526                	mv	a0,s1
    800047f0:	4681                	li	a3,0
    800047f2:	f2000ed3          	fmv.d.x	ft9,zero
    800047f6:	011f87b3          	add	a5,t6,a7
    800047fa:	85f6                	mv	a1,t4
    800047fc:	0005b087          	fld	ft1,0(a1)
    80004800:	2388                	fld	fa0,0(a5)
    80004802:	0085b007          	fld	ft0,8(a1)
    80004806:	27f4                	fld	fa3,200(a5)
    80004808:	eaa0f743          	fmadd.d	fa4,ft1,fa0,ft9
    8000480c:	0105b387          	fld	ft7,16(a1)
    80004810:	1907b307          	fld	ft6,400(a5)
    80004814:	2d8c                	fld	fa1,24(a1)
    80004816:	2587b287          	fld	ft5,600(a5)
    8000481a:	3190                	fld	fa2,32(a1)
    8000481c:	3207b207          	fld	ft4,800(a5)
    80004820:	72d07843          	fmadd.d	fa6,ft0,fa3,fa4
    80004824:	0285b887          	fld	fa7,40(a1)
    80004828:	3e87b187          	fld	ft3,1000(a5)
    8000482c:	0305be07          	fld	ft8,48(a1)
    80004830:	4b07b107          	fld	ft2,1200(a5)
    80004834:	3d9c                	fld	fa5,56(a1)
    80004836:	5787be87          	fld	ft9,1400(a5)
    8000483a:	8263f0c3          	fmadd.d	ft1,ft7,ft6,fa6
    8000483e:	64078793          	add	a5,a5,1600
    80004842:	04058593          	add	a1,a1,64
    80004846:	0a55f543          	fmadd.d	fa0,fa1,ft5,ft1
    8000484a:	52467043          	fmadd.d	ft0,fa2,ft4,fa0
    8000484e:	0238f6c3          	fmadd.d	fa3,fa7,ft3,ft0
    80004852:	6a2e7743          	fmadd.d	fa4,ft8,ft2,fa3
    80004856:	73d7fec3          	fmadd.d	ft9,fa5,ft9,fa4
    8000485a:	faff91e3          	bne	t6,a5,800047fc <thread_entry+0x368>
    8000485e:	13fef3d3          	fmul.d	ft7,ft9,ft11
    80004862:	00053307          	fld	ft6,0(a0)
    80004866:	13e3f5d3          	fmul.d	fa1,ft7,ft10
    8000486a:	0a7372d3          	fsub.d	ft5,ft6,ft7
    8000486e:	22b5a653          	fabs.d	fa2,fa1
    80004872:	2252a253          	fabs.d	ft4,ft5
    80004876:	a2461bd3          	flt.d	s7,fa2,ft4
    8000487a:	020b9363          	bnez	s7,800048a0 <thread_entry+0x40c>
    8000487e:	0685                	add	a3,a3,1
    80004880:	0521                	add	a0,a0,8
    80004882:	0fa1                	add	t6,t6,8
    80004884:	f76697e3          	bne	a3,s6,800047f2 <thread_entry+0x35e>
    80004888:	0605                	add	a2,a2,1
    8000488a:	4361                	li	t1,24
    8000488c:	0c848493          	add	s1,s1,200
    80004890:	f46615e3          	bne	a2,t1,800047da <thread_entry+0x346>
    80004894:	856a                	mv	a0,s10
    80004896:	bb7ff0ef          	jal	8000444c <barrier>
    8000489a:	4501                	li	a0,0
    8000489c:	3e2000ef          	jal	80004c7e <exit>
    800048a0:	e20387d3          	fmv.x.d	a5,ft7
    800048a4:	e2030753          	fmv.x.d	a4,ft6
    800048a8:	85d2                	mv	a1,s4
    800048aa:	00001517          	auipc	a0,0x1
    800048ae:	83650513          	add	a0,a0,-1994 # 800050e0 <main+0xb0>
    800048b2:	482000ef          	jal	80004d34 <printf>
    800048b6:	4505                	li	a0,1
    800048b8:	3c6000ef          	jal	80004c7e <exit>

00000000800048bc <vprintfmt>:
    800048bc:	7149                	add	sp,sp,-368
    800048be:	f2a2                	sd	s0,352(sp)
    800048c0:	eea6                	sd	s1,344(sp)
    800048c2:	eaca                	sd	s2,336(sp)
    800048c4:	e2d2                	sd	s4,320(sp)
    800048c6:	fe56                	sd	s5,312(sp)
    800048c8:	fa5a                	sd	s6,304(sp)
    800048ca:	f65e                	sd	s7,296(sp)
    800048cc:	f686                	sd	ra,360(sp)
    800048ce:	e6ce                	sd	s3,328(sp)
    800048d0:	f262                	sd	s8,288(sp)
    800048d2:	ee66                	sd	s9,280(sp)
    800048d4:	e66e                	sd	s11,264(sp)
    800048d6:	892a                	mv	s2,a0
    800048d8:	84ae                	mv	s1,a1
    800048da:	8432                	mv	s0,a2
    800048dc:	8bb6                	mv	s7,a3
    800048de:	02500a13          	li	s4,37
    800048e2:	05500b13          	li	s6,85
    800048e6:	8fc18a93          	add	s5,gp,-1796 # 80005144 <main+0x114>
    800048ea:	a029                	j	800048f4 <vprintfmt+0x38>
    800048ec:	cd1d                	beqz	a0,8000492a <vprintfmt+0x6e>
    800048ee:	85a6                	mv	a1,s1
    800048f0:	0405                	add	s0,s0,1
    800048f2:	9902                	jalr	s2
    800048f4:	00044503          	lbu	a0,0(s0)
    800048f8:	ff451ae3          	bne	a0,s4,800048ec <vprintfmt+0x30>
    800048fc:	00144683          	lbu	a3,1(s0)
    80004900:	00140993          	add	s3,s0,1
    80004904:	874e                	mv	a4,s3
    80004906:	02000c93          	li	s9,32
    8000490a:	5c7d                	li	s8,-1
    8000490c:	5dfd                	li	s11,-1
    8000490e:	4581                	li	a1,0
    80004910:	fdd6879b          	addw	a5,a3,-35
    80004914:	0ff7f793          	zext.b	a5,a5
    80004918:	00170413          	add	s0,a4,1
    8000491c:	04fb6163          	bltu	s6,a5,8000495e <vprintfmt+0xa2>
    80004920:	078a                	sll	a5,a5,0x2
    80004922:	97d6                	add	a5,a5,s5
    80004924:	439c                	lw	a5,0(a5)
    80004926:	97d6                	add	a5,a5,s5
    80004928:	8782                	jr	a5
    8000492a:	70b6                	ld	ra,360(sp)
    8000492c:	7416                	ld	s0,352(sp)
    8000492e:	64f6                	ld	s1,344(sp)
    80004930:	6956                	ld	s2,336(sp)
    80004932:	69b6                	ld	s3,328(sp)
    80004934:	6a16                	ld	s4,320(sp)
    80004936:	7af2                	ld	s5,312(sp)
    80004938:	7b52                	ld	s6,304(sp)
    8000493a:	7bb2                	ld	s7,296(sp)
    8000493c:	7c12                	ld	s8,288(sp)
    8000493e:	6cf2                	ld	s9,280(sp)
    80004940:	6db2                	ld	s11,264(sp)
    80004942:	6175                	add	sp,sp,368
    80004944:	8082                	ret
    80004946:	8cb6                	mv	s9,a3
    80004948:	00174683          	lbu	a3,1(a4)
    8000494c:	8722                	mv	a4,s0
    8000494e:	00170413          	add	s0,a4,1
    80004952:	fdd6879b          	addw	a5,a3,-35
    80004956:	0ff7f793          	zext.b	a5,a5
    8000495a:	fcfb73e3          	bgeu	s6,a5,80004920 <vprintfmt+0x64>
    8000495e:	85a6                	mv	a1,s1
    80004960:	02500513          	li	a0,37
    80004964:	9902                	jalr	s2
    80004966:	844e                	mv	s0,s3
    80004968:	b771                	j	800048f4 <vprintfmt+0x38>
    8000496a:	fd068c1b          	addw	s8,a3,-48
    8000496e:	00174683          	lbu	a3,1(a4)
    80004972:	47a5                	li	a5,9
    80004974:	fd06871b          	addw	a4,a3,-48
    80004978:	0006861b          	sext.w	a2,a3
    8000497c:	20e7ef63          	bltu	a5,a4,80004b9a <vprintfmt+0x2de>
    80004980:	8722                	mv	a4,s0
    80004982:	4825                	li	a6,9
    80004984:	00174683          	lbu	a3,1(a4)
    80004988:	002c179b          	sllw	a5,s8,0x2
    8000498c:	018787bb          	addw	a5,a5,s8
    80004990:	0017979b          	sllw	a5,a5,0x1
    80004994:	9fb1                	addw	a5,a5,a2
    80004996:	fd06851b          	addw	a0,a3,-48
    8000499a:	0705                	add	a4,a4,1
    8000499c:	fd078c1b          	addw	s8,a5,-48
    800049a0:	0006861b          	sext.w	a2,a3
    800049a4:	fea870e3          	bgeu	a6,a0,80004984 <vprintfmt+0xc8>
    800049a8:	f60dd4e3          	bgez	s11,80004910 <vprintfmt+0x54>
    800049ac:	8de2                	mv	s11,s8
    800049ae:	5c7d                	li	s8,-1
    800049b0:	b785                	j	80004910 <vprintfmt+0x54>
    800049b2:	00174683          	lbu	a3,1(a4)
    800049b6:	8722                	mv	a4,s0
    800049b8:	bfa1                	j	80004910 <vprintfmt+0x54>
    800049ba:	85a6                	mv	a1,s1
    800049bc:	02500513          	li	a0,37
    800049c0:	9902                	jalr	s2
    800049c2:	bf0d                	j	800048f4 <vprintfmt+0x38>
    800049c4:	000bac03          	lw	s8,0(s7)
    800049c8:	00174683          	lbu	a3,1(a4)
    800049cc:	0ba1                	add	s7,s7,8
    800049ce:	8722                	mv	a4,s0
    800049d0:	bfe1                	j	800049a8 <vprintfmt+0xec>
    800049d2:	85a6                	mv	a1,s1
    800049d4:	03000513          	li	a0,48
    800049d8:	ea6a                	sd	s10,272(sp)
    800049da:	9902                	jalr	s2
    800049dc:	85a6                	mv	a1,s1
    800049de:	07800513          	li	a0,120
    800049e2:	9902                	jalr	s2
    800049e4:	4641                	li	a2,16
    800049e6:	008b8713          	add	a4,s7,8
    800049ea:	000bb783          	ld	a5,0(s7)
    800049ee:	8bba                	mv	s7,a4
    800049f0:	02c7f5b3          	remu	a1,a5,a2
    800049f4:	000c899b          	sext.w	s3,s9
    800049f8:	0054                	add	a3,sp,4
    800049fa:	4705                	li	a4,1
    800049fc:	c02e                	sw	a1,0(sp)
    800049fe:	16c7ea63          	bltu	a5,a2,80004b72 <vprintfmt+0x2b6>
    80004a02:	02c7d7b3          	divu	a5,a5,a2
    80004a06:	0691                	add	a3,a3,4
    80004a08:	8c3a                	mv	s8,a4
    80004a0a:	2705                	addw	a4,a4,1
    80004a0c:	02c7f5b3          	remu	a1,a5,a2
    80004a10:	feb6ae23          	sw	a1,-4(a3)
    80004a14:	fec7f7e3          	bgeu	a5,a2,80004a02 <vprintfmt+0x146>
    80004a18:	fffd8c9b          	addw	s9,s11,-1
    80004a1c:	fff70d1b          	addw	s10,a4,-1
    80004a20:	01b75863          	bge	a4,s11,80004a30 <vprintfmt+0x174>
    80004a24:	85a6                	mv	a1,s1
    80004a26:	854e                	mv	a0,s3
    80004a28:	3cfd                	addw	s9,s9,-1
    80004a2a:	9902                	jalr	s2
    80004a2c:	ffac9ce3          	bne	s9,s10,80004a24 <vprintfmt+0x168>
    80004a30:	0c0a                	sll	s8,s8,0x2
    80004a32:	018109b3          	add	s3,sp,s8
    80004a36:	ffc10c93          	add	s9,sp,-4
    80004a3a:	4c25                	li	s8,9
    80004a3c:	0009a783          	lw	a5,0(s3)
    80004a40:	03000513          	li	a0,48
    80004a44:	00fc7463          	bgeu	s8,a5,80004a4c <vprintfmt+0x190>
    80004a48:	05700513          	li	a0,87
    80004a4c:	85a6                	mv	a1,s1
    80004a4e:	9d3d                	addw	a0,a0,a5
    80004a50:	19f1                	add	s3,s3,-4
    80004a52:	9902                	jalr	s2
    80004a54:	ff9994e3          	bne	s3,s9,80004a3c <vprintfmt+0x180>
    80004a58:	6d52                	ld	s10,272(sp)
    80004a5a:	bd69                	j	800048f4 <vprintfmt+0x38>
    80004a5c:	ea6a                	sd	s10,272(sp)
    80004a5e:	4785                	li	a5,1
    80004a60:	008b8c13          	add	s8,s7,8
    80004a64:	00b7c463          	blt	a5,a1,80004a6c <vprintfmt+0x1b0>
    80004a68:	10058763          	beqz	a1,80004b76 <vprintfmt+0x2ba>
    80004a6c:	000bb983          	ld	s3,0(s7)
    80004a70:	1009cc63          	bltz	s3,80004b88 <vprintfmt+0x2cc>
    80004a74:	87ce                	mv	a5,s3
    80004a76:	8be2                	mv	s7,s8
    80004a78:	4629                	li	a2,10
    80004a7a:	bf9d                	j	800049f0 <vprintfmt+0x134>
    80004a7c:	00174683          	lbu	a3,1(a4)
    80004a80:	2585                	addw	a1,a1,1
    80004a82:	8722                	mv	a4,s0
    80004a84:	b571                	j	80004910 <vprintfmt+0x54>
    80004a86:	ea6a                	sd	s10,272(sp)
    80004a88:	4641                	li	a2,16
    80004a8a:	4785                	li	a5,1
    80004a8c:	008b8713          	add	a4,s7,8
    80004a90:	f4b7cde3          	blt	a5,a1,800049ea <vprintfmt+0x12e>
    80004a94:	f9b9                	bnez	a1,800049ea <vprintfmt+0x12e>
    80004a96:	000be783          	lwu	a5,0(s7)
    80004a9a:	8bba                	mv	s7,a4
    80004a9c:	bf91                	j	800049f0 <vprintfmt+0x134>
    80004a9e:	ea6a                	sd	s10,272(sp)
    80004aa0:	000bbd03          	ld	s10,0(s7)
    80004aa4:	0ba1                	add	s7,s7,8
    80004aa6:	040d0363          	beqz	s10,80004aec <vprintfmt+0x230>
    80004aaa:	09b05e63          	blez	s11,80004b46 <vprintfmt+0x28a>
    80004aae:	02d00793          	li	a5,45
    80004ab2:	04fc9f63          	bne	s9,a5,80004b10 <vprintfmt+0x254>
    80004ab6:	000d4503          	lbu	a0,0(s10)
    80004aba:	c105                	beqz	a0,80004ada <vprintfmt+0x21e>
    80004abc:	59fd                	li	s3,-1
    80004abe:	000c4563          	bltz	s8,80004ac8 <vprintfmt+0x20c>
    80004ac2:	3c7d                	addw	s8,s8,-1
    80004ac4:	013c0963          	beq	s8,s3,80004ad6 <vprintfmt+0x21a>
    80004ac8:	85a6                	mv	a1,s1
    80004aca:	9902                	jalr	s2
    80004acc:	001d4503          	lbu	a0,1(s10)
    80004ad0:	3dfd                	addw	s11,s11,-1
    80004ad2:	0d05                	add	s10,s10,1
    80004ad4:	f56d                	bnez	a0,80004abe <vprintfmt+0x202>
    80004ad6:	f9b051e3          	blez	s11,80004a58 <vprintfmt+0x19c>
    80004ada:	85a6                	mv	a1,s1
    80004adc:	02000513          	li	a0,32
    80004ae0:	3dfd                	addw	s11,s11,-1
    80004ae2:	9902                	jalr	s2
    80004ae4:	fe0d9be3          	bnez	s11,80004ada <vprintfmt+0x21e>
    80004ae8:	6d52                	ld	s10,272(sp)
    80004aea:	b529                	j	800048f4 <vprintfmt+0x38>
    80004aec:	00000d17          	auipc	s10,0x0
    80004af0:	614d0d13          	add	s10,s10,1556 # 80005100 <main+0xd0>
    80004af4:	02800513          	li	a0,40
    80004af8:	fdb052e3          	blez	s11,80004abc <vprintfmt+0x200>
    80004afc:	02d00793          	li	a5,45
    80004b00:	00000d17          	auipc	s10,0x0
    80004b04:	600d0d13          	add	s10,s10,1536 # 80005100 <main+0xd0>
    80004b08:	02800513          	li	a0,40
    80004b0c:	fafc88e3          	beq	s9,a5,80004abc <vprintfmt+0x200>
    80004b10:	000d861b          	sext.w	a2,s11
    80004b14:	87ea                	mv	a5,s10
    80004b16:	018d06b3          	add	a3,s10,s8
    80004b1a:	000c1663          	bnez	s8,80004b26 <vprintfmt+0x26a>
    80004b1e:	a829                	j	80004b38 <vprintfmt+0x27c>
    80004b20:	0785                	add	a5,a5,1
    80004b22:	00d78563          	beq	a5,a3,80004b2c <vprintfmt+0x270>
    80004b26:	0007c703          	lbu	a4,0(a5)
    80004b2a:	fb7d                	bnez	a4,80004b20 <vprintfmt+0x264>
    80004b2c:	41a787b3          	sub	a5,a5,s10
    80004b30:	40f60dbb          	subw	s11,a2,a5
    80004b34:	01b05963          	blez	s11,80004b46 <vprintfmt+0x28a>
    80004b38:	2c81                	sext.w	s9,s9
    80004b3a:	85a6                	mv	a1,s1
    80004b3c:	8566                	mv	a0,s9
    80004b3e:	3dfd                	addw	s11,s11,-1
    80004b40:	9902                	jalr	s2
    80004b42:	fe0d9ce3          	bnez	s11,80004b3a <vprintfmt+0x27e>
    80004b46:	000d4503          	lbu	a0,0(s10)
    80004b4a:	d519                	beqz	a0,80004a58 <vprintfmt+0x19c>
    80004b4c:	59fd                	li	s3,-1
    80004b4e:	bf85                	j	80004abe <vprintfmt+0x202>
    80004b50:	fffdc793          	not	a5,s11
    80004b54:	97fd                	sra	a5,a5,0x3f
    80004b56:	00fdf7b3          	and	a5,s11,a5
    80004b5a:	00174683          	lbu	a3,1(a4)
    80004b5e:	00078d9b          	sext.w	s11,a5
    80004b62:	8722                	mv	a4,s0
    80004b64:	b375                	j	80004910 <vprintfmt+0x54>
    80004b66:	000ba503          	lw	a0,0(s7)
    80004b6a:	85a6                	mv	a1,s1
    80004b6c:	0ba1                	add	s7,s7,8
    80004b6e:	9902                	jalr	s2
    80004b70:	b351                	j	800048f4 <vprintfmt+0x38>
    80004b72:	4c01                	li	s8,0
    80004b74:	b555                	j	80004a18 <vprintfmt+0x15c>
    80004b76:	000ba983          	lw	s3,0(s7)
    80004b7a:	bddd                	j	80004a70 <vprintfmt+0x1b4>
    80004b7c:	ea6a                	sd	s10,272(sp)
    80004b7e:	4629                	li	a2,10
    80004b80:	b729                	j	80004a8a <vprintfmt+0x1ce>
    80004b82:	ea6a                	sd	s10,272(sp)
    80004b84:	4621                	li	a2,8
    80004b86:	b711                	j	80004a8a <vprintfmt+0x1ce>
    80004b88:	85a6                	mv	a1,s1
    80004b8a:	02d00513          	li	a0,45
    80004b8e:	9902                	jalr	s2
    80004b90:	413007b3          	neg	a5,s3
    80004b94:	8be2                	mv	s7,s8
    80004b96:	4629                	li	a2,10
    80004b98:	bda1                	j	800049f0 <vprintfmt+0x134>
    80004b9a:	8722                	mv	a4,s0
    80004b9c:	b531                	j	800049a8 <vprintfmt+0xec>

0000000080004b9e <sprintf_putch.0>:
    80004b9e:	619c                	ld	a5,0(a1)
    80004ba0:	00a78023          	sb	a0,0(a5)
    80004ba4:	619c                	ld	a5,0(a1)
    80004ba6:	0785                	add	a5,a5,1
    80004ba8:	e19c                	sd	a5,0(a1)
    80004baa:	8082                	ret

0000000080004bac <putchar>:
    80004bac:	08022803          	lw	a6,128(tp) # 80 <buflen.1>
    80004bb0:	04020793          	add	a5,tp,64 # 40 <buf.2>
    80004bb4:	97c2                	add	a5,a5,a6
    80004bb6:	7159                	add	sp,sp,-112
    80004bb8:	0018069b          	addw	a3,a6,1
    80004bbc:	08d22023          	sw	a3,128(tp) # 80 <buflen.1>
    80004bc0:	00a78023          	sb	a0,0(a5)
    80004bc4:	03f10713          	add	a4,sp,63
    80004bc8:	47a9                	li	a5,10
    80004bca:	fc077713          	and	a4,a4,-64
    80004bce:	00f50963          	beq	a0,a5,80004be0 <putchar+0x34>
    80004bd2:	04000793          	li	a5,64
    80004bd6:	00f68563          	beq	a3,a5,80004be0 <putchar+0x34>
    80004bda:	4501                	li	a0,0
    80004bdc:	6165                	add	sp,sp,112
    80004bde:	8082                	ret
    80004be0:	04000793          	li	a5,64
    80004be4:	e31c                	sd	a5,0(a4)
    80004be6:	4785                	li	a5,1
    80004be8:	e71c                	sd	a5,8(a4)
    80004bea:	04020613          	add	a2,tp,64 # 40 <buf.2>
    80004bee:	eb10                	sd	a2,16(a4)
    80004bf0:	ef14                	sd	a3,24(a4)
    80004bf2:	0ff0000f          	fence
    80004bf6:	ffffc697          	auipc	a3,0xffffc
    80004bfa:	44a68693          	add	a3,a3,1098 # 80001040 <fromhost>
    80004bfe:	ffffc797          	auipc	a5,0xffffc
    80004c02:	40e7b123          	sd	a4,1026(a5) # 80001000 <tohost>
    80004c06:	629c                	ld	a5,0(a3)
    80004c08:	dffd                	beqz	a5,80004c06 <putchar+0x5a>
    80004c0a:	ffffc797          	auipc	a5,0xffffc
    80004c0e:	4207bb23          	sd	zero,1078(a5) # 80001040 <fromhost>
    80004c12:	0ff0000f          	fence
    80004c16:	08022023          	sw	zero,128(tp) # 80 <buflen.1>
    80004c1a:	631c                	ld	a5,0(a4)
    80004c1c:	4501                	li	a0,0
    80004c1e:	6165                	add	sp,sp,112
    80004c20:	8082                	ret

0000000080004c22 <setStats>:
    80004c22:	b0002773          	csrr	a4,mcycle
    80004c26:	a6018793          	add	a5,gp,-1440 # 800052a8 <counters>
    80004c2a:	c511                	beqz	a0,80004c36 <setStats+0x14>
    80004c2c:	e398                	sd	a4,0(a5)
    80004c2e:	b0202773          	csrr	a4,minstret
    80004c32:	e798                	sd	a4,8(a5)
    80004c34:	8082                	ret
    80004c36:	6394                	ld	a3,0(a5)
    80004c38:	00000617          	auipc	a2,0x0
    80004c3c:	4d060613          	add	a2,a2,1232 # 80005108 <main+0xd8>
    80004c40:	eb90                	sd	a2,16(a5)
    80004c42:	8f15                	sub	a4,a4,a3
    80004c44:	e398                	sd	a4,0(a5)
    80004c46:	b0202773          	csrr	a4,minstret
    80004c4a:	6794                	ld	a3,8(a5)
    80004c4c:	00000617          	auipc	a2,0x0
    80004c50:	4c460613          	add	a2,a2,1220 # 80005110 <main+0xe0>
    80004c54:	ef90                	sd	a2,24(a5)
    80004c56:	8f15                	sub	a4,a4,a3
    80004c58:	e798                	sd	a4,8(a5)
    80004c5a:	8082                	ret

0000000080004c5c <tohost_exit>:
    80004c5c:	00151793          	sll	a5,a0,0x1
    80004c60:	0017e793          	or	a5,a5,1
    80004c64:	ffffc717          	auipc	a4,0xffffc
    80004c68:	38f73e23          	sd	a5,924(a4) # 80001000 <tohost>
    80004c6c:	a001                	j	80004c6c <tohost_exit+0x10>

0000000080004c6e <handle_trap>:
    80004c6e:	6785                	lui	a5,0x1
    80004c70:	a7378793          	add	a5,a5,-1421 # a73 <buflen.1+0x9f3>
    80004c74:	ffffc717          	auipc	a4,0xffffc
    80004c78:	38f73623          	sd	a5,908(a4) # 80001000 <tohost>
    80004c7c:	a001                	j	80004c7c <handle_trap+0xe>

0000000080004c7e <exit>:
    80004c7e:	1141                	add	sp,sp,-16
    80004c80:	e406                	sd	ra,8(sp)
    80004c82:	fdbff0ef          	jal	80004c5c <tohost_exit>

0000000080004c86 <abort>:
    80004c86:	10d00793          	li	a5,269
    80004c8a:	ffffc717          	auipc	a4,0xffffc
    80004c8e:	36f73b23          	sd	a5,886(a4) # 80001000 <tohost>
    80004c92:	a001                	j	80004c92 <abort+0xc>

0000000080004c94 <printstr>:
    80004c94:	00054783          	lbu	a5,0(a0)
    80004c98:	7159                	add	sp,sp,-112
    80004c9a:	03f10693          	add	a3,sp,63
    80004c9e:	fc06f693          	and	a3,a3,-64
    80004ca2:	c3b9                	beqz	a5,80004ce8 <printstr+0x54>
    80004ca4:	87aa                	mv	a5,a0
    80004ca6:	0017c703          	lbu	a4,1(a5)
    80004caa:	0785                	add	a5,a5,1
    80004cac:	ff6d                	bnez	a4,80004ca6 <printstr+0x12>
    80004cae:	8f89                	sub	a5,a5,a0
    80004cb0:	04000713          	li	a4,64
    80004cb4:	e298                	sd	a4,0(a3)
    80004cb6:	4705                	li	a4,1
    80004cb8:	e698                	sd	a4,8(a3)
    80004cba:	ea88                	sd	a0,16(a3)
    80004cbc:	ee9c                	sd	a5,24(a3)
    80004cbe:	0ff0000f          	fence
    80004cc2:	ffffc717          	auipc	a4,0xffffc
    80004cc6:	37e70713          	add	a4,a4,894 # 80001040 <fromhost>
    80004cca:	ffffc797          	auipc	a5,0xffffc
    80004cce:	32d7bb23          	sd	a3,822(a5) # 80001000 <tohost>
    80004cd2:	631c                	ld	a5,0(a4)
    80004cd4:	dffd                	beqz	a5,80004cd2 <printstr+0x3e>
    80004cd6:	ffffc797          	auipc	a5,0xffffc
    80004cda:	3607b523          	sd	zero,874(a5) # 80001040 <fromhost>
    80004cde:	0ff0000f          	fence
    80004ce2:	629c                	ld	a5,0(a3)
    80004ce4:	6165                	add	sp,sp,112
    80004ce6:	8082                	ret
    80004ce8:	4781                	li	a5,0
    80004cea:	b7d9                	j	80004cb0 <printstr+0x1c>
    80004cec:	c111                	beqz	a0,80004cf0 <printstr+0x5c>
    80004cee:	a001                	j	80004cee <printstr+0x5a>
    80004cf0:	8082                	ret

0000000080004cf2 <printhex>:
    80004cf2:	7179                	add	sp,sp,-48
    80004cf4:	87aa                	mv	a5,a0
    80004cf6:	f406                	sd	ra,40(sp)
    80004cf8:	0028                	add	a0,sp,8
    80004cfa:	01710713          	add	a4,sp,23
    80004cfe:	4825                	li	a6,9
    80004d00:	a011                	j	80004d04 <printhex+0x12>
    80004d02:	8736                	mv	a4,a3
    80004d04:	00f7f613          	and	a2,a5,15
    80004d08:	86b2                	mv	a3,a2
    80004d0a:	03000593          	li	a1,48
    80004d0e:	00c87463          	bgeu	a6,a2,80004d16 <printhex+0x24>
    80004d12:	05700593          	li	a1,87
    80004d16:	9ead                	addw	a3,a3,a1
    80004d18:	00d70023          	sb	a3,0(a4)
    80004d1c:	8391                	srl	a5,a5,0x4
    80004d1e:	fff70693          	add	a3,a4,-1
    80004d22:	fee510e3          	bne	a0,a4,80004d02 <printhex+0x10>
    80004d26:	00010c23          	sb	zero,24(sp)
    80004d2a:	f6bff0ef          	jal	80004c94 <printstr>
    80004d2e:	70a2                	ld	ra,40(sp)
    80004d30:	6145                	add	sp,sp,48
    80004d32:	8082                	ret

0000000080004d34 <printf>:
    80004d34:	711d                	add	sp,sp,-96
    80004d36:	02810313          	add	t1,sp,40
    80004d3a:	f42e                	sd	a1,40(sp)
    80004d3c:	f832                	sd	a2,48(sp)
    80004d3e:	fc36                	sd	a3,56(sp)
    80004d40:	862a                	mv	a2,a0
    80004d42:	869a                	mv	a3,t1
    80004d44:	00000517          	auipc	a0,0x0
    80004d48:	e6850513          	add	a0,a0,-408 # 80004bac <putchar>
    80004d4c:	4581                	li	a1,0
    80004d4e:	ec06                	sd	ra,24(sp)
    80004d50:	e0ba                	sd	a4,64(sp)
    80004d52:	e4be                	sd	a5,72(sp)
    80004d54:	e8c2                	sd	a6,80(sp)
    80004d56:	ecc6                	sd	a7,88(sp)
    80004d58:	e41a                	sd	t1,8(sp)
    80004d5a:	b63ff0ef          	jal	800048bc <vprintfmt>
    80004d5e:	60e2                	ld	ra,24(sp)
    80004d60:	4501                	li	a0,0
    80004d62:	6125                	add	sp,sp,96
    80004d64:	8082                	ret

0000000080004d66 <sprintf>:
    80004d66:	711d                	add	sp,sp,-96
    80004d68:	03010e13          	add	t3,sp,48
    80004d6c:	f022                	sd	s0,32(sp)
    80004d6e:	e42a                	sd	a0,8(sp)
    80004d70:	842a                	mv	s0,a0
    80004d72:	f832                	sd	a2,48(sp)
    80004d74:	fc36                	sd	a3,56(sp)
    80004d76:	862e                	mv	a2,a1
    80004d78:	00000517          	auipc	a0,0x0
    80004d7c:	e2650513          	add	a0,a0,-474 # 80004b9e <sprintf_putch.0>
    80004d80:	002c                	add	a1,sp,8
    80004d82:	86f2                	mv	a3,t3
    80004d84:	f406                	sd	ra,40(sp)
    80004d86:	e4be                	sd	a5,72(sp)
    80004d88:	e0ba                	sd	a4,64(sp)
    80004d8a:	e8c2                	sd	a6,80(sp)
    80004d8c:	ecc6                	sd	a7,88(sp)
    80004d8e:	ec72                	sd	t3,24(sp)
    80004d90:	b2dff0ef          	jal	800048bc <vprintfmt>
    80004d94:	67a2                	ld	a5,8(sp)
    80004d96:	00078023          	sb	zero,0(a5)
    80004d9a:	6522                	ld	a0,8(sp)
    80004d9c:	70a2                	ld	ra,40(sp)
    80004d9e:	9d01                	subw	a0,a0,s0
    80004da0:	7402                	ld	s0,32(sp)
    80004da2:	6125                	add	sp,sp,96
    80004da4:	8082                	ret

0000000080004da6 <memcpy>:
    80004da6:	00c5e7b3          	or	a5,a1,a2
    80004daa:	8fc9                	or	a5,a5,a0
    80004dac:	8b9d                	and	a5,a5,7
    80004dae:	00c50833          	add	a6,a0,a2
    80004db2:	cf91                	beqz	a5,80004dce <memcpy+0x28>
    80004db4:	962e                	add	a2,a2,a1
    80004db6:	87aa                	mv	a5,a0
    80004db8:	09057c63          	bgeu	a0,a6,80004e50 <memcpy+0xaa>
    80004dbc:	0005c703          	lbu	a4,0(a1)
    80004dc0:	0585                	add	a1,a1,1
    80004dc2:	0785                	add	a5,a5,1
    80004dc4:	fee78fa3          	sb	a4,-1(a5)
    80004dc8:	fec59ae3          	bne	a1,a2,80004dbc <memcpy+0x16>
    80004dcc:	8082                	ret
    80004dce:	04050693          	add	a3,a0,64
    80004dd2:	0906f063          	bgeu	a3,a6,80004e52 <memcpy+0xac>
    80004dd6:	87b6                	mv	a5,a3
    80004dd8:	872e                	mv	a4,a1
    80004dda:	00073383          	ld	t2,0(a4)
    80004dde:	00873283          	ld	t0,8(a4)
    80004de2:	01073f83          	ld	t6,16(a4)
    80004de6:	01873f03          	ld	t5,24(a4)
    80004dea:	02073e83          	ld	t4,32(a4)
    80004dee:	02873e03          	ld	t3,40(a4)
    80004df2:	03073303          	ld	t1,48(a4)
    80004df6:	03873883          	ld	a7,56(a4)
    80004dfa:	04078793          	add	a5,a5,64
    80004dfe:	f877b023          	sd	t2,-128(a5)
    80004e02:	f857b423          	sd	t0,-120(a5)
    80004e06:	f9f7b823          	sd	t6,-112(a5)
    80004e0a:	f9e7bc23          	sd	t5,-104(a5)
    80004e0e:	fbd7b023          	sd	t4,-96(a5)
    80004e12:	fbc7b423          	sd	t3,-88(a5)
    80004e16:	fa67b823          	sd	t1,-80(a5)
    80004e1a:	fb17bc23          	sd	a7,-72(a5)
    80004e1e:	04070713          	add	a4,a4,64
    80004e22:	fb07ece3          	bltu	a5,a6,80004dda <memcpy+0x34>
    80004e26:	fbf60613          	add	a2,a2,-65
    80004e2a:	fc067793          	and	a5,a2,-64
    80004e2e:	04078793          	add	a5,a5,64
    80004e32:	fc067613          	and	a2,a2,-64
    80004e36:	95be                	add	a1,a1,a5
    80004e38:	00c687b3          	add	a5,a3,a2
    80004e3c:	f907f8e3          	bgeu	a5,a6,80004dcc <memcpy+0x26>
    80004e40:	6198                	ld	a4,0(a1)
    80004e42:	07a1                	add	a5,a5,8
    80004e44:	05a1                	add	a1,a1,8
    80004e46:	fee7bc23          	sd	a4,-8(a5)
    80004e4a:	ff07ebe3          	bltu	a5,a6,80004e40 <memcpy+0x9a>
    80004e4e:	8082                	ret
    80004e50:	8082                	ret
    80004e52:	87aa                	mv	a5,a0
    80004e54:	b7e5                	j	80004e3c <memcpy+0x96>

0000000080004e56 <memset>:
    80004e56:	00c567b3          	or	a5,a0,a2
    80004e5a:	8b9d                	and	a5,a5,7
    80004e5c:	962a                	add	a2,a2,a0
    80004e5e:	cf81                	beqz	a5,80004e76 <memset+0x20>
    80004e60:	0ff5f713          	zext.b	a4,a1
    80004e64:	87aa                	mv	a5,a0
    80004e66:	02c57f63          	bgeu	a0,a2,80004ea4 <memset+0x4e>
    80004e6a:	0785                	add	a5,a5,1
    80004e6c:	fee78fa3          	sb	a4,-1(a5)
    80004e70:	fec79de3          	bne	a5,a2,80004e6a <memset+0x14>
    80004e74:	8082                	ret
    80004e76:	010107b7          	lui	a5,0x1010
    80004e7a:	10178793          	add	a5,a5,257 # 1010101 <buflen.1+0x1010081>
    80004e7e:	07c2                	sll	a5,a5,0x10
    80004e80:	10178793          	add	a5,a5,257
    80004e84:	07c2                	sll	a5,a5,0x10
    80004e86:	0ff5f713          	zext.b	a4,a1
    80004e8a:	10178793          	add	a5,a5,257
    80004e8e:	02f70733          	mul	a4,a4,a5
    80004e92:	fec571e3          	bgeu	a0,a2,80004e74 <memset+0x1e>
    80004e96:	87aa                	mv	a5,a0
    80004e98:	07a1                	add	a5,a5,8
    80004e9a:	fee7bc23          	sd	a4,-8(a5)
    80004e9e:	fec7ede3          	bltu	a5,a2,80004e98 <memset+0x42>
    80004ea2:	8082                	ret
    80004ea4:	8082                	ret

0000000080004ea6 <_init>:
    80004ea6:	7171                	add	sp,sp,-176
    80004ea8:	a8018793          	add	a5,gp,-1408 # 800052c8 <_tdata_begin>
    80004eac:	e152                	sd	s4,128(sp)
    80004eae:	a8018a13          	add	s4,gp,-1408 # 800052c8 <_tdata_begin>
    80004eb2:	e54e                	sd	s3,136(sp)
    80004eb4:	40fa09b3          	sub	s3,s4,a5
    80004eb8:	ed26                	sd	s1,152(sp)
    80004eba:	e94a                	sd	s2,144(sp)
    80004ebc:	84aa                	mv	s1,a0
    80004ebe:	892e                	mv	s2,a1
    80004ec0:	8512                	mv	a0,tp
    80004ec2:	85be                	mv	a1,a5
    80004ec4:	864e                	mv	a2,s3
    80004ec6:	f506                	sd	ra,168(sp)
    80004ec8:	f122                	sd	s0,160(sp)
    80004eca:	fcd6                	sd	s5,120(sp)
    80004ecc:	8a92                	mv	s5,tp
    80004ece:	ed9ff0ef          	jal	80004da6 <memcpy>
    80004ed2:	b3c18613          	add	a2,gp,-1220 # 80005384 <_tbss_end>
    80004ed6:	41460633          	sub	a2,a2,s4
    80004eda:	4581                	li	a1,0
    80004edc:	013a8533          	add	a0,s5,s3
    80004ee0:	f77ff0ef          	jal	80004e56 <memset>
    80004ee4:	85ca                	mv	a1,s2
    80004ee6:	8526                	mv	a0,s1
    80004ee8:	dacff0ef          	jal	80004494 <thread_entry>
    80004eec:	4581                	li	a1,0
    80004eee:	4501                	li	a0,0
    80004ef0:	140000ef          	jal	80005030 <main>
    80004ef4:	a6018913          	add	s2,gp,-1440 # 800052a8 <counters>
    80004ef8:	00093683          	ld	a3,0(s2)
    80004efc:	03f10413          	add	s0,sp,63
    80004f00:	fc047413          	and	s0,s0,-64
    80004f04:	84aa                	mv	s1,a0
    80004f06:	ea85                	bnez	a3,80004f36 <_init+0x90>
    80004f08:	00893683          	ld	a3,8(s2)
    80004f0c:	e681                	bnez	a3,80004f14 <_init+0x6e>
    80004f0e:	8526                	mv	a0,s1
    80004f10:	d4dff0ef          	jal	80004c5c <tohost_exit>
    80004f14:	89a2                	mv	s3,s0
    80004f16:	01893603          	ld	a2,24(s2)
    80004f1a:	854e                	mv	a0,s3
    80004f1c:	00000597          	auipc	a1,0x0
    80004f20:	21c58593          	add	a1,a1,540 # 80005138 <main+0x108>
    80004f24:	e43ff0ef          	jal	80004d66 <sprintf>
    80004f28:	99aa                	add	s3,s3,a0
    80004f2a:	ff3402e3          	beq	s0,s3,80004f0e <_init+0x68>
    80004f2e:	8522                	mv	a0,s0
    80004f30:	d65ff0ef          	jal	80004c94 <printstr>
    80004f34:	bfe9                	j	80004f0e <_init+0x68>
    80004f36:	01093603          	ld	a2,16(s2)
    80004f3a:	00000597          	auipc	a1,0x0
    80004f3e:	1fe58593          	add	a1,a1,510 # 80005138 <main+0x108>
    80004f42:	8522                	mv	a0,s0
    80004f44:	e23ff0ef          	jal	80004d66 <sprintf>
    80004f48:	00893683          	ld	a3,8(s2)
    80004f4c:	00a409b3          	add	s3,s0,a0
    80004f50:	dee9                	beqz	a3,80004f2a <_init+0x84>
    80004f52:	b7d1                	j	80004f16 <_init+0x70>

0000000080004f54 <strlen>:
    80004f54:	00054783          	lbu	a5,0(a0)
    80004f58:	cb89                	beqz	a5,80004f6a <strlen+0x16>
    80004f5a:	87aa                	mv	a5,a0
    80004f5c:	0017c703          	lbu	a4,1(a5)
    80004f60:	0785                	add	a5,a5,1
    80004f62:	ff6d                	bnez	a4,80004f5c <strlen+0x8>
    80004f64:	40a78533          	sub	a0,a5,a0
    80004f68:	8082                	ret
    80004f6a:	4501                	li	a0,0
    80004f6c:	8082                	ret

0000000080004f6e <strnlen>:
    80004f6e:	00b506b3          	add	a3,a0,a1
    80004f72:	87aa                	mv	a5,a0
    80004f74:	e589                	bnez	a1,80004f7e <strnlen+0x10>
    80004f76:	a829                	j	80004f90 <strnlen+0x22>
    80004f78:	0785                	add	a5,a5,1
    80004f7a:	00f68863          	beq	a3,a5,80004f8a <strnlen+0x1c>
    80004f7e:	0007c703          	lbu	a4,0(a5)
    80004f82:	fb7d                	bnez	a4,80004f78 <strnlen+0xa>
    80004f84:	40a78533          	sub	a0,a5,a0
    80004f88:	8082                	ret
    80004f8a:	40a68533          	sub	a0,a3,a0
    80004f8e:	8082                	ret
    80004f90:	4501                	li	a0,0
    80004f92:	8082                	ret

0000000080004f94 <strcmp>:
    80004f94:	00054783          	lbu	a5,0(a0)
    80004f98:	0585                	add	a1,a1,1
    80004f9a:	0505                	add	a0,a0,1
    80004f9c:	fff5c703          	lbu	a4,-1(a1)
    80004fa0:	c799                	beqz	a5,80004fae <strcmp+0x1a>
    80004fa2:	fee789e3          	beq	a5,a4,80004f94 <strcmp>
    80004fa6:	0007851b          	sext.w	a0,a5
    80004faa:	9d19                	subw	a0,a0,a4
    80004fac:	8082                	ret
    80004fae:	4501                	li	a0,0
    80004fb0:	bfed                	j	80004faa <strcmp+0x16>

0000000080004fb2 <strcpy>:
    80004fb2:	87aa                	mv	a5,a0
    80004fb4:	0005c703          	lbu	a4,0(a1)
    80004fb8:	0785                	add	a5,a5,1
    80004fba:	0585                	add	a1,a1,1
    80004fbc:	fee78fa3          	sb	a4,-1(a5)
    80004fc0:	fb75                	bnez	a4,80004fb4 <strcpy+0x2>
    80004fc2:	8082                	ret

0000000080004fc4 <atol>:
    80004fc4:	00054703          	lbu	a4,0(a0)
    80004fc8:	02000693          	li	a3,32
    80004fcc:	87aa                	mv	a5,a0
    80004fce:	00d71763          	bne	a4,a3,80004fdc <atol+0x18>
    80004fd2:	0017c703          	lbu	a4,1(a5)
    80004fd6:	0785                	add	a5,a5,1
    80004fd8:	fed70de3          	beq	a4,a3,80004fd2 <atol+0xe>
    80004fdc:	02d00693          	li	a3,45
    80004fe0:	04d70163          	beq	a4,a3,80005022 <atol+0x5e>
    80004fe4:	02b00693          	li	a3,43
    80004fe8:	02d70763          	beq	a4,a3,80005016 <atol+0x52>
    80004fec:	0007c683          	lbu	a3,0(a5)
    80004ff0:	4581                	li	a1,0
    80004ff2:	ce8d                	beqz	a3,8000502c <atol+0x68>
    80004ff4:	4501                	li	a0,0
    80004ff6:	0785                	add	a5,a5,1
    80004ff8:	00251713          	sll	a4,a0,0x2
    80004ffc:	fd06861b          	addw	a2,a3,-48
    80005000:	0007c683          	lbu	a3,0(a5)
    80005004:	972a                	add	a4,a4,a0
    80005006:	0706                	sll	a4,a4,0x1
    80005008:	00e60533          	add	a0,a2,a4
    8000500c:	f6ed                	bnez	a3,80004ff6 <atol+0x32>
    8000500e:	c185                	beqz	a1,8000502e <atol+0x6a>
    80005010:	40a00533          	neg	a0,a0
    80005014:	8082                	ret
    80005016:	0017c683          	lbu	a3,1(a5)
    8000501a:	0785                	add	a5,a5,1
    8000501c:	ca81                	beqz	a3,8000502c <atol+0x68>
    8000501e:	4581                	li	a1,0
    80005020:	bfd1                	j	80004ff4 <atol+0x30>
    80005022:	0017c683          	lbu	a3,1(a5)
    80005026:	4585                	li	a1,1
    80005028:	0785                	add	a5,a5,1
    8000502a:	f6e9                	bnez	a3,80004ff4 <atol+0x30>
    8000502c:	4501                	li	a0,0
    8000502e:	8082                	ret

Disassembly of section .text.startup:

0000000080005030 <main>:
    80005030:	1141                	add	sp,sp,-16
    80005032:	00000517          	auipc	a0,0x0
    80005036:	0ee50513          	add	a0,a0,238 # 80005120 <main+0xf0>
    8000503a:	e406                	sd	ra,8(sp)
    8000503c:	c59ff0ef          	jal	80004c94 <printstr>
    80005040:	60a2                	ld	ra,8(sp)
    80005042:	557d                	li	a0,-1
    80005044:	0141                	add	sp,sp,16
    80005046:	8082                	ret
