
rsort.riscv:     file format elf64-littleriscv


Disassembly of section .text.init:

0000000080000000 <_start>:
    80000000:	4081                	li	ra,0
    80000002:	4101                	li	sp,0
    80000004:	4181                	li	gp,0
    80000006:	4201                	li	tp,0
    80000008:	4281                	li	t0,0
    8000000a:	4301                	li	t1,0
    8000000c:	4381                	li	t2,0
    8000000e:	4401                	li	s0,0
    80000010:	4481                	li	s1,0
    80000012:	4501                	li	a0,0
    80000014:	4581                	li	a1,0
    80000016:	4601                	li	a2,0
    80000018:	4681                	li	a3,0
    8000001a:	4701                	li	a4,0
    8000001c:	4781                	li	a5,0
    8000001e:	4801                	li	a6,0
    80000020:	4881                	li	a7,0
    80000022:	4901                	li	s2,0
    80000024:	4981                	li	s3,0
    80000026:	4a01                	li	s4,0
    80000028:	4a81                	li	s5,0
    8000002a:	4b01                	li	s6,0
    8000002c:	4b81                	li	s7,0
    8000002e:	4c01                	li	s8,0
    80000030:	4c81                	li	s9,0
    80000032:	4d01                	li	s10,0
    80000034:	4d81                	li	s11,0
    80000036:	4e01                	li	t3,0
    80000038:	4e81                	li	t4,0
    8000003a:	4f01                	li	t5,0
    8000003c:	4f81                	li	t6,0
    8000003e:	62f9                	lui	t0,0x1e
    80000040:	6002829b          	addw	t0,t0,1536 # 1e600 <buflen.1+0x1e5c0>
    80000044:	3002a073          	csrs	mstatus,t0
    80000048:	4285                	li	t0,1
    8000004a:	02fe                	sll	t0,t0,0x1f
    8000004c:	0002d863          	bgez	t0,8000005c <_start+0x5c>
    80000050:	4505                	li	a0,1
    80000052:	00001297          	auipc	t0,0x1
    80000056:	faa2a723          	sw	a0,-82(t0) # 80001000 <tohost>
    8000005a:	bfdd                	j	80000050 <_start+0x50>
    8000005c:	00000297          	auipc	t0,0x0
    80000060:	09028293          	add	t0,t0,144 # 800000ec <_start+0xec>
    80000064:	30529073          	csrw	mtvec,t0
    80000068:	00301073          	fscsr	zero
    8000006c:	f0000053          	fmv.w.x	ft0,zero
    80000070:	f00000d3          	fmv.w.x	ft1,zero
    80000074:	f0000153          	fmv.w.x	ft2,zero
    80000078:	f00001d3          	fmv.w.x	ft3,zero
    8000007c:	f0000253          	fmv.w.x	ft4,zero
    80000080:	f00002d3          	fmv.w.x	ft5,zero
    80000084:	f0000353          	fmv.w.x	ft6,zero
    80000088:	f00003d3          	fmv.w.x	ft7,zero
    8000008c:	f0000453          	fmv.w.x	fs0,zero
    80000090:	f00004d3          	fmv.w.x	fs1,zero
    80000094:	f0000553          	fmv.w.x	fa0,zero
    80000098:	f00005d3          	fmv.w.x	fa1,zero
    8000009c:	f0000653          	fmv.w.x	fa2,zero
    800000a0:	f00006d3          	fmv.w.x	fa3,zero
    800000a4:	f0000753          	fmv.w.x	fa4,zero
    800000a8:	f00007d3          	fmv.w.x	fa5,zero
    800000ac:	f0000853          	fmv.w.x	fa6,zero
    800000b0:	f00008d3          	fmv.w.x	fa7,zero
    800000b4:	f0000953          	fmv.w.x	fs2,zero
    800000b8:	f00009d3          	fmv.w.x	fs3,zero
    800000bc:	f0000a53          	fmv.w.x	fs4,zero
    800000c0:	f0000ad3          	fmv.w.x	fs5,zero
    800000c4:	f0000b53          	fmv.w.x	fs6,zero
    800000c8:	f0000bd3          	fmv.w.x	fs7,zero
    800000cc:	f0000c53          	fmv.w.x	fs8,zero
    800000d0:	f0000cd3          	fmv.w.x	fs9,zero
    800000d4:	f0000d53          	fmv.w.x	fs10,zero
    800000d8:	f0000dd3          	fmv.w.x	fs11,zero
    800000dc:	f0000e53          	fmv.w.x	ft8,zero
    800000e0:	f0000ed3          	fmv.w.x	ft9,zero
    800000e4:	f0000f53          	fmv.w.x	ft10,zero
    800000e8:	f0000fd3          	fmv.w.x	ft11,zero
    800000ec:	00000297          	auipc	t0,0x0
    800000f0:	03c28293          	add	t0,t0,60 # 80000128 <trap_entry>
    800000f4:	30529073          	csrw	mtvec,t0
    800000f8:	00007197          	auipc	gp,0x7
    800000fc:	35018193          	add	gp,gp,848 # 80007448 <__global_pointer$>
    80000100:	00009217          	auipc	tp,0x9
    80000104:	bbf20213          	add	tp,tp,-1089 # 80008cbf <_end+0x3f>
    80000108:	fc027213          	and	tp,tp,-64
    8000010c:	f1402573          	csrr	a0,mhartid
    80000110:	4585                	li	a1,1
    80000112:	00b57063          	bgeu	a0,a1,80000112 <_start+0x112>
    80000116:	00150113          	add	sp,a0,1
    8000011a:	0146                	sll	sp,sp,0x11
    8000011c:	9112                	add	sp,sp,tp
    8000011e:	01151613          	sll	a2,a0,0x11
    80000122:	9232                	add	tp,tp,a2
    80000124:	75e0206f          	j	80002882 <_init>

0000000080000128 <trap_entry>:
    80000128:	716d                	add	sp,sp,-272
    8000012a:	e406                	sd	ra,8(sp)
    8000012c:	e80a                	sd	sp,16(sp)
    8000012e:	ec0e                	sd	gp,24(sp)
    80000130:	f012                	sd	tp,32(sp)
    80000132:	f416                	sd	t0,40(sp)
    80000134:	f81a                	sd	t1,48(sp)
    80000136:	fc1e                	sd	t2,56(sp)
    80000138:	e0a2                	sd	s0,64(sp)
    8000013a:	e4a6                	sd	s1,72(sp)
    8000013c:	e8aa                	sd	a0,80(sp)
    8000013e:	ecae                	sd	a1,88(sp)
    80000140:	f0b2                	sd	a2,96(sp)
    80000142:	f4b6                	sd	a3,104(sp)
    80000144:	f8ba                	sd	a4,112(sp)
    80000146:	fcbe                	sd	a5,120(sp)
    80000148:	e142                	sd	a6,128(sp)
    8000014a:	e546                	sd	a7,136(sp)
    8000014c:	e94a                	sd	s2,144(sp)
    8000014e:	ed4e                	sd	s3,152(sp)
    80000150:	f152                	sd	s4,160(sp)
    80000152:	f556                	sd	s5,168(sp)
    80000154:	f95a                	sd	s6,176(sp)
    80000156:	fd5e                	sd	s7,184(sp)
    80000158:	e1e2                	sd	s8,192(sp)
    8000015a:	e5e6                	sd	s9,200(sp)
    8000015c:	e9ea                	sd	s10,208(sp)
    8000015e:	edee                	sd	s11,216(sp)
    80000160:	f1f2                	sd	t3,224(sp)
    80000162:	f5f6                	sd	t4,232(sp)
    80000164:	f9fa                	sd	t5,240(sp)
    80000166:	fdfe                	sd	t6,248(sp)
    80000168:	34202573          	csrr	a0,mcause
    8000016c:	341025f3          	csrr	a1,mepc
    80000170:	860a                	mv	a2,sp
    80000172:	4d8020ef          	jal	8000264a <handle_trap>
    80000176:	34151073          	csrw	mepc,a0
    8000017a:	6289                	lui	t0,0x2
    8000017c:	8002829b          	addw	t0,t0,-2048 # 1800 <buflen.1+0x17c0>
    80000180:	3002a073          	csrs	mstatus,t0
    80000184:	60a2                	ld	ra,8(sp)
    80000186:	6142                	ld	sp,16(sp)
    80000188:	61e2                	ld	gp,24(sp)
    8000018a:	7202                	ld	tp,32(sp)
    8000018c:	72a2                	ld	t0,40(sp)
    8000018e:	7342                	ld	t1,48(sp)
    80000190:	73e2                	ld	t2,56(sp)
    80000192:	6406                	ld	s0,64(sp)
    80000194:	64a6                	ld	s1,72(sp)
    80000196:	6546                	ld	a0,80(sp)
    80000198:	65e6                	ld	a1,88(sp)
    8000019a:	7606                	ld	a2,96(sp)
    8000019c:	76a6                	ld	a3,104(sp)
    8000019e:	7746                	ld	a4,112(sp)
    800001a0:	77e6                	ld	a5,120(sp)
    800001a2:	680a                	ld	a6,128(sp)
    800001a4:	68aa                	ld	a7,136(sp)
    800001a6:	694a                	ld	s2,144(sp)
    800001a8:	69ea                	ld	s3,152(sp)
    800001aa:	7a0a                	ld	s4,160(sp)
    800001ac:	7aaa                	ld	s5,168(sp)
    800001ae:	7b4a                	ld	s6,176(sp)
    800001b0:	7bea                	ld	s7,184(sp)
    800001b2:	6c0e                	ld	s8,192(sp)
    800001b4:	6cae                	ld	s9,200(sp)
    800001b6:	6d4e                	ld	s10,208(sp)
    800001b8:	6dee                	ld	s11,216(sp)
    800001ba:	7e0e                	ld	t3,224(sp)
    800001bc:	7eae                	ld	t4,232(sp)
    800001be:	7f4e                	ld	t5,240(sp)
    800001c0:	7fee                	ld	t6,248(sp)
    800001c2:	6151                	add	sp,sp,272
    800001c4:	30200073          	mret
    800001c8:	0000                	unimp

Disassembly of section .text:

0000000080002000 <verify.constprop.0>:
    80002000:	87aa                	mv	a5,a0
    80002002:	00003717          	auipc	a4,0x3
    80002006:	c4670713          	add	a4,a4,-954 # 80004c48 <input_data>
    8000200a:	4501                	li	a0,0
    8000200c:	a809                	j	8000201e <verify.constprop.0+0x1e>
    8000200e:	0006051b          	sext.w	a0,a2
    80002012:	03169663          	bne	a3,a7,8000203e <verify.constprop.0+0x3e>
    80002016:	0721                	add	a4,a4,8
    80002018:	07a1                	add	a5,a5,8
    8000201a:	02030163          	beqz	t1,8000203c <verify.constprop.0+0x3c>
    8000201e:	430c                	lw	a1,0(a4)
    80002020:	0007a803          	lw	a6,0(a5)
    80002024:	4354                	lw	a3,4(a4)
    80002026:	0025061b          	addw	a2,a0,2
    8000202a:	0047a883          	lw	a7,4(a5)
    8000202e:	8006031b          	addw	t1,a2,-2048
    80002032:	2681                	sext.w	a3,a3
    80002034:	fcb80de3          	beq	a6,a1,8000200e <verify.constprop.0+0xe>
    80002038:	2505                	addw	a0,a0,1
    8000203a:	8082                	ret
    8000203c:	4501                	li	a0,0
    8000203e:	8082                	ret

0000000080002040 <sort>:
    80002040:	00251893          	sll	a7,a0,0x2
    80002044:	7159                	add	sp,sp,-112
    80002046:	6705                	lui	a4,0x1
    80002048:	ff388693          	add	a3,a7,-13
    8000204c:	ff088793          	add	a5,a7,-16
    80002050:	f4a2                	sd	s0,104(sp)
    80002052:	f0a6                	sd	s1,96(sp)
    80002054:	ecca                	sd	s2,88(sp)
    80002056:	e8ce                	sd	s3,80(sp)
    80002058:	e4d2                	sd	s4,72(sp)
    8000205a:	e0d6                	sd	s5,64(sp)
    8000205c:	fc5a                	sd	s6,56(sp)
    8000205e:	f85e                	sd	s7,48(sp)
    80002060:	f462                	sd	s8,40(sp)
    80002062:	f066                	sd	s9,32(sp)
    80002064:	ec6a                	sd	s10,24(sp)
    80002066:	e86e                	sd	s11,16(sp)
    80002068:	80070713          	add	a4,a4,-2048 # 800 <buflen.1+0x7c0>
    8000206c:	81010113          	add	sp,sp,-2032
    80002070:	9ac1                	and	a3,a3,-16
    80002072:	fff7c793          	not	a5,a5
    80002076:	8532                	mv	a0,a2
    80002078:	880a                	mv	a6,sp
    8000207a:	82ae                	mv	t0,a1
    8000207c:	ff488393          	add	t2,a7,-12
    80002080:	ffc88f93          	add	t6,a7,-4
    80002084:	01080f13          	add	t5,a6,16
    80002088:	4601                	li	a2,0
    8000208a:	9742                	add	a4,a4,a6
    8000208c:	01068e13          	add	t3,a3,16
    80002090:	ff07f313          	and	t1,a5,-16
    80002094:	02000e93          	li	t4,32
    80002098:	87c2                	mv	a5,a6
    8000209a:	0007b023          	sd	zero,0(a5)
    8000209e:	07a1                	add	a5,a5,8
    800020a0:	fee79de3          	bne	a5,a4,8000209a <sort+0x5a>
    800020a4:	007589b3          	add	s3,a1,t2
    800020a8:	1f35f263          	bgeu	a1,s3,8000228c <sort+0x24c>
    800020ac:	0006091b          	sext.w	s2,a2
    800020b0:	84ae                	mv	s1,a1
    800020b2:	0004aa03          	lw	s4,0(s1)
    800020b6:	40c0                	lw	s0,4(s1)
    800020b8:	4494                	lw	a3,8(s1)
    800020ba:	012a5a3b          	srlw	s4,s4,s2
    800020be:	0ffa7a13          	zext.b	s4,s4
    800020c2:	0a0e                	sll	s4,s4,0x3
    800020c4:	9a42                	add	s4,s4,a6
    800020c6:	000a3a83          	ld	s5,0(s4)
    800020ca:	0124543b          	srlw	s0,s0,s2
    800020ce:	0ff47413          	zext.b	s0,s0
    800020d2:	0a85                	add	s5,s5,1
    800020d4:	040e                	sll	s0,s0,0x3
    800020d6:	44dc                	lw	a5,12(s1)
    800020d8:	9442                	add	s0,s0,a6
    800020da:	015a3023          	sd	s5,0(s4)
    800020de:	00043a03          	ld	s4,0(s0)
    800020e2:	0126d6bb          	srlw	a3,a3,s2
    800020e6:	0ff6f693          	zext.b	a3,a3
    800020ea:	0a05                	add	s4,s4,1
    800020ec:	068e                	sll	a3,a3,0x3
    800020ee:	01443023          	sd	s4,0(s0)
    800020f2:	96c2                	add	a3,a3,a6
    800020f4:	6280                	ld	s0,0(a3)
    800020f6:	0127d7bb          	srlw	a5,a5,s2
    800020fa:	0ff7f793          	zext.b	a5,a5
    800020fe:	0405                	add	s0,s0,1
    80002100:	078e                	sll	a5,a5,0x3
    80002102:	e280                	sd	s0,0(a3)
    80002104:	97c2                	add	a5,a5,a6
    80002106:	6394                	ld	a3,0(a5)
    80002108:	04c1                	add	s1,s1,16
    8000210a:	0685                	add	a3,a3,1
    8000210c:	e394                	sd	a3,0(a5)
    8000210e:	fb34e2e3          	bltu	s1,s3,800020b2 <sort+0x72>
    80002112:	01c586b3          	add	a3,a1,t3
    80002116:	011584b3          	add	s1,a1,a7
    8000211a:	0006091b          	sext.w	s2,a2
    8000211e:	0096ff63          	bgeu	a3,s1,8000213c <sort+0xfc>
    80002122:	429c                	lw	a5,0(a3)
    80002124:	0691                	add	a3,a3,4
    80002126:	0127d7bb          	srlw	a5,a5,s2
    8000212a:	0ff7f793          	zext.b	a5,a5
    8000212e:	078e                	sll	a5,a5,0x3
    80002130:	97c2                	add	a5,a5,a6
    80002132:	6380                	ld	s0,0(a5)
    80002134:	0405                	add	s0,s0,1
    80002136:	e380                	sd	s0,0(a5)
    80002138:	fe96e5e3          	bltu	a3,s1,80002122 <sort+0xe2>
    8000213c:	00883403          	ld	s0,8(a6)
    80002140:	00083683          	ld	a3,0(a6)
    80002144:	87fa                	mv	a5,t5
    80002146:	9436                	add	s0,s0,a3
    80002148:	00883423          	sd	s0,8(a6)
    8000214c:	6394                	ld	a3,0(a5)
    8000214e:	6784                	ld	s1,8(a5)
    80002150:	07c1                	add	a5,a5,16
    80002152:	96a2                	add	a3,a3,s0
    80002154:	00968433          	add	s0,a3,s1
    80002158:	fed7b823          	sd	a3,-16(a5)
    8000215c:	fe87bc23          	sd	s0,-8(a5)
    80002160:	fee796e3          	bne	a5,a4,8000214c <sort+0x10c>
    80002164:	01f58a33          	add	s4,a1,t6
    80002168:	00c58a93          	add	s5,a1,12
    8000216c:	095a6f63          	bltu	s4,s5,8000220a <sort+0x1ca>
    80002170:	0006091b          	sext.w	s2,a2
    80002174:	84d2                	mv	s1,s4
    80002176:	0004ac83          	lw	s9,0(s1)
    8000217a:	ffc4ac03          	lw	s8,-4(s1)
    8000217e:	ff84ab03          	lw	s6,-8(s1)
    80002182:	012cd7bb          	srlw	a5,s9,s2
    80002186:	0ff7f793          	zext.b	a5,a5
    8000218a:	078e                	sll	a5,a5,0x3
    8000218c:	97c2                	add	a5,a5,a6
    8000218e:	0007bd03          	ld	s10,0(a5)
    80002192:	012c56bb          	srlw	a3,s8,s2
    80002196:	0ff6f693          	zext.b	a3,a3
    8000219a:	fffd0413          	add	s0,s10,-1
    8000219e:	068e                	sll	a3,a3,0x3
    800021a0:	ff44a983          	lw	s3,-12(s1)
    800021a4:	96c2                	add	a3,a3,a6
    800021a6:	e380                	sd	s0,0(a5)
    800021a8:	6280                	ld	s0,0(a3)
    800021aa:	012b5bbb          	srlw	s7,s6,s2
    800021ae:	0ffbfb93          	zext.b	s7,s7
    800021b2:	fff40793          	add	a5,s0,-1
    800021b6:	0b8e                	sll	s7,s7,0x3
    800021b8:	e29c                	sd	a5,0(a3)
    800021ba:	9bc2                	add	s7,s7,a6
    800021bc:	000bb683          	ld	a3,0(s7)
    800021c0:	0129d7bb          	srlw	a5,s3,s2
    800021c4:	0ff7f793          	zext.b	a5,a5
    800021c8:	fff68d93          	add	s11,a3,-1
    800021cc:	078e                	sll	a5,a5,0x3
    800021ce:	01bbb023          	sd	s11,0(s7)
    800021d2:	97c2                	add	a5,a5,a6
    800021d4:	0007bb83          	ld	s7,0(a5)
    800021d8:	0d0a                	sll	s10,s10,0x2
    800021da:	9d2a                	add	s10,s10,a0
    800021dc:	fffb8d93          	add	s11,s7,-1
    800021e0:	01b7b023          	sd	s11,0(a5)
    800021e4:	040a                	sll	s0,s0,0x2
    800021e6:	ff9d2e23          	sw	s9,-4(s10)
    800021ea:	942a                	add	s0,s0,a0
    800021ec:	068a                	sll	a3,a3,0x2
    800021ee:	ff842e23          	sw	s8,-4(s0)
    800021f2:	96aa                	add	a3,a3,a0
    800021f4:	002b9793          	sll	a5,s7,0x2
    800021f8:	ff66ae23          	sw	s6,-4(a3)
    800021fc:	97aa                	add	a5,a5,a0
    800021fe:	ff37ae23          	sw	s3,-4(a5)
    80002202:	14c1                	add	s1,s1,-16
    80002204:	f754f9e3          	bgeu	s1,s5,80002176 <sort+0x136>
    80002208:	9a1a                	add	s4,s4,t1
    8000220a:	0006091b          	sext.w	s2,a2
    8000220e:	02ba6563          	bltu	s4,a1,80002238 <sort+0x1f8>
    80002212:	000a2483          	lw	s1,0(s4)
    80002216:	1a71                	add	s4,s4,-4
    80002218:	0124d7bb          	srlw	a5,s1,s2
    8000221c:	0ff7f793          	zext.b	a5,a5
    80002220:	078e                	sll	a5,a5,0x3
    80002222:	97c2                	add	a5,a5,a6
    80002224:	6394                	ld	a3,0(a5)
    80002226:	16fd                	add	a3,a3,-1
    80002228:	00269413          	sll	s0,a3,0x2
    8000222c:	e394                	sd	a3,0(a5)
    8000222e:	008507b3          	add	a5,a0,s0
    80002232:	c384                	sw	s1,0(a5)
    80002234:	fcba7fe3          	bgeu	s4,a1,80002212 <sort+0x1d2>
    80002238:	0621                	add	a2,a2,8
    8000223a:	01d60663          	beq	a2,t4,80002246 <sort+0x206>
    8000223e:	87ae                	mv	a5,a1
    80002240:	85aa                	mv	a1,a0
    80002242:	853e                	mv	a0,a5
    80002244:	bd91                	j	80002098 <sort+0x58>
    80002246:	02a28363          	beq	t0,a0,8000226c <sort+0x22c>
    8000224a:	7f010113          	add	sp,sp,2032
    8000224e:	7426                	ld	s0,104(sp)
    80002250:	7486                	ld	s1,96(sp)
    80002252:	6966                	ld	s2,88(sp)
    80002254:	69c6                	ld	s3,80(sp)
    80002256:	6a26                	ld	s4,72(sp)
    80002258:	6a86                	ld	s5,64(sp)
    8000225a:	7b62                	ld	s6,56(sp)
    8000225c:	7bc2                	ld	s7,48(sp)
    8000225e:	7c22                	ld	s8,40(sp)
    80002260:	7c82                	ld	s9,32(sp)
    80002262:	6d62                	ld	s10,24(sp)
    80002264:	6dc2                	ld	s11,16(sp)
    80002266:	8646                	mv	a2,a7
    80002268:	6165                	add	sp,sp,112
    8000226a:	ab21                	j	80002782 <memcpy>
    8000226c:	7f010113          	add	sp,sp,2032
    80002270:	7426                	ld	s0,104(sp)
    80002272:	7486                	ld	s1,96(sp)
    80002274:	6966                	ld	s2,88(sp)
    80002276:	69c6                	ld	s3,80(sp)
    80002278:	6a26                	ld	s4,72(sp)
    8000227a:	6a86                	ld	s5,64(sp)
    8000227c:	7b62                	ld	s6,56(sp)
    8000227e:	7bc2                	ld	s7,48(sp)
    80002280:	7c22                	ld	s8,40(sp)
    80002282:	7c82                	ld	s9,32(sp)
    80002284:	6d62                	ld	s10,24(sp)
    80002286:	6dc2                	ld	s11,16(sp)
    80002288:	6165                	add	sp,sp,112
    8000228a:	8082                	ret
    8000228c:	86ae                	mv	a3,a1
    8000228e:	b561                	j	80002116 <sort+0xd6>

0000000080002290 <vprintfmt>:
    80002290:	7149                	add	sp,sp,-368
    80002292:	f2a2                	sd	s0,352(sp)
    80002294:	eea6                	sd	s1,344(sp)
    80002296:	eaca                	sd	s2,336(sp)
    80002298:	e2d2                	sd	s4,320(sp)
    8000229a:	fe56                	sd	s5,312(sp)
    8000229c:	fa5a                	sd	s6,304(sp)
    8000229e:	f65e                	sd	s7,296(sp)
    800022a0:	f686                	sd	ra,360(sp)
    800022a2:	e6ce                	sd	s3,328(sp)
    800022a4:	f262                	sd	s8,288(sp)
    800022a6:	ee66                	sd	s9,280(sp)
    800022a8:	e66e                	sd	s11,264(sp)
    800022aa:	892a                	mv	s2,a0
    800022ac:	84ae                	mv	s1,a1
    800022ae:	8432                	mv	s0,a2
    800022b0:	8bb6                	mv	s7,a3
    800022b2:	02500a13          	li	s4,37
    800022b6:	05500b13          	li	s6,85
    800022ba:	00001a97          	auipc	s5,0x1
    800022be:	832a8a93          	add	s5,s5,-1998 # 80002aec <main+0xd0>
    800022c2:	a029                	j	800022cc <vprintfmt+0x3c>
    800022c4:	cd1d                	beqz	a0,80002302 <vprintfmt+0x72>
    800022c6:	85a6                	mv	a1,s1
    800022c8:	0405                	add	s0,s0,1
    800022ca:	9902                	jalr	s2
    800022cc:	00044503          	lbu	a0,0(s0)
    800022d0:	ff451ae3          	bne	a0,s4,800022c4 <vprintfmt+0x34>
    800022d4:	00144683          	lbu	a3,1(s0)
    800022d8:	00140993          	add	s3,s0,1
    800022dc:	874e                	mv	a4,s3
    800022de:	02000c93          	li	s9,32
    800022e2:	5c7d                	li	s8,-1
    800022e4:	5dfd                	li	s11,-1
    800022e6:	4581                	li	a1,0
    800022e8:	fdd6879b          	addw	a5,a3,-35
    800022ec:	0ff7f793          	zext.b	a5,a5
    800022f0:	00170413          	add	s0,a4,1
    800022f4:	04fb6163          	bltu	s6,a5,80002336 <vprintfmt+0xa6>
    800022f8:	078a                	sll	a5,a5,0x2
    800022fa:	97d6                	add	a5,a5,s5
    800022fc:	439c                	lw	a5,0(a5)
    800022fe:	97d6                	add	a5,a5,s5
    80002300:	8782                	jr	a5
    80002302:	70b6                	ld	ra,360(sp)
    80002304:	7416                	ld	s0,352(sp)
    80002306:	64f6                	ld	s1,344(sp)
    80002308:	6956                	ld	s2,336(sp)
    8000230a:	69b6                	ld	s3,328(sp)
    8000230c:	6a16                	ld	s4,320(sp)
    8000230e:	7af2                	ld	s5,312(sp)
    80002310:	7b52                	ld	s6,304(sp)
    80002312:	7bb2                	ld	s7,296(sp)
    80002314:	7c12                	ld	s8,288(sp)
    80002316:	6cf2                	ld	s9,280(sp)
    80002318:	6db2                	ld	s11,264(sp)
    8000231a:	6175                	add	sp,sp,368
    8000231c:	8082                	ret
    8000231e:	8cb6                	mv	s9,a3
    80002320:	00174683          	lbu	a3,1(a4)
    80002324:	8722                	mv	a4,s0
    80002326:	00170413          	add	s0,a4,1
    8000232a:	fdd6879b          	addw	a5,a3,-35
    8000232e:	0ff7f793          	zext.b	a5,a5
    80002332:	fcfb73e3          	bgeu	s6,a5,800022f8 <vprintfmt+0x68>
    80002336:	85a6                	mv	a1,s1
    80002338:	02500513          	li	a0,37
    8000233c:	9902                	jalr	s2
    8000233e:	844e                	mv	s0,s3
    80002340:	b771                	j	800022cc <vprintfmt+0x3c>
    80002342:	fd068c1b          	addw	s8,a3,-48
    80002346:	00174683          	lbu	a3,1(a4)
    8000234a:	47a5                	li	a5,9
    8000234c:	fd06871b          	addw	a4,a3,-48
    80002350:	0006861b          	sext.w	a2,a3
    80002354:	20e7ef63          	bltu	a5,a4,80002572 <vprintfmt+0x2e2>
    80002358:	8722                	mv	a4,s0
    8000235a:	4825                	li	a6,9
    8000235c:	00174683          	lbu	a3,1(a4)
    80002360:	002c179b          	sllw	a5,s8,0x2
    80002364:	018787bb          	addw	a5,a5,s8
    80002368:	0017979b          	sllw	a5,a5,0x1
    8000236c:	9fb1                	addw	a5,a5,a2
    8000236e:	fd06851b          	addw	a0,a3,-48
    80002372:	0705                	add	a4,a4,1
    80002374:	fd078c1b          	addw	s8,a5,-48
    80002378:	0006861b          	sext.w	a2,a3
    8000237c:	fea870e3          	bgeu	a6,a0,8000235c <vprintfmt+0xcc>
    80002380:	f60dd4e3          	bgez	s11,800022e8 <vprintfmt+0x58>
    80002384:	8de2                	mv	s11,s8
    80002386:	5c7d                	li	s8,-1
    80002388:	b785                	j	800022e8 <vprintfmt+0x58>
    8000238a:	00174683          	lbu	a3,1(a4)
    8000238e:	8722                	mv	a4,s0
    80002390:	bfa1                	j	800022e8 <vprintfmt+0x58>
    80002392:	85a6                	mv	a1,s1
    80002394:	02500513          	li	a0,37
    80002398:	9902                	jalr	s2
    8000239a:	bf0d                	j	800022cc <vprintfmt+0x3c>
    8000239c:	000bac03          	lw	s8,0(s7)
    800023a0:	00174683          	lbu	a3,1(a4)
    800023a4:	0ba1                	add	s7,s7,8
    800023a6:	8722                	mv	a4,s0
    800023a8:	bfe1                	j	80002380 <vprintfmt+0xf0>
    800023aa:	85a6                	mv	a1,s1
    800023ac:	03000513          	li	a0,48
    800023b0:	ea6a                	sd	s10,272(sp)
    800023b2:	9902                	jalr	s2
    800023b4:	85a6                	mv	a1,s1
    800023b6:	07800513          	li	a0,120
    800023ba:	9902                	jalr	s2
    800023bc:	4641                	li	a2,16
    800023be:	008b8713          	add	a4,s7,8
    800023c2:	000bb783          	ld	a5,0(s7)
    800023c6:	8bba                	mv	s7,a4
    800023c8:	02c7f5b3          	remu	a1,a5,a2
    800023cc:	000c899b          	sext.w	s3,s9
    800023d0:	0054                	add	a3,sp,4
    800023d2:	4705                	li	a4,1
    800023d4:	c02e                	sw	a1,0(sp)
    800023d6:	16c7ea63          	bltu	a5,a2,8000254a <vprintfmt+0x2ba>
    800023da:	02c7d7b3          	divu	a5,a5,a2
    800023de:	0691                	add	a3,a3,4
    800023e0:	8c3a                	mv	s8,a4
    800023e2:	2705                	addw	a4,a4,1
    800023e4:	02c7f5b3          	remu	a1,a5,a2
    800023e8:	feb6ae23          	sw	a1,-4(a3)
    800023ec:	fec7f7e3          	bgeu	a5,a2,800023da <vprintfmt+0x14a>
    800023f0:	fffd8c9b          	addw	s9,s11,-1
    800023f4:	fff70d1b          	addw	s10,a4,-1
    800023f8:	01b75863          	bge	a4,s11,80002408 <vprintfmt+0x178>
    800023fc:	85a6                	mv	a1,s1
    800023fe:	854e                	mv	a0,s3
    80002400:	3cfd                	addw	s9,s9,-1
    80002402:	9902                	jalr	s2
    80002404:	ffac9ce3          	bne	s9,s10,800023fc <vprintfmt+0x16c>
    80002408:	0c0a                	sll	s8,s8,0x2
    8000240a:	018109b3          	add	s3,sp,s8
    8000240e:	ffc10c93          	add	s9,sp,-4
    80002412:	4c25                	li	s8,9
    80002414:	0009a783          	lw	a5,0(s3)
    80002418:	03000513          	li	a0,48
    8000241c:	00fc7463          	bgeu	s8,a5,80002424 <vprintfmt+0x194>
    80002420:	05700513          	li	a0,87
    80002424:	85a6                	mv	a1,s1
    80002426:	9d3d                	addw	a0,a0,a5
    80002428:	19f1                	add	s3,s3,-4
    8000242a:	9902                	jalr	s2
    8000242c:	ff9994e3          	bne	s3,s9,80002414 <vprintfmt+0x184>
    80002430:	6d52                	ld	s10,272(sp)
    80002432:	bd69                	j	800022cc <vprintfmt+0x3c>
    80002434:	ea6a                	sd	s10,272(sp)
    80002436:	4785                	li	a5,1
    80002438:	008b8c13          	add	s8,s7,8
    8000243c:	00b7c463          	blt	a5,a1,80002444 <vprintfmt+0x1b4>
    80002440:	10058763          	beqz	a1,8000254e <vprintfmt+0x2be>
    80002444:	000bb983          	ld	s3,0(s7)
    80002448:	1009cc63          	bltz	s3,80002560 <vprintfmt+0x2d0>
    8000244c:	87ce                	mv	a5,s3
    8000244e:	8be2                	mv	s7,s8
    80002450:	4629                	li	a2,10
    80002452:	bf9d                	j	800023c8 <vprintfmt+0x138>
    80002454:	00174683          	lbu	a3,1(a4)
    80002458:	2585                	addw	a1,a1,1
    8000245a:	8722                	mv	a4,s0
    8000245c:	b571                	j	800022e8 <vprintfmt+0x58>
    8000245e:	ea6a                	sd	s10,272(sp)
    80002460:	4641                	li	a2,16
    80002462:	4785                	li	a5,1
    80002464:	008b8713          	add	a4,s7,8
    80002468:	f4b7cde3          	blt	a5,a1,800023c2 <vprintfmt+0x132>
    8000246c:	f9b9                	bnez	a1,800023c2 <vprintfmt+0x132>
    8000246e:	000be783          	lwu	a5,0(s7)
    80002472:	8bba                	mv	s7,a4
    80002474:	bf91                	j	800023c8 <vprintfmt+0x138>
    80002476:	ea6a                	sd	s10,272(sp)
    80002478:	000bbd03          	ld	s10,0(s7)
    8000247c:	0ba1                	add	s7,s7,8
    8000247e:	040d0363          	beqz	s10,800024c4 <vprintfmt+0x234>
    80002482:	09b05e63          	blez	s11,8000251e <vprintfmt+0x28e>
    80002486:	02d00793          	li	a5,45
    8000248a:	04fc9f63          	bne	s9,a5,800024e8 <vprintfmt+0x258>
    8000248e:	000d4503          	lbu	a0,0(s10)
    80002492:	c105                	beqz	a0,800024b2 <vprintfmt+0x222>
    80002494:	59fd                	li	s3,-1
    80002496:	000c4563          	bltz	s8,800024a0 <vprintfmt+0x210>
    8000249a:	3c7d                	addw	s8,s8,-1
    8000249c:	013c0963          	beq	s8,s3,800024ae <vprintfmt+0x21e>
    800024a0:	85a6                	mv	a1,s1
    800024a2:	9902                	jalr	s2
    800024a4:	001d4503          	lbu	a0,1(s10)
    800024a8:	3dfd                	addw	s11,s11,-1
    800024aa:	0d05                	add	s10,s10,1
    800024ac:	f56d                	bnez	a0,80002496 <vprintfmt+0x206>
    800024ae:	f9b051e3          	blez	s11,80002430 <vprintfmt+0x1a0>
    800024b2:	85a6                	mv	a1,s1
    800024b4:	02000513          	li	a0,32
    800024b8:	3dfd                	addw	s11,s11,-1
    800024ba:	9902                	jalr	s2
    800024bc:	fe0d9be3          	bnez	s11,800024b2 <vprintfmt+0x222>
    800024c0:	6d52                	ld	s10,272(sp)
    800024c2:	b529                	j	800022cc <vprintfmt+0x3c>
    800024c4:	00000d17          	auipc	s10,0x0
    800024c8:	5dcd0d13          	add	s10,s10,1500 # 80002aa0 <main+0x84>
    800024cc:	02800513          	li	a0,40
    800024d0:	fdb052e3          	blez	s11,80002494 <vprintfmt+0x204>
    800024d4:	02d00793          	li	a5,45
    800024d8:	00000d17          	auipc	s10,0x0
    800024dc:	5c8d0d13          	add	s10,s10,1480 # 80002aa0 <main+0x84>
    800024e0:	02800513          	li	a0,40
    800024e4:	fafc88e3          	beq	s9,a5,80002494 <vprintfmt+0x204>
    800024e8:	000d861b          	sext.w	a2,s11
    800024ec:	87ea                	mv	a5,s10
    800024ee:	018d06b3          	add	a3,s10,s8
    800024f2:	000c1663          	bnez	s8,800024fe <vprintfmt+0x26e>
    800024f6:	a829                	j	80002510 <vprintfmt+0x280>
    800024f8:	0785                	add	a5,a5,1
    800024fa:	00d78563          	beq	a5,a3,80002504 <vprintfmt+0x274>
    800024fe:	0007c703          	lbu	a4,0(a5)
    80002502:	fb7d                	bnez	a4,800024f8 <vprintfmt+0x268>
    80002504:	41a787b3          	sub	a5,a5,s10
    80002508:	40f60dbb          	subw	s11,a2,a5
    8000250c:	01b05963          	blez	s11,8000251e <vprintfmt+0x28e>
    80002510:	2c81                	sext.w	s9,s9
    80002512:	85a6                	mv	a1,s1
    80002514:	8566                	mv	a0,s9
    80002516:	3dfd                	addw	s11,s11,-1
    80002518:	9902                	jalr	s2
    8000251a:	fe0d9ce3          	bnez	s11,80002512 <vprintfmt+0x282>
    8000251e:	000d4503          	lbu	a0,0(s10)
    80002522:	d519                	beqz	a0,80002430 <vprintfmt+0x1a0>
    80002524:	59fd                	li	s3,-1
    80002526:	bf85                	j	80002496 <vprintfmt+0x206>
    80002528:	fffdc793          	not	a5,s11
    8000252c:	97fd                	sra	a5,a5,0x3f
    8000252e:	00fdf7b3          	and	a5,s11,a5
    80002532:	00174683          	lbu	a3,1(a4)
    80002536:	00078d9b          	sext.w	s11,a5
    8000253a:	8722                	mv	a4,s0
    8000253c:	b375                	j	800022e8 <vprintfmt+0x58>
    8000253e:	000ba503          	lw	a0,0(s7)
    80002542:	85a6                	mv	a1,s1
    80002544:	0ba1                	add	s7,s7,8
    80002546:	9902                	jalr	s2
    80002548:	b351                	j	800022cc <vprintfmt+0x3c>
    8000254a:	4c01                	li	s8,0
    8000254c:	b555                	j	800023f0 <vprintfmt+0x160>
    8000254e:	000ba983          	lw	s3,0(s7)
    80002552:	bddd                	j	80002448 <vprintfmt+0x1b8>
    80002554:	ea6a                	sd	s10,272(sp)
    80002556:	4629                	li	a2,10
    80002558:	b729                	j	80002462 <vprintfmt+0x1d2>
    8000255a:	ea6a                	sd	s10,272(sp)
    8000255c:	4621                	li	a2,8
    8000255e:	b711                	j	80002462 <vprintfmt+0x1d2>
    80002560:	85a6                	mv	a1,s1
    80002562:	02d00513          	li	a0,45
    80002566:	9902                	jalr	s2
    80002568:	413007b3          	neg	a5,s3
    8000256c:	8be2                	mv	s7,s8
    8000256e:	4629                	li	a2,10
    80002570:	bda1                	j	800023c8 <vprintfmt+0x138>
    80002572:	8722                	mv	a4,s0
    80002574:	b531                	j	80002380 <vprintfmt+0xf0>

0000000080002576 <sprintf_putch.0>:
    80002576:	619c                	ld	a5,0(a1)
    80002578:	00a78023          	sb	a0,0(a5)
    8000257c:	619c                	ld	a5,0(a1)
    8000257e:	0785                	add	a5,a5,1
    80002580:	e19c                	sd	a5,0(a1)
    80002582:	8082                	ret

0000000080002584 <putchar>:
    80002584:	04022803          	lw	a6,64(tp) # 40 <buflen.1>
    80002588:	00020793          	mv	a5,tp
    8000258c:	97c2                	add	a5,a5,a6
    8000258e:	7159                	add	sp,sp,-112
    80002590:	0018069b          	addw	a3,a6,1
    80002594:	04d22023          	sw	a3,64(tp) # 40 <buflen.1>
    80002598:	00a78023          	sb	a0,0(a5)
    8000259c:	03f10713          	add	a4,sp,63
    800025a0:	47a9                	li	a5,10
    800025a2:	fc077713          	and	a4,a4,-64
    800025a6:	00f50963          	beq	a0,a5,800025b8 <putchar+0x34>
    800025aa:	04000793          	li	a5,64
    800025ae:	00f68563          	beq	a3,a5,800025b8 <putchar+0x34>
    800025b2:	4501                	li	a0,0
    800025b4:	6165                	add	sp,sp,112
    800025b6:	8082                	ret
    800025b8:	04000793          	li	a5,64
    800025bc:	e31c                	sd	a5,0(a4)
    800025be:	4785                	li	a5,1
    800025c0:	e71c                	sd	a5,8(a4)
    800025c2:	00020613          	mv	a2,tp
    800025c6:	eb10                	sd	a2,16(a4)
    800025c8:	ef14                	sd	a3,24(a4)
    800025ca:	0ff0000f          	fence
    800025ce:	fffff697          	auipc	a3,0xfffff
    800025d2:	a7268693          	add	a3,a3,-1422 # 80001040 <fromhost>
    800025d6:	fffff797          	auipc	a5,0xfffff
    800025da:	a2e7b523          	sd	a4,-1494(a5) # 80001000 <tohost>
    800025de:	629c                	ld	a5,0(a3)
    800025e0:	dffd                	beqz	a5,800025de <putchar+0x5a>
    800025e2:	fffff797          	auipc	a5,0xfffff
    800025e6:	a407bf23          	sd	zero,-1442(a5) # 80001040 <fromhost>
    800025ea:	0ff0000f          	fence
    800025ee:	04022023          	sw	zero,64(tp) # 40 <buflen.1>
    800025f2:	631c                	ld	a5,0(a4)
    800025f4:	4501                	li	a0,0
    800025f6:	6165                	add	sp,sp,112
    800025f8:	8082                	ret

00000000800025fa <setStats>:
    800025fa:	b0002773          	csrr	a4,mcycle
    800025fe:	00006797          	auipc	a5,0x6
    80002602:	64a78793          	add	a5,a5,1610 # 80008c48 <counters>
    80002606:	c511                	beqz	a0,80002612 <setStats+0x18>
    80002608:	e398                	sd	a4,0(a5)
    8000260a:	b0202773          	csrr	a4,minstret
    8000260e:	e798                	sd	a4,8(a5)
    80002610:	8082                	ret
    80002612:	6394                	ld	a3,0(a5)
    80002614:	00000617          	auipc	a2,0x0
    80002618:	49c60613          	add	a2,a2,1180 # 80002ab0 <main+0x94>
    8000261c:	eb90                	sd	a2,16(a5)
    8000261e:	8f15                	sub	a4,a4,a3
    80002620:	e398                	sd	a4,0(a5)
    80002622:	b0202773          	csrr	a4,minstret
    80002626:	6794                	ld	a3,8(a5)
    80002628:	00000617          	auipc	a2,0x0
    8000262c:	49060613          	add	a2,a2,1168 # 80002ab8 <main+0x9c>
    80002630:	ef90                	sd	a2,24(a5)
    80002632:	8f15                	sub	a4,a4,a3
    80002634:	e798                	sd	a4,8(a5)
    80002636:	8082                	ret

0000000080002638 <tohost_exit>:
    80002638:	00151793          	sll	a5,a0,0x1
    8000263c:	0017e793          	or	a5,a5,1
    80002640:	fffff717          	auipc	a4,0xfffff
    80002644:	9cf73023          	sd	a5,-1600(a4) # 80001000 <tohost>
    80002648:	a001                	j	80002648 <tohost_exit+0x10>

000000008000264a <handle_trap>:
    8000264a:	6785                	lui	a5,0x1
    8000264c:	a7378793          	add	a5,a5,-1421 # a73 <buflen.1+0xa33>
    80002650:	fffff717          	auipc	a4,0xfffff
    80002654:	9af73823          	sd	a5,-1616(a4) # 80001000 <tohost>
    80002658:	a001                	j	80002658 <handle_trap+0xe>

000000008000265a <exit>:
    8000265a:	1141                	add	sp,sp,-16
    8000265c:	e406                	sd	ra,8(sp)
    8000265e:	fdbff0ef          	jal	80002638 <tohost_exit>

0000000080002662 <abort>:
    80002662:	10d00793          	li	a5,269
    80002666:	fffff717          	auipc	a4,0xfffff
    8000266a:	98f73d23          	sd	a5,-1638(a4) # 80001000 <tohost>
    8000266e:	a001                	j	8000266e <abort+0xc>

0000000080002670 <printstr>:
    80002670:	00054783          	lbu	a5,0(a0)
    80002674:	7159                	add	sp,sp,-112
    80002676:	03f10693          	add	a3,sp,63
    8000267a:	fc06f693          	and	a3,a3,-64
    8000267e:	c3b9                	beqz	a5,800026c4 <printstr+0x54>
    80002680:	87aa                	mv	a5,a0
    80002682:	0017c703          	lbu	a4,1(a5)
    80002686:	0785                	add	a5,a5,1
    80002688:	ff6d                	bnez	a4,80002682 <printstr+0x12>
    8000268a:	8f89                	sub	a5,a5,a0
    8000268c:	04000713          	li	a4,64
    80002690:	e298                	sd	a4,0(a3)
    80002692:	4705                	li	a4,1
    80002694:	e698                	sd	a4,8(a3)
    80002696:	ea88                	sd	a0,16(a3)
    80002698:	ee9c                	sd	a5,24(a3)
    8000269a:	0ff0000f          	fence
    8000269e:	fffff717          	auipc	a4,0xfffff
    800026a2:	9a270713          	add	a4,a4,-1630 # 80001040 <fromhost>
    800026a6:	fffff797          	auipc	a5,0xfffff
    800026aa:	94d7bd23          	sd	a3,-1702(a5) # 80001000 <tohost>
    800026ae:	631c                	ld	a5,0(a4)
    800026b0:	dffd                	beqz	a5,800026ae <printstr+0x3e>
    800026b2:	fffff797          	auipc	a5,0xfffff
    800026b6:	9807b723          	sd	zero,-1650(a5) # 80001040 <fromhost>
    800026ba:	0ff0000f          	fence
    800026be:	629c                	ld	a5,0(a3)
    800026c0:	6165                	add	sp,sp,112
    800026c2:	8082                	ret
    800026c4:	4781                	li	a5,0
    800026c6:	b7d9                	j	8000268c <printstr+0x1c>

00000000800026c8 <thread_entry>:
    800026c8:	c111                	beqz	a0,800026cc <thread_entry+0x4>
    800026ca:	a001                	j	800026ca <thread_entry+0x2>
    800026cc:	8082                	ret

00000000800026ce <printhex>:
    800026ce:	7179                	add	sp,sp,-48
    800026d0:	87aa                	mv	a5,a0
    800026d2:	f406                	sd	ra,40(sp)
    800026d4:	0028                	add	a0,sp,8
    800026d6:	01710713          	add	a4,sp,23
    800026da:	4825                	li	a6,9
    800026dc:	a011                	j	800026e0 <printhex+0x12>
    800026de:	8736                	mv	a4,a3
    800026e0:	00f7f613          	and	a2,a5,15
    800026e4:	86b2                	mv	a3,a2
    800026e6:	03000593          	li	a1,48
    800026ea:	00c87463          	bgeu	a6,a2,800026f2 <printhex+0x24>
    800026ee:	05700593          	li	a1,87
    800026f2:	9ead                	addw	a3,a3,a1
    800026f4:	00d70023          	sb	a3,0(a4)
    800026f8:	8391                	srl	a5,a5,0x4
    800026fa:	fff70693          	add	a3,a4,-1
    800026fe:	fee510e3          	bne	a0,a4,800026de <printhex+0x10>
    80002702:	00010c23          	sb	zero,24(sp)
    80002706:	f6bff0ef          	jal	80002670 <printstr>
    8000270a:	70a2                	ld	ra,40(sp)
    8000270c:	6145                	add	sp,sp,48
    8000270e:	8082                	ret

0000000080002710 <printf>:
    80002710:	711d                	add	sp,sp,-96
    80002712:	02810313          	add	t1,sp,40
    80002716:	f42e                	sd	a1,40(sp)
    80002718:	f832                	sd	a2,48(sp)
    8000271a:	fc36                	sd	a3,56(sp)
    8000271c:	862a                	mv	a2,a0
    8000271e:	869a                	mv	a3,t1
    80002720:	00000517          	auipc	a0,0x0
    80002724:	e6450513          	add	a0,a0,-412 # 80002584 <putchar>
    80002728:	4581                	li	a1,0
    8000272a:	ec06                	sd	ra,24(sp)
    8000272c:	e0ba                	sd	a4,64(sp)
    8000272e:	e4be                	sd	a5,72(sp)
    80002730:	e8c2                	sd	a6,80(sp)
    80002732:	ecc6                	sd	a7,88(sp)
    80002734:	e41a                	sd	t1,8(sp)
    80002736:	b5bff0ef          	jal	80002290 <vprintfmt>
    8000273a:	60e2                	ld	ra,24(sp)
    8000273c:	4501                	li	a0,0
    8000273e:	6125                	add	sp,sp,96
    80002740:	8082                	ret

0000000080002742 <sprintf>:
    80002742:	711d                	add	sp,sp,-96
    80002744:	03010e13          	add	t3,sp,48
    80002748:	f022                	sd	s0,32(sp)
    8000274a:	e42a                	sd	a0,8(sp)
    8000274c:	842a                	mv	s0,a0
    8000274e:	f832                	sd	a2,48(sp)
    80002750:	fc36                	sd	a3,56(sp)
    80002752:	862e                	mv	a2,a1
    80002754:	00000517          	auipc	a0,0x0
    80002758:	e2250513          	add	a0,a0,-478 # 80002576 <sprintf_putch.0>
    8000275c:	002c                	add	a1,sp,8
    8000275e:	86f2                	mv	a3,t3
    80002760:	f406                	sd	ra,40(sp)
    80002762:	e4be                	sd	a5,72(sp)
    80002764:	e0ba                	sd	a4,64(sp)
    80002766:	e8c2                	sd	a6,80(sp)
    80002768:	ecc6                	sd	a7,88(sp)
    8000276a:	ec72                	sd	t3,24(sp)
    8000276c:	b25ff0ef          	jal	80002290 <vprintfmt>
    80002770:	67a2                	ld	a5,8(sp)
    80002772:	00078023          	sb	zero,0(a5)
    80002776:	6522                	ld	a0,8(sp)
    80002778:	70a2                	ld	ra,40(sp)
    8000277a:	9d01                	subw	a0,a0,s0
    8000277c:	7402                	ld	s0,32(sp)
    8000277e:	6125                	add	sp,sp,96
    80002780:	8082                	ret

0000000080002782 <memcpy>:
    80002782:	00c5e7b3          	or	a5,a1,a2
    80002786:	8fc9                	or	a5,a5,a0
    80002788:	8b9d                	and	a5,a5,7
    8000278a:	00c50833          	add	a6,a0,a2
    8000278e:	cf91                	beqz	a5,800027aa <memcpy+0x28>
    80002790:	962e                	add	a2,a2,a1
    80002792:	87aa                	mv	a5,a0
    80002794:	09057c63          	bgeu	a0,a6,8000282c <memcpy+0xaa>
    80002798:	0005c703          	lbu	a4,0(a1)
    8000279c:	0585                	add	a1,a1,1
    8000279e:	0785                	add	a5,a5,1
    800027a0:	fee78fa3          	sb	a4,-1(a5)
    800027a4:	fec59ae3          	bne	a1,a2,80002798 <memcpy+0x16>
    800027a8:	8082                	ret
    800027aa:	04050693          	add	a3,a0,64
    800027ae:	0906f063          	bgeu	a3,a6,8000282e <memcpy+0xac>
    800027b2:	87b6                	mv	a5,a3
    800027b4:	872e                	mv	a4,a1
    800027b6:	00073383          	ld	t2,0(a4)
    800027ba:	00873283          	ld	t0,8(a4)
    800027be:	01073f83          	ld	t6,16(a4)
    800027c2:	01873f03          	ld	t5,24(a4)
    800027c6:	02073e83          	ld	t4,32(a4)
    800027ca:	02873e03          	ld	t3,40(a4)
    800027ce:	03073303          	ld	t1,48(a4)
    800027d2:	03873883          	ld	a7,56(a4)
    800027d6:	04078793          	add	a5,a5,64
    800027da:	f877b023          	sd	t2,-128(a5)
    800027de:	f857b423          	sd	t0,-120(a5)
    800027e2:	f9f7b823          	sd	t6,-112(a5)
    800027e6:	f9e7bc23          	sd	t5,-104(a5)
    800027ea:	fbd7b023          	sd	t4,-96(a5)
    800027ee:	fbc7b423          	sd	t3,-88(a5)
    800027f2:	fa67b823          	sd	t1,-80(a5)
    800027f6:	fb17bc23          	sd	a7,-72(a5)
    800027fa:	04070713          	add	a4,a4,64
    800027fe:	fb07ece3          	bltu	a5,a6,800027b6 <memcpy+0x34>
    80002802:	fbf60613          	add	a2,a2,-65
    80002806:	fc067793          	and	a5,a2,-64
    8000280a:	04078793          	add	a5,a5,64
    8000280e:	fc067613          	and	a2,a2,-64
    80002812:	95be                	add	a1,a1,a5
    80002814:	00c687b3          	add	a5,a3,a2
    80002818:	f907f8e3          	bgeu	a5,a6,800027a8 <memcpy+0x26>
    8000281c:	6198                	ld	a4,0(a1)
    8000281e:	07a1                	add	a5,a5,8
    80002820:	05a1                	add	a1,a1,8
    80002822:	fee7bc23          	sd	a4,-8(a5)
    80002826:	ff07ebe3          	bltu	a5,a6,8000281c <memcpy+0x9a>
    8000282a:	8082                	ret
    8000282c:	8082                	ret
    8000282e:	87aa                	mv	a5,a0
    80002830:	b7e5                	j	80002818 <memcpy+0x96>

0000000080002832 <memset>:
    80002832:	00c567b3          	or	a5,a0,a2
    80002836:	8b9d                	and	a5,a5,7
    80002838:	962a                	add	a2,a2,a0
    8000283a:	cf81                	beqz	a5,80002852 <memset+0x20>
    8000283c:	0ff5f713          	zext.b	a4,a1
    80002840:	87aa                	mv	a5,a0
    80002842:	02c57f63          	bgeu	a0,a2,80002880 <memset+0x4e>
    80002846:	0785                	add	a5,a5,1
    80002848:	fee78fa3          	sb	a4,-1(a5)
    8000284c:	fec79de3          	bne	a5,a2,80002846 <memset+0x14>
    80002850:	8082                	ret
    80002852:	010107b7          	lui	a5,0x1010
    80002856:	10178793          	add	a5,a5,257 # 1010101 <buflen.1+0x10100c1>
    8000285a:	07c2                	sll	a5,a5,0x10
    8000285c:	10178793          	add	a5,a5,257
    80002860:	07c2                	sll	a5,a5,0x10
    80002862:	0ff5f713          	zext.b	a4,a1
    80002866:	10178793          	add	a5,a5,257
    8000286a:	02f70733          	mul	a4,a4,a5
    8000286e:	fec571e3          	bgeu	a0,a2,80002850 <memset+0x1e>
    80002872:	87aa                	mv	a5,a0
    80002874:	07a1                	add	a5,a5,8
    80002876:	fee7bc23          	sd	a4,-8(a5)
    8000287a:	fec7ede3          	bltu	a5,a2,80002874 <memset+0x42>
    8000287e:	8082                	ret
    80002880:	8082                	ret

0000000080002882 <_init>:
    80002882:	7171                	add	sp,sp,-176
    80002884:	00006797          	auipc	a5,0x6
    80002888:	3e478793          	add	a5,a5,996 # 80008c68 <_tdata_begin>
    8000288c:	e152                	sd	s4,128(sp)
    8000288e:	00006a17          	auipc	s4,0x6
    80002892:	3daa0a13          	add	s4,s4,986 # 80008c68 <_tdata_begin>
    80002896:	e54e                	sd	s3,136(sp)
    80002898:	40fa09b3          	sub	s3,s4,a5
    8000289c:	ed26                	sd	s1,152(sp)
    8000289e:	e94a                	sd	s2,144(sp)
    800028a0:	84aa                	mv	s1,a0
    800028a2:	892e                	mv	s2,a1
    800028a4:	8512                	mv	a0,tp
    800028a6:	85be                	mv	a1,a5
    800028a8:	864e                	mv	a2,s3
    800028aa:	f506                	sd	ra,168(sp)
    800028ac:	f122                	sd	s0,160(sp)
    800028ae:	fcd6                	sd	s5,120(sp)
    800028b0:	8a92                	mv	s5,tp
    800028b2:	ed1ff0ef          	jal	80002782 <memcpy>
    800028b6:	00006617          	auipc	a2,0x6
    800028ba:	40e60613          	add	a2,a2,1038 # 80008cc4 <_tbss_end>
    800028be:	41460633          	sub	a2,a2,s4
    800028c2:	4581                	li	a1,0
    800028c4:	013a8533          	add	a0,s5,s3
    800028c8:	f6bff0ef          	jal	80002832 <memset>
    800028cc:	85ca                	mv	a1,s2
    800028ce:	8526                	mv	a0,s1
    800028d0:	df9ff0ef          	jal	800026c8 <thread_entry>
    800028d4:	4581                	li	a1,0
    800028d6:	4501                	li	a0,0
    800028d8:	144000ef          	jal	80002a1c <main>
    800028dc:	00006917          	auipc	s2,0x6
    800028e0:	36c90913          	add	s2,s2,876 # 80008c48 <counters>
    800028e4:	00093683          	ld	a3,0(s2)
    800028e8:	03f10413          	add	s0,sp,63
    800028ec:	fc047413          	and	s0,s0,-64
    800028f0:	84aa                	mv	s1,a0
    800028f2:	ea85                	bnez	a3,80002922 <_init+0xa0>
    800028f4:	00893683          	ld	a3,8(s2)
    800028f8:	e681                	bnez	a3,80002900 <_init+0x7e>
    800028fa:	8526                	mv	a0,s1
    800028fc:	d3dff0ef          	jal	80002638 <tohost_exit>
    80002900:	89a2                	mv	s3,s0
    80002902:	01893603          	ld	a2,24(s2)
    80002906:	854e                	mv	a0,s3
    80002908:	00000597          	auipc	a1,0x0
    8000290c:	1d858593          	add	a1,a1,472 # 80002ae0 <main+0xc4>
    80002910:	e33ff0ef          	jal	80002742 <sprintf>
    80002914:	99aa                	add	s3,s3,a0
    80002916:	ff3402e3          	beq	s0,s3,800028fa <_init+0x78>
    8000291a:	8522                	mv	a0,s0
    8000291c:	d55ff0ef          	jal	80002670 <printstr>
    80002920:	bfe9                	j	800028fa <_init+0x78>
    80002922:	01093603          	ld	a2,16(s2)
    80002926:	00000597          	auipc	a1,0x0
    8000292a:	1ba58593          	add	a1,a1,442 # 80002ae0 <main+0xc4>
    8000292e:	8522                	mv	a0,s0
    80002930:	e13ff0ef          	jal	80002742 <sprintf>
    80002934:	00893683          	ld	a3,8(s2)
    80002938:	00a409b3          	add	s3,s0,a0
    8000293c:	dee9                	beqz	a3,80002916 <_init+0x94>
    8000293e:	b7d1                	j	80002902 <_init+0x80>

0000000080002940 <strlen>:
    80002940:	00054783          	lbu	a5,0(a0)
    80002944:	cb89                	beqz	a5,80002956 <strlen+0x16>
    80002946:	87aa                	mv	a5,a0
    80002948:	0017c703          	lbu	a4,1(a5)
    8000294c:	0785                	add	a5,a5,1
    8000294e:	ff6d                	bnez	a4,80002948 <strlen+0x8>
    80002950:	40a78533          	sub	a0,a5,a0
    80002954:	8082                	ret
    80002956:	4501                	li	a0,0
    80002958:	8082                	ret

000000008000295a <strnlen>:
    8000295a:	00b506b3          	add	a3,a0,a1
    8000295e:	87aa                	mv	a5,a0
    80002960:	e589                	bnez	a1,8000296a <strnlen+0x10>
    80002962:	a829                	j	8000297c <strnlen+0x22>
    80002964:	0785                	add	a5,a5,1
    80002966:	00f68863          	beq	a3,a5,80002976 <strnlen+0x1c>
    8000296a:	0007c703          	lbu	a4,0(a5)
    8000296e:	fb7d                	bnez	a4,80002964 <strnlen+0xa>
    80002970:	40a78533          	sub	a0,a5,a0
    80002974:	8082                	ret
    80002976:	40a68533          	sub	a0,a3,a0
    8000297a:	8082                	ret
    8000297c:	4501                	li	a0,0
    8000297e:	8082                	ret

0000000080002980 <strcmp>:
    80002980:	00054783          	lbu	a5,0(a0)
    80002984:	0585                	add	a1,a1,1
    80002986:	0505                	add	a0,a0,1
    80002988:	fff5c703          	lbu	a4,-1(a1)
    8000298c:	c799                	beqz	a5,8000299a <strcmp+0x1a>
    8000298e:	fee789e3          	beq	a5,a4,80002980 <strcmp>
    80002992:	0007851b          	sext.w	a0,a5
    80002996:	9d19                	subw	a0,a0,a4
    80002998:	8082                	ret
    8000299a:	4501                	li	a0,0
    8000299c:	bfed                	j	80002996 <strcmp+0x16>

000000008000299e <strcpy>:
    8000299e:	87aa                	mv	a5,a0
    800029a0:	0005c703          	lbu	a4,0(a1)
    800029a4:	0785                	add	a5,a5,1
    800029a6:	0585                	add	a1,a1,1
    800029a8:	fee78fa3          	sb	a4,-1(a5)
    800029ac:	fb75                	bnez	a4,800029a0 <strcpy+0x2>
    800029ae:	8082                	ret

00000000800029b0 <atol>:
    800029b0:	00054703          	lbu	a4,0(a0)
    800029b4:	02000693          	li	a3,32
    800029b8:	87aa                	mv	a5,a0
    800029ba:	00d71763          	bne	a4,a3,800029c8 <atol+0x18>
    800029be:	0017c703          	lbu	a4,1(a5)
    800029c2:	0785                	add	a5,a5,1
    800029c4:	fed70de3          	beq	a4,a3,800029be <atol+0xe>
    800029c8:	02d00693          	li	a3,45
    800029cc:	04d70163          	beq	a4,a3,80002a0e <atol+0x5e>
    800029d0:	02b00693          	li	a3,43
    800029d4:	02d70763          	beq	a4,a3,80002a02 <atol+0x52>
    800029d8:	0007c683          	lbu	a3,0(a5)
    800029dc:	4581                	li	a1,0
    800029de:	ce8d                	beqz	a3,80002a18 <atol+0x68>
    800029e0:	4501                	li	a0,0
    800029e2:	0785                	add	a5,a5,1
    800029e4:	00251713          	sll	a4,a0,0x2
    800029e8:	fd06861b          	addw	a2,a3,-48
    800029ec:	0007c683          	lbu	a3,0(a5)
    800029f0:	972a                	add	a4,a4,a0
    800029f2:	0706                	sll	a4,a4,0x1
    800029f4:	00e60533          	add	a0,a2,a4
    800029f8:	f6ed                	bnez	a3,800029e2 <atol+0x32>
    800029fa:	c185                	beqz	a1,80002a1a <atol+0x6a>
    800029fc:	40a00533          	neg	a0,a0
    80002a00:	8082                	ret
    80002a02:	0017c683          	lbu	a3,1(a5)
    80002a06:	0785                	add	a5,a5,1
    80002a08:	ca81                	beqz	a3,80002a18 <atol+0x68>
    80002a0a:	4581                	li	a1,0
    80002a0c:	bfd1                	j	800029e0 <atol+0x30>
    80002a0e:	0017c683          	lbu	a3,1(a5)
    80002a12:	4585                	li	a1,1
    80002a14:	0785                	add	a5,a5,1
    80002a16:	f6e9                	bnez	a3,800029e0 <atol+0x30>
    80002a18:	4501                	li	a0,0
    80002a1a:	8082                	ret

Disassembly of section .text.startup:

0000000080002a1c <main>:
    80002a1c:	6505                	lui	a0,0x1
    80002a1e:	1141                	add	sp,sp,-16
    80002a20:	80050513          	add	a0,a0,-2048 # 800 <buflen.1+0x7c0>
    80002a24:	00004617          	auipc	a2,0x4
    80002a28:	22460613          	add	a2,a2,548 # 80006c48 <scratch.0>
    80002a2c:	00000597          	auipc	a1,0x0
    80002a30:	21c58593          	add	a1,a1,540 # 80002c48 <verify_data>
    80002a34:	e406                	sd	ra,8(sp)
    80002a36:	e0aff0ef          	jal	80002040 <sort>
    80002a3a:	00002517          	auipc	a0,0x2
    80002a3e:	20e50513          	add	a0,a0,526 # 80004c48 <input_data>
    80002a42:	dbeff0ef          	jal	80002000 <verify.constprop.0>
    80002a46:	c509                	beqz	a0,80002a50 <main+0x34>
    80002a48:	60a2                	ld	ra,8(sp)
    80002a4a:	4505                	li	a0,1
    80002a4c:	0141                	add	sp,sp,16
    80002a4e:	8082                	ret
    80002a50:	4505                	li	a0,1
    80002a52:	ba9ff0ef          	jal	800025fa <setStats>
    80002a56:	6505                	lui	a0,0x1
    80002a58:	00004617          	auipc	a2,0x4
    80002a5c:	1f060613          	add	a2,a2,496 # 80006c48 <scratch.0>
    80002a60:	00002597          	auipc	a1,0x2
    80002a64:	1e858593          	add	a1,a1,488 # 80004c48 <input_data>
    80002a68:	80050513          	add	a0,a0,-2048 # 800 <buflen.1+0x7c0>
    80002a6c:	dd4ff0ef          	jal	80002040 <sort>
    80002a70:	4501                	li	a0,0
    80002a72:	b89ff0ef          	jal	800025fa <setStats>
    80002a76:	60a2                	ld	ra,8(sp)
    80002a78:	00000517          	auipc	a0,0x0
    80002a7c:	1d050513          	add	a0,a0,464 # 80002c48 <verify_data>
    80002a80:	0141                	add	sp,sp,16
    80002a82:	d7eff06f          	j	80002000 <verify.constprop.0>
    80002a86:	1141                	add	sp,sp,-16
    80002a88:	00000517          	auipc	a0,0x0
    80002a8c:	04050513          	add	a0,a0,64 # 80002ac8 <main+0xac>
    80002a90:	e406                	sd	ra,8(sp)
    80002a92:	bdfff0ef          	jal	80002670 <printstr>
    80002a96:	60a2                	ld	ra,8(sp)
    80002a98:	557d                	li	a0,-1
    80002a9a:	0141                	add	sp,sp,16
    80002a9c:	8082                	ret

Disassembly of section .data:

0000000080002c48 <verify_data>:
    80002c48:	000a8b27          	vse8.v	v22,(s5),v0.t
    80002c4c:	bef4                	fsd	fa3,248(a3)
    80002c4e:	000d                	c.nop	3
    80002c50:	83c4                	.insn	2, 0x83c4
    80002c52:	0021                	c.nop	8
    80002c54:	9b62                	add	s6,s6,s8
    80002c56:	0026                	c.slli	zero,0x9
    80002c58:	0030356f          	jal	a0,8000645a <input_data+0x1812>
    80002c5c:	be92                	fsd	ft4,376(sp)
    80002c5e:	0035                	c.nop	13
    80002c60:	0039e5ef          	jal	a1,800a1462 <_tbss_end+0x9879e>
    80002c64:	82bc                	.insn	2, 0x82bc
    80002c66:	003d                	c.nop	15
    80002c68:	02d6                	sll	t0,t0,0x15
    80002c6a:	0051                	c.nop	20
    80002c6c:	d704                	sw	s1,40(a4)
    80002c6e:	0051                	c.nop	20
    80002c70:	00949033          	sll	zero,s1,s1
    80002c74:	1df9                	add	s11,s11,-2
    80002c76:	779600af          	.insn	4, 0x779600af
    80002c7a:	00c2                	sll	ra,ra,0x10
    80002c7c:	1040                	add	s0,sp,36
    80002c7e:	00c4                	add	s1,sp,68
    80002c80:	00c56a53          	fadd.s	fs4,fa0,fa2,unknown
    80002c84:	1f1d                	add	t5,t5,-25
    80002c86:	00c9                	add	ra,ra,18
    80002c88:	00d3e7bb          	.insn	4, 0x00d3e7bb
    80002c8c:	8b4c                	.insn	2, 0x8b4c
    80002c8e:	459500d7          	vmadc.vvm	v1,v25,v10,v0
    80002c92:	00d9                	add	ra,ra,22
    80002c94:	6bd8                	ld	a4,144(a5)
    80002c96:	00fa                	sll	ra,ra,0x1e
    80002c98:	0125630f          	.insn	4, 0x0125630f
    80002c9c:	ffb9                	bnez	a5,80002bfa <main+0x1de>
    80002c9e:	013a                	sll	sp,sp,0xe
    80002ca0:	d932                	sw	a2,176(sp)
    80002ca2:	0144                	add	s1,sp,132
    80002ca4:	c7f5                	beqz	a5,80002d90 <verify_data+0x148>
    80002ca6:	0151                	add	sp,sp,20
    80002ca8:	54ee                	lw	s1,248(sp)
    80002caa:	5b5b015b          	.insn	4, 0x5b5b015b
    80002cae:	00ad0163          	beq	s10,a0,80002cb0 <verify_data+0x68>
    80002cb2:	0174                	add	a3,sp,140
    80002cb4:	fa95                	bnez	a3,80002be8 <main+0x1cc>
    80002cb6:	018a                	sll	gp,gp,0x2
    80002cb8:	30b0                	fld	fa2,96(s1)
    80002cba:	0191                	add	gp,gp,4 # 8000744c <__global_pointer$+0x4>
    80002cbc:	019736cb          	fnmsub.s	fa3,fa4,fs9,ft0,rup
    80002cc0:	befe                	fsd	ft11,376(sp)
    80002cc2:	01a1                	add	gp,gp,8 # 80007450 <__global_pointer$+0x8>
    80002cc4:	9418                	.insn	2, 0x9418
    80002cc6:	01a4                	add	s1,sp,200
    80002cc8:	2a85                	addw	s5,s5,1
    80002cca:	532401af          	.insn	4, 0x532401af
    80002cce:	e9c701b7          	lui	gp,0xe9c70
    80002cd2:	01d8                	add	a4,sp,196
    80002cd4:	01db5cd7          	vfadd.vf	v25,v29,fs6,v0.t
    80002cd8:	c8a5                	beqz	s1,80002d48 <verify_data+0x100>
    80002cda:	01e1                	add	gp,gp,24 # ffffffffe9c70018 <_tbss_end+0xffffffff69c67354>
    80002cdc:	2134                	fld	fa3,64(a0)
    80002cde:	01e2                	sll	gp,gp,0x18
    80002ce0:	2442                	fld	fs0,16(sp)
    80002ce2:	021f 2b34 0223      	.insn	6, 0x02232b34021f
    80002ce8:	d6fc                	sw	a5,108(a3)
    80002cea:	0234                	add	a3,sp,264
    80002cec:	bdad                	j	80002b66 <main+0x14a>
    80002cee:	0236                	sll	tp,tp,0xd
    80002cf0:	4c36                	lw	s8,76(sp)
    80002cf2:	024d                	add	tp,tp,19 # 13 <buf.2+0x13>
    80002cf4:	8266                	mv	tp,s9
    80002cf6:	027c                	add	a5,sp,268
    80002cf8:	31ca                	fld	ft3,176(sp)
    80002cfa:	0281                	add	t0,t0,0
    80002cfc:	b6de                	fsd	fs7,360(sp)
    80002cfe:	029e                	sll	t0,t0,0x7
    80002d00:	b6a6                	fsd	fs1,360(sp)
    80002d02:	02cd                	add	t0,t0,19
    80002d04:	127d                	add	tp,tp,-1 # ffffffffffffffff <_tbss_end+0xffffffff7fff733b>
    80002d06:	02d4                	add	a3,sp,324
    80002d08:	3e02                	fld	ft8,32(sp)
    80002d0a:	02d4                	add	a3,sp,324
    80002d0c:	02e12ea7          	fsw	fa4,61(sp)
    80002d10:	4258                	lw	a4,4(a2)
    80002d12:	02e8                	add	a0,sp,332
    80002d14:	03065ce3          	bge	a2,a6,8000354c <verify_data+0x904>
    80002d18:	b802                	fsd	ft0,48(sp)
    80002d1a:	0309                	add	t1,t1,2
    80002d1c:	c325                	beqz	a4,80002d7c <verify_data+0x134>
    80002d1e:	0314                	add	a3,sp,384
    80002d20:	f686                	sd	ra,360(sp)
    80002d22:	0335                	add	t1,t1,13
    80002d24:	472e                	lw	a4,200(sp)
    80002d26:	034e                	sll	t1,t1,0x13
    80002d28:	705c                	ld	a5,160(s0)
    80002d2a:	55e00377          	.insn	4, 0x55e00377
    80002d2e:	0378                	add	a4,sp,396
    80002d30:	2382                	fld	ft7,0(sp)
    80002d32:	038a                	sll	t2,t2,0x2
    80002d34:	b6cd                	j	80002916 <_init+0x94>
    80002d36:	b922039b          	addw	t2,tp,-1134 # fffffffffffffb92 <_tbss_end+0xffffffff7fff6ece>
    80002d3a:	03ad                	add	t2,t2,11
    80002d3c:	3e1f 03b5 08ea      	.insn	6, 0x08ea03b53e1f
    80002d42:	03c5                	add	t2,t2,17
    80002d44:	b410                	fsd	fa2,40(s0)
    80002d46:	03dc                	add	a5,sp,452
    80002d48:	ea69                	bnez	a2,80002e1a <verify_data+0x1d2>
    80002d4a:	a10703f7          	.insn	4, 0xa10703f7
    80002d4e:	040e                	sll	s0,s0,0x3
    80002d50:	aaf4                	fsd	fa3,208(a3)
    80002d52:	041e                	sll	s0,s0,0x7
    80002d54:	6f58                	ld	a4,152(a4)
    80002d56:	042a                	sll	s0,s0,0xa
    80002d58:	042c2c93          	slti	s9,s8,66
    80002d5c:	c4c2                	sw	a6,72(sp)
    80002d5e:	0439                	add	s0,s0,14
    80002d60:	82a8                	.insn	2, 0x82a8
    80002d62:	e231044f          	fnmadd.d	fs0,ft2,ft3,ft8,rne
    80002d66:	0456                	sll	s0,s0,0x15
    80002d68:	f6c6                	sd	a7,360(sp)
    80002d6a:	0458                	add	a4,sp,516
    80002d6c:	b2da                	fsd	fs6,352(sp)
    80002d6e:	0476                	sll	s0,s0,0x1d
    80002d70:	7e24                	ld	s1,120(a2)
    80002d72:	0486                	sll	s1,s1,0x1
    80002d74:	86b6                	mv	a3,a3
    80002d76:	0498                	add	a4,sp,576
    80002d78:	49b6                	lw	s3,76(sp)
    80002d7a:	049e                	sll	s1,s1,0x7
    80002d7c:	80f2                	mv	ra,t3
    80002d7e:	9c1c04ab          	.insn	4, 0x9c1c04ab
    80002d82:	04c9                	add	s1,s1,18
    80002d84:	deea                	sw	s10,124(sp)
    80002d86:	04ca                	sll	s1,s1,0x12
    80002d88:	04d2734b          	.insn	4, 0x04d2734b
    80002d8c:	04da198b          	.insn	4, 0x04da198b
    80002d90:	a428                	fsd	fa0,72(s0)
    80002d92:	04f0                	add	a2,sp,588
    80002d94:	d981                	beqz	a1,80002ca4 <verify_data+0x5c>
    80002d96:	3571050f          	.insn	4, 0x3571050f
    80002d9a:	053d                	add	a0,a0,15
    80002d9c:	5552                	lw	a0,52(sp)
    80002d9e:	24a4054b          	.insn	4, 0x24a4054b
    80002da2:	0554                	add	a3,sp,644
    80002da4:	415f 055e 41a4      	.insn	6, 0x41a4055e415f
    80002daa:	f25c056f          	jal	a0,7ffc3cce <buflen.1+0x7ffc3c8e>
    80002dae:	057f 45bf 0585 efda 	.insn	10, 0x0588efda058545bf057f
    80002db6:	0588 
    80002db8:	058dfb67          	.insn	4, 0x058dfb67
    80002dbc:	05a5ef07          	vluxei32.v	v30,(a1),v26,v0.t
    80002dc0:	1220                	add	s0,sp,296
    80002dc2:	05b5                	add	a1,a1,13
    80002dc4:	6e11                	lui	t3,0x4
    80002dc6:	05ee                	sll	a1,a1,0x1b
    80002dc8:	a4ed                	j	800030b2 <verify_data+0x46a>
    80002dca:	063c                	add	a5,sp,776
    80002dcc:	0340                	add	s0,sp,388
    80002dce:	063e                	sll	a2,a2,0xf
    80002dd0:	091f 0648 d5d4      	.insn	6, 0xd5d40648091f
    80002dd6:	0654                	add	a3,sp,772
    80002dd8:	065a84b7          	lui	s1,0x65a8
    80002ddc:	06622783          	lw	a5,102(tp) # 66 <buflen.1+0x26>
    80002de0:	2422                	fld	fs0,8(sp)
    80002de2:	47c40663          	beq	s0,t3,8000324e <verify_data+0x606>
    80002de6:	0670                	add	a2,sp,780
    80002de8:	3ad6                	fld	fs5,368(sp)
    80002dea:	0675                	add	a2,a2,29
    80002dec:	417f 0676 895f 0679 	.insn	18, 0x864806873ee4067fc1000679895f0676417f
    80002df4:	c100 067f 3ee4 0687 
    80002dfc:	8648 
    80002dfe:	06ad                	add	a3,a3,11
    80002e00:	e19d                	bnez	a1,80002e26 <verify_data+0x1de>
    80002e02:	06b6                	sll	a3,a3,0xd
    80002e04:	06c34b8b          	.insn	4, 0x06c34b8b
    80002e08:	1870                	add	a2,sp,60
    80002e0a:	06c5                	add	a3,a3,17
    80002e0c:	9628                	.insn	2, 0x9628
    80002e0e:	06ce                	sll	a3,a3,0x13
    80002e10:	02e2                	sll	t0,t0,0x18
    80002e12:	b7c306db          	.insn	4, 0xb7c306db
    80002e16:	06f5                	add	a3,a3,29
    80002e18:	3fc0                	fld	fs0,184(a5)
    80002e1a:	06fd                	add	a3,a3,31
    80002e1c:	8f21                	xor	a4,a4,s0
    80002e1e:	06fd                	add	a3,a3,31
    80002e20:	f79f 0704 25d6      	.insn	6, 0x25d60704f79f
    80002e26:	071c                	add	a5,sp,896
    80002e28:	d1ee                	sw	s11,224(sp)
    80002e2a:	0721                	add	a4,a4,8
    80002e2c:	07477a3f 075a3493 	.insn	8, 0x075a349307477a3f
    80002e34:	076267bf 079f193f 	.insn	8, 0x079f193f076267bf
    80002e3c:	afe9                	j	80003616 <verify_data+0x9ce>
    80002e3e:	07a1                	add	a5,a5,8
    80002e40:	a8fc                	fsd	fa5,208(s1)
    80002e42:	154507bf 7b3807d5 	.insn	8, 0x7b3807d5154507bf
    80002e4a:	07f9                	add	a5,a5,30
    80002e4c:	08039873          	csrrw	a6,0x80,t2
    80002e50:	2215                	addw	tp,tp,5 # 5 <buf.2+0x5>
    80002e52:	080c                	add	a1,sp,16
    80002e54:	49ca                	lw	s3,144(sp)
    80002e56:	0816                	sll	a6,a6,0x5
    80002e58:	082b2a17          	auipc	s4,0x82b2
    80002e5c:	9b68                	.insn	2, 0x9b68
    80002e5e:	0836                	sll	a6,a6,0xd
    80002e60:	8469                	sra	s0,s0,0x1a
    80002e62:	0850                	add	a2,sp,20
    80002e64:	08606c9b          	.insn	4, 0x08606c9b
    80002e68:	da71                	beqz	a2,80002e3c <verify_data+0x1f4>
    80002e6a:	08ad                	add	a7,a7,11
    80002e6c:	08b3d3db          	.insn	4, 0x08b3d3db
    80002e70:	09fd                	add	s3,s3,31
    80002e72:	08d4                	add	a3,sp,84
    80002e74:	08da5b6b          	.insn	4, 0x08da5b6b
    80002e78:	2c11                	addw	s8,s8,4
    80002e7a:	08e4                	add	s1,sp,92
    80002e7c:	08fe3757          	.insn	4, 0x08fe3757
    80002e80:	6d30                	ld	a2,88(a0)
    80002e82:	0906                	sll	s2,s2,0x1
    80002e84:	8185                	srl	a1,a1,0x1
    80002e86:	03e50913          	add	s2,a0,62
    80002e8a:	094a                	sll	s2,s2,0x12
    80002e8c:	f9c1                	bnez	a1,80002e1c <verify_data+0x1d4>
    80002e8e:	f94f0953          	.insn	4, 0xf94f0953
    80002e92:	89600957          	vssubu.vv	v18,v22,v0,v0.t
    80002e96:	099f 54b6 09a0      	.insn	6, 0x09a054b6099f
    80002e9c:	b5b6                	fsd	fa3,232(sp)
    80002e9e:	09bc                	add	a5,sp,216
    80002ea0:	09fe3077          	.insn	4, 0x09fe3077
    80002ea4:	4130                	lw	a2,64(a0)
    80002ea6:	379b0a0f          	.insn	4, 0x379b0a0f
    80002eaa:	d3450a17          	auipc	s4,0xd3450
    80002eae:	0a1d                	add	s4,s4,7 # 53452eb1 <buflen.1+0x53452e71>
    80002eb0:	4a15                	li	s4,5
    80002eb2:	0a26                	sll	s4,s4,0x9
    80002eb4:	2f1a                	fld	ft10,384(sp)
    80002eb6:	0a42                	sll	s4,s4,0x10
    80002eb8:	0a50ba03          	ld	s4,165(ra)
    80002ebc:	53d9                	li	t2,-10
    80002ebe:	0a5c                	add	a5,sp,276
    80002ec0:	48d2                	lw	a7,20(sp)
    80002ec2:	0a60                	add	s0,sp,284
    80002ec4:	0a6dc44f          	fnmadd.d	fs0,fs11,ft6,ft1,rmm
    80002ec8:	c97f 0a79 2930 0a7b 	.insn	18, 0xd0990a8e58740a7dea250a7b29300a79c97f
    80002ed0:	ea25 0a7d 5874 0a8e 
    80002ed8:	d099 
    80002eda:	0aa9                	add	s5,s5,10
    80002edc:	f591                	bnez	a1,80002de8 <verify_data+0x1a0>
    80002ede:	0ac2                	sll	s5,s5,0x10
    80002ee0:	0ac3bca3          	sd	a2,185(t2)
    80002ee4:	8142                	mv	sp,a6
    80002ee6:	0ad2                	sll	s5,s5,0x14
    80002ee8:	3aae                	fld	fs5,232(sp)
    80002eea:	0ae2                	sll	s5,s5,0x18
    80002eec:	ba5a                	fsd	fs6,304(sp)
    80002eee:	0af2                	sll	s5,s5,0x1c
    80002ef0:	0b0fe933          	.insn	4, 0x0b0fe933
    80002ef4:	eae8                	sd	a0,208(a3)
    80002ef6:	0b10                	add	a2,sp,400
    80002ef8:	d360                	sw	s0,100(a4)
    80002efa:	0b15                	add	s6,s6,5
    80002efc:	dbe0                	sw	s0,116(a5)
    80002efe:	dcd00b17          	auipc	s6,0xdcd00
    80002f02:	0b18                	add	a4,sp,400
    80002f04:	e892                	sd	tp,80(sp)
    80002f06:	0b34                	add	a3,sp,408
    80002f08:	0b5676e3          	bgeu	a2,s5,800037b4 <verify_data+0xb6c>
    80002f0c:	5a9a                	lw	s5,164(sp)
    80002f0e:	7c260b5b          	.insn	4, 0x7c260b5b
    80002f12:	0b5f 4814 0b8e      	.insn	6, 0x0b8e48140b5f
    80002f18:	3f66                	fld	ft10,120(sp)
    80002f1a:	0ba5                	add	s7,s7,9
    80002f1c:	db0a                	sw	sp,180(sp)
    80002f1e:	0bb4                	add	a3,sp,472
    80002f20:	b420                	fsd	fs0,104(s0)
    80002f22:	0bcc                	add	a1,sp,468
    80002f24:	16b9                	add	a3,a3,-18
    80002f26:	0bd0                	add	a2,sp,468
    80002f28:	cd60                	sw	s0,92(a0)
    80002f2a:	0bd0                	add	a2,sp,468
    80002f2c:	0919                	add	s2,s2,6
    80002f2e:	0bed                	add	s7,s7,27
    80002f30:	9f16                	add	t5,t5,t0
    80002f32:	f2ea0bef          	jal	s7,7ffa3660 <buflen.1+0x7ffa3620>
    80002f36:	0c11                	add	s8,s8,4
    80002f38:	0c30a657          	vredxor.vs	v12,v3,v1,v0.t
    80002f3c:	2cec                	fld	fa1,216(s1)
    80002f3e:	0c38                	add	a4,sp,536
    80002f40:	0c514963          	blt	sp,t0,80003012 <verify_data+0x3ca>
    80002f44:	45e2                	lw	a1,24(sp)
    80002f46:	0c68                	add	a0,sp,540
    80002f48:	6fc0                	ld	s0,152(a5)
    80002f4a:	0c6c                	add	a1,sp,540
    80002f4c:	d928                	sw	a0,112(a0)
    80002f4e:	0c85                	add	s9,s9,1
    80002f50:	c4ff 0c8f 366e 0c92 	.insn	18, 0x75090caf65910ca390c00c92366e0c8fc4ff
    80002f58:	90c0 0ca3 6591 0caf 
    80002f60:	7509 
    80002f62:	0ccc                	add	a1,sp,596
    80002f64:	ea80                	sd	s0,16(a3)
    80002f66:	0cd0                	add	a2,sp,596
    80002f68:	8aa1                	and	a3,a3,8
    80002f6a:	0ce6                	sll	s9,s9,0x19
    80002f6c:	68ec                	ld	a1,208(s1)
    80002f6e:	0ce8                	add	a0,sp,604
    80002f70:	cc9f 0cfa a7e9      	.insn	6, 0xa7e90cfacc9f
    80002f76:	0d08                	add	a0,sp,656
    80002f78:	3b0a                	fld	fs6,160(sp)
    80002f7a:	0d31                	add	s10,s10,12
    80002f7c:	0d36494b          	.insn	4, 0x0d36494b
    80002f80:	88d1                	and	s1,s1,20
    80002f82:	9e8b0d43          	.insn	4, 0x9e8b0d43
    80002f86:	0d6a                	sll	s10,s10,0x1a
    80002f88:	18cd                	add	a7,a7,-13
    80002f8a:	7e030d77          	.insn	4, 0x7e030d77
    80002f8e:	85140d77          	.insn	4, 0x85140d77
    80002f92:	90d40d83          	lb	s11,-1779(s0)
    80002f96:	507c0d83          	lb	s11,1287(s8)
    80002f9a:	0d86                	sll	s11,s11,0x1
    80002f9c:	0d8789af          	.insn	4, 0x0d8789af
    80002fa0:	0d8e43d3          	.insn	4, 0x0d8e43d3
    80002fa4:	05ac                	add	a1,sp,712
    80002fa6:	0d95                	add	s11,s11,5
    80002fa8:	a911                	j	800033bc <verify_data+0x774>
    80002faa:	0da5                	add	s11,s11,9
    80002fac:	1500                	add	s0,sp,672
    80002fae:	0db4                	add	a3,sp,728
    80002fb0:	b6ca                	fsd	fs2,360(sp)
    80002fb2:	0dba                	sll	s11,s11,0xe
    80002fb4:	323a                	fld	ft4,424(sp)
    80002fb6:	8d110dbf a4550dc7 	.insn	8, 0xa4550dc78d110dbf
    80002fbe:	0dd6                	sll	s11,s11,0x15
    80002fc0:	27b1                	addw	a5,a5,12
    80002fc2:	124f0df3          	.insn	4, 0x124f0df3
    80002fc6:	0e1e                	sll	t3,t3,0x7
    80002fc8:	0e20a51b          	.insn	4, 0x0e20a51b
    80002fcc:	d8e0                	sw	s0,116(s1)
    80002fce:	3b240e33          	.insn	4, 0x3b240e33
    80002fd2:	0e38                	add	a4,sp,792
    80002fd4:	f698                	sd	a4,40(a3)
    80002fd6:	0e4d                	add	t3,t3,19 # 4013 <buflen.1+0x3fd3>
    80002fd8:	0e578ce3          	beq	a5,t0,800038d0 <verify_data+0xc88>
    80002fdc:	b631                	j	80002ae8 <main+0xcc>
    80002fde:	0e64                	add	s1,sp,796
    80002fe0:	938a                	add	t2,t2,sp
    80002fe2:	0e65                	add	t3,t3,25
    80002fe4:	3a1d                	addw	s4,s4,-25
    80002fe6:	0e68                	add	a0,sp,796
    80002fe8:	f848                	sd	a0,176(s0)
    80002fea:	0e95                	add	t4,t4,5
    80002fec:	06c9                	add	a3,a3,18
    80002fee:	0e9a                	sll	t4,t4,0x6
    80002ff0:	83b2                	mv	t2,a2
    80002ff2:	0e9f a14b 0ebc      	.insn	6, 0x0ebca14b0e9f
    80002ff8:	be14                	fsd	fa3,56(a2)
    80002ffa:	c3680ebf 1ec70ebf 	.insn	8, 0x1ec70ebfc3680ebf
    80003002:	0ee2                	sll	t4,t4,0x18
    80003004:	0ee70b53          	.insn	4, 0x0ee70b53
    80003008:	ab91                	j	8000355c <verify_data+0x914>
    8000300a:	0ee8                	add	a0,sp,860
    8000300c:	db66                	sw	s9,180(sp)
    8000300e:	0ef1                	add	t4,t4,28
    80003010:	cfda                	sw	s6,220(sp)
    80003012:	cd000ef3          	.insn	4, 0xcd000ef3
    80003016:	0efd                	add	t4,t4,31
    80003018:	2f3e                	fld	ft10,456(sp)
    8000301a:	0f22                	sll	t5,t5,0x8
    8000301c:	73da                	ld	t2,432(sp)
    8000301e:	0f36                	sll	t5,t5,0xd
    80003020:	760e                	ld	a2,224(sp)
    80003022:	0f45                	add	t5,t5,17
    80003024:	61f6                	ld	gp,344(sp)
    80003026:	9eb70f4f          	.insn	4, 0x9eb70f4f
    8000302a:	0f5c                	add	a5,sp,916
    8000302c:	0f637b73          	csrrc	s6,0xf6,6
    80003030:	c1b1                	beqz	a1,80003074 <verify_data+0x42c>
    80003032:	dcbd0f7b          	.insn	4, 0xdcbd0f7b
    80003036:	5fc40f7b          	.insn	4, 0x5fc40f7b
    8000303a:	82b70f83          	lb	t6,-2005(a4)
    8000303e:	0f89                	add	t6,t6,2
    80003040:	9338                	.insn	2, 0x9338
    80003042:	0f89                	add	t6,t6,2
    80003044:	0f8b5fbf 0f97096e 	.insn	8, 0x0f97096e0f8b5fbf
    8000304c:	1efe                	sll	t4,t4,0x3f
    8000304e:	0fd1                	add	t6,t6,20
    80003050:	c2dc                	sw	a5,4(a3)
    80003052:	0fec                	add	a1,sp,988
    80003054:	b0dc                	fsd	fa5,160(s1)
    80003056:	0ffa                	sll	t6,t6,0x1e
    80003058:	2d4e                	fld	fs10,208(sp)
    8000305a:	233d100b          	.insn	4, 0x233d100b
    8000305e:	101e                	c.slli	zero,0x27
    80003060:	10244d23          	.insn	4, 0x10244d23
    80003064:	f81f 1034 4c25      	.insn	6, 0x4c251034f81f
    8000306a:	1060                	add	s0,sp,44
    8000306c:	45f5                	li	a1,29
    8000306e:	108a                	sll	ra,ra,0x22
    80003070:	0f29                	add	t5,t5,10
    80003072:	1091                	add	ra,ra,-28
    80003074:	0db2                	sll	s11,s11,0xc
    80003076:	10a5                	add	ra,ra,-23
    80003078:	8f9a                	mv	t6,t1
    8000307a:	10c4                	add	s1,sp,100
    8000307c:	10e4ceaf          	.insn	4, 0x10e4ceaf
    80003080:	8979                	and	a0,a0,30
    80003082:	dde610f7          	.insn	4, 0xdde610f7
    80003086:	1122                	sll	sp,sp,0x28
    80003088:	112b5d0f          	.insn	4, 0x112b5d0f
    8000308c:	43c8                	lw	a0,4(a5)
    8000308e:	1144                	add	s1,sp,164
    80003090:	dc36                	sw	a3,56(sp)
    80003092:	115c                	add	a5,sp,164
    80003094:	7eec                	ld	a1,248(a3)
    80003096:	1178                	add	a4,sp,172
    80003098:	0002                	c.slli64	zero
    8000309a:	1189                	add	gp,gp,-30 # 8000742a <scratch.0+0x7e2>
    8000309c:	119f8227          	.insn	4, 0x119f8227
    800030a0:	4fc8                	lw	a0,28(a5)
    800030a2:	182611cf          	fnmadd.s	ft3,fa2,ft2,ft3,rtz
    800030a6:	11da                	sll	gp,gp,0x36
    800030a8:	8de8                	.insn	2, 0x8de8
    800030aa:	11e4                	add	s1,sp,236
    800030ac:	12e0                	add	s0,sp,364
    800030ae:	3fa611eb          	.insn	4, 0x3fa611eb
    800030b2:	11f6                	sll	gp,gp,0x3d
    800030b4:	04bd                	add	s1,s1,15 # 65a800f <buflen.1+0x65a7fcf>
    800030b6:	2b6111fb          	.insn	4, 0x2b6111fb
    800030ba:	824211fb          	.insn	4, 0x824211fb
    800030be:	51f61203          	lh	tp,1311(a2)
    800030c2:	121c                	add	a5,sp,288
    800030c4:	acb4                	fsd	fa3,88(s1)
    800030c6:	1220                	add	s0,sp,296
    800030c8:	e474                	sd	a3,200(s0)
    800030ca:	1221                	add	tp,tp,-24 # ffffffffffffffe8 <_tbss_end+0xffffffff7fff7324>
    800030cc:	321c                	fld	fa5,32(a2)
    800030ce:	1225                	add	tp,tp,-23 # ffffffffffffffe9 <_tbss_end+0xffffffff7fff7325>
    800030d0:	671f 1235 6343      	.insn	6, 0x63431235671f
    800030d6:	1239                	add	tp,tp,-18 # ffffffffffffffee <_tbss_end+0xffffffff7fff732a>
    800030d8:	c895                	beqz	s1,8000310c <verify_data+0x4c4>
    800030da:	63be125b          	.insn	4, 0x63be125b
    800030de:	1266                	sll	tp,tp,0x39
    800030e0:	6746                	ld	a4,80(sp)
    800030e2:	1268                	add	a0,sp,300
    800030e4:	c920                	sw	s0,80(a0)
    800030e6:	1268                	add	a0,sp,300
    800030e8:	6408                	ld	a0,8(s0)
    800030ea:	127e                	sll	tp,tp,0x3f
    800030ec:	6db5                	lui	s11,0xd
    800030ee:	1744128b          	.insn	4, 0x1744128b
    800030f2:	12dd                	add	t0,t0,-9
    800030f4:	12f40083          	lb	ra,303(s0)
    800030f8:	bfaa                	fsd	fa0,504(sp)
    800030fa:	e74112ff c0ac1314 	.insn	12, 0x2441133cc0ac1314e74112ff
    80003102:	2441133c 
    80003106:	0e9b1353          	.insn	4, 0x0e9b1353
    8000310a:	1364                	add	s1,sp,428
    8000310c:	136948cb          	fnmsub.d	fa7,fs2,fs6,ft2,rmm
    80003110:	4dd8                	lw	a4,28(a1)
    80003112:	1395                	add	t2,t2,-27
    80003114:	e4b2                	sd	a2,72(sp)
    80003116:	139c                	add	a5,sp,480
    80003118:	db86                	sw	ra,244(sp)
    8000311a:	a26a13a7          	.insn	4, 0xa26a13a7
    8000311e:	13b2                	sll	t2,t2,0x2c
    80003120:	13bf00c7          	fmsub.d	ft1,ft10,fs11,ft2,rne
    80003124:	13ccfe2f          	.insn	4, 0x13ccfe2f
    80003128:	b436                	fsd	fa3,40(sp)
    8000312a:	13e5                	add	t2,t2,-7
    8000312c:	13e702e3          	beq	a4,t5,80003a50 <verify_data+0xe08>
    80003130:	0138                	add	a4,sp,136
    80003132:	13e9                	add	t2,t2,-6
    80003134:	a794                	fsd	fa3,8(a5)
    80003136:	13fe                	sll	t2,t2,0x3f
    80003138:	140a3777          	.insn	4, 0x140a3777
    8000313c:	98ae                	add	a7,a7,a1
    8000313e:	142d                	add	s0,s0,-21
    80003140:	8655                	sra	a2,a2,0x15
    80003142:	bdd61447          	.insn	4, 0xbdd61447
    80003146:	144a                	sll	s0,s0,0x32
    80003148:	81a2                	mv	gp,s0
    8000314a:	145a                	sll	s0,s0,0x36
    8000314c:	145d8bd7          	vmin.vv	v23,v5,v27,v0.t
    80003150:	14624fa3          	.insn	4, 0x14624fa3
    80003154:	5a5e                	lw	s4,244(sp)
    80003156:	1472                	sll	s0,s0,0x3c
    80003158:	14739627          	.insn	4, 0x14739627
    8000315c:	2e08                	fld	fa0,24(a2)
    8000315e:	147c                	add	a5,sp,556
    80003160:	e22a                	sd	a0,256(sp)
    80003162:	1488                	add	a0,sp,608
    80003164:	2630                	fld	fa2,72(a2)
    80003166:	148e                	sll	s1,s1,0x23
    80003168:	14a8aca7          	fsw	fa0,345(a7)
    8000316c:	108a                	sll	ra,ra,0x22
    8000316e:	14c0                	add	s0,sp,612
    80003170:	14d11f33          	.insn	4, 0x14d11f33
    80003174:	14df5beb          	.insn	4, 0x14df5beb
    80003178:	26d6                	fld	fa3,336(sp)
    8000317a:	caae14f7          	.insn	4, 0xcaae14f7
    8000317e:	1518                	add	a4,sp,672
    80003180:	3f1e                	fld	ft10,480(sp)
    80003182:	1532                	sll	a0,a0,0x2c
    80003184:	7742                	ld	a4,48(sp)
    80003186:	1540                	add	s0,sp,676
    80003188:	1541dfdb          	.insn	4, 0x1541dfdb
    8000318c:	63a5                	lui	t2,0x9
    8000318e:	1542                	sll	a0,a0,0x30
    80003190:	1fe2                	sll	t6,t6,0x38
    80003192:	1571                	add	a0,a0,-4
    80003194:	d1f1                	beqz	a1,80003158 <verify_data+0x510>
    80003196:	157e                	sll	a0,a0,0x3f
    80003198:	18e0                	add	s0,sp,124
    8000319a:	159f b440 15aa      	.insn	6, 0x15aab440159f
    800031a0:	15bb2fe7          	.insn	4, 0x15bb2fe7
    800031a4:	a9d0                	fsd	fa2,144(a1)
    800031a6:	a7d115bb          	.insn	4, 0xa7d115bb
    800031aa:	15c5                	add	a1,a1,-15
    800031ac:	7f16                	ld	t5,352(sp)
    800031ae:	15ce                	sll	a1,a1,0x33
    800031b0:	68b2                	ld	a7,264(sp)
    800031b2:	0f8915db          	.insn	4, 0x0f8915db
    800031b6:	15ee                	sll	a1,a1,0x3b
    800031b8:	15f77ee7          	.insn	4, 0x15f77ee7
    800031bc:	15fcce2f          	.insn	4, 0x15fcce2f
    800031c0:	12d6                	sll	t0,t0,0x35
    800031c2:	1629                	add	a2,a2,-22
    800031c4:	8dc1                	or	a1,a1,s0
    800031c6:	1630                	add	a2,sp,808
    800031c8:	5f2d                	li	t5,-21
    800031ca:	eb5f1633          	.insn	4, 0xeb5f1633
    800031ce:	fd611633          	.insn	4, 0xfd611633
    800031d2:	163e                	sll	a2,a2,0x2f
    800031d4:	2ff2                	fld	ft11,280(sp)
    800031d6:	1640                	add	s0,sp,804
    800031d8:	379a                	fld	fa5,416(sp)
    800031da:	39421667          	.insn	4, 0x39421667
    800031de:	1675                	add	a2,a2,-3
    800031e0:	bf1f 1695 42fc      	.insn	6, 0x42fc1695bf1f
    800031e6:	169e                	sll	a3,a3,0x27
    800031e8:	6ad2                	ld	s5,272(sp)
    800031ea:	0ad616a7          	.insn	4, 0x0ad616a7
    800031ee:	534b16b7          	lui	a3,0x534b1
    800031f2:	16be                	sll	a3,a3,0x2f
    800031f4:	d8e5                	beqz	s1,800031e4 <verify_data+0x59c>
    800031f6:	4eab16c3          	.insn	4, 0x4eab16c3
    800031fa:	098116cb          	fnmsub.s	fa3,ft2,fs8,ft1,rtz
    800031fe:	1700                	add	s0,sp,928
    80003200:	1692                	sll	a3,a3,0x24
    80003202:	170d                	add	a4,a4,-29
    80003204:	1621                	add	a2,a2,-24
    80003206:	1712                	sll	a4,a4,0x24
    80003208:	17155447          	.insn	4, 0x17155447
    8000320c:	7b35                	lui	s6,0xfffed
    8000320e:	171a                	sll	a4,a4,0x26
    80003210:	172d75a3          	.insn	4, 0x172d75a3
    80003214:	3a26                	fld	fs4,104(sp)
    80003216:	46e31733          	.insn	4, 0x46e31733
    8000321a:	174a                	sll	a4,a4,0x32
    8000321c:	1753184b          	.insn	4, 0x1753184b
    80003220:	b7d5                	j	80003204 <verify_data+0x5bc>
    80003222:	1790                	add	a2,sp,992
    80003224:	394c                	fld	fa1,176(a0)
    80003226:	17bc                	add	a5,sp,1000
    80003228:	bb4a                	fsd	fs2,432(sp)
    8000322a:	17bc                	add	a5,sp,1000
    8000322c:	e6da                	sd	s6,328(sp)
    8000322e:	17c6                	sll	a5,a5,0x31
    80003230:	ff59                	bnez	a4,800031ce <verify_data+0x586>
    80003232:	17c9                	add	a5,a5,-14
    80003234:	3abd                	addw	s5,s5,-17
    80003236:	61c617cf          	fnmadd.s	fa5,fa2,ft8,fa2,rtz
    8000323a:	974017d7          	.insn	4, 0x974017d7
    8000323e:	17ed                	add	a5,a5,-5
    80003240:	eeec                	sd	a1,216(a3)
    80003242:	1802                	sll	a6,a6,0x20
    80003244:	10d2                	sll	ra,ra,0x34
    80003246:	1aef180b          	.insn	4, 0x1aef180b
    8000324a:	184e                	sll	a6,a6,0x33
    8000324c:	8e8d                	sub	a3,a3,a1
    8000324e:	188c                	add	a1,sp,112
    80003250:	c656                	sw	s5,12(sp)
    80003252:	189e                	sll	a7,a7,0x27
    80003254:	a1ce                	fsd	fs3,192(sp)
    80003256:	18d2                	sll	a7,a7,0x34
    80003258:	9675                	sra	a2,a2,0x3d
    8000325a:	3dfe18e3          	bne	t3,t6,80003e2a <verify_data+0x11e2>
    8000325e:	18fa                	sll	a7,a7,0x3e
    80003260:	19de                	sll	s3,s3,0x37
    80003262:	b28018fb          	.insn	4, 0xb28018fb
    80003266:	1900                	add	s0,sp,176
    80003268:	4ff0                	lw	a2,92(a5)
    8000326a:	190a                	sll	s2,s2,0x22
    8000326c:	191afacb          	fnmsub.s	fs5,fs5,fa7,ft3
    80003270:	ed44                	sd	s1,152(a0)
    80003272:	0a531927          	.insn	4, 0x0a531927
    80003276:	b1bf193b          	.insn	4, 0xb1bf193b
    8000327a:	194e                	sll	s2,s2,0x33
    8000327c:	19a2b58b          	.insn	4, 0x19a2b58b
    80003280:	5cc9                	li	s9,-14
    80003282:	19c1                	add	s3,s3,-16
    80003284:	1980                	add	s0,sp,240
    80003286:	19c9                	add	s3,s3,-14
    80003288:	19cee96b          	.insn	4, 0x19cee96b
    8000328c:	59f1                	li	s3,-4
    8000328e:	19d5                	add	s3,s3,-11
    80003290:	4af1                	li	s5,28
    80003292:	306d19eb          	.insn	4, 0x306d19eb
    80003296:	19f1                	add	s3,s3,-4
    80003298:	f8f2                	sd	t3,112(sp)
    8000329a:	19f1                	add	s3,s3,-4
    8000329c:	1886                	sll	a7,a7,0x21
    8000329e:	1a04                	add	s1,sp,304
    800032a0:	af00                	fsd	fs0,24(a4)
    800032a2:	1a05                	add	s4,s4,-31
    800032a4:	1a067347          	fmsub.d	ft6,fa2,ft0,ft3
    800032a8:	efe9                	bnez	a5,80003382 <verify_data+0x73a>
    800032aa:	1a16                	sll	s4,s4,0x25
    800032ac:	34a2                	fld	fs1,40(sp)
    800032ae:	1a26                	sll	s4,s4,0x29
    800032b0:	6680                	ld	s0,8(a3)
    800032b2:	1a72                	sll	s4,s4,0x3c
    800032b4:	6a3e                	ld	s4,456(sp)
    800032b6:	1a7c                	add	a5,sp,316
    800032b8:	1a9b193f 1ab845a1 	.insn	8, 0x1ab845a11a9b193f
    800032c0:	c174                	sw	a3,68(a0)
    800032c2:	1abe                	sll	s5,s5,0x2f
    800032c4:	8f99                	sub	a5,a5,a4
    800032c6:	1ae8                	add	a0,sp,380
    800032c8:	88d5                	and	s1,s1,21
    800032ca:	1afe                	sll	s5,s5,0x3f
    800032cc:	fbb4                	sd	a3,112(a5)
    800032ce:	1b14                	add	a3,sp,432
    800032d0:	2e78                	fld	fa4,216(a2)
    800032d2:	1b16                	sll	s6,s6,0x25
    800032d4:	1b1ae0d3          	fdiv.d	ft1,fs5,fa7,unknown
    800032d8:	d252                	sw	s4,36(sp)
    800032da:	0fbf1b2b          	.insn	4, 0x0fbf1b2b
    800032de:	1b35                	add	s6,s6,-19 # fffffffffffecfed <_tbss_end+0xffffffff7ffe4329>
    800032e0:	fb86                	sd	ra,496(sp)
    800032e2:	1b60                	add	s0,sp,444
    800032e4:	1b717563          	bgeu	sp,s7,8000348e <verify_data+0x846>
    800032e8:	ab66                	fsd	fs9,400(sp)
    800032ea:	1b78                	add	a4,sp,444
    800032ec:	0f16                	sll	t5,t5,0x5
    800032ee:	1b81                	add	s7,s7,-32
    800032f0:	1b825af3          	csrrw	s5,0x1b8,4
    800032f4:	e83e                	sd	a5,16(sp)
    800032f6:	1b94                	add	a3,sp,496
    800032f8:	a632                	fsd	fa2,264(sp)
    800032fa:	1b96                	sll	s7,s7,0x25
    800032fc:	1baab177          	.insn	4, 0x1baab177
    80003300:	1bb4383f 1bb928d5 	.insn	8, 0x1bb928d51bb4383f
    80003308:	0309                	add	t1,t1,2
    8000330a:	1c05                	add	s8,s8,-31
    8000330c:	84d0                	.insn	2, 0x84d0
    8000330e:	1c2d                	add	s8,s8,-21
    80003310:	1c2f74ab          	.insn	4, 0x1c2f74ab
    80003314:	4355                	li	t1,21
    80003316:	1c36                	sll	s8,s8,0x2d
    80003318:	4b00                	lw	s0,16(a4)
    8000331a:	a9601c73          	csrrw	s8,0xa96,zero
    8000331e:	1c74                	add	a3,sp,572
    80003320:	b4a9                	j	80002d6a <verify_data+0x122>
    80003322:	1c88                	add	a0,sp,624
    80003324:	0ac5                	add	s5,s5,17
    80003326:	1cb4                	add	a3,sp,632
    80003328:	12d4                	add	a3,sp,356
    8000332a:	1cb4                	add	a3,sp,632
    8000332c:	bb55                	j	800030e0 <verify_data+0x498>
    8000332e:	1cc8                	add	a0,sp,628
    80003330:	1ccf4e3b          	.insn	4, 0x1ccf4e3b
    80003334:	000d                	c.nop	3
    80003336:	1cf5                	add	s9,s9,-3
    80003338:	4c05                	li	s8,1
    8000333a:	1cfa                	sll	s9,s9,0x3e
    8000333c:	88a1                	and	s1,s1,8
    8000333e:	1cfa                	sll	s9,s9,0x3e
    80003340:	9565                	sra	a0,a0,0x39
    80003342:	1d14                	add	a3,sp,688
    80003344:	da5f 1d42 1082      	.insn	6, 0x10821d42da5f
    8000334a:	71bc1d5b          	.insn	4, 0x71bc1d5b
    8000334e:	97091d77          	.insn	4, 0x97091d77
    80003352:	1d82                	sll	s11,s11,0x20
    80003354:	daea                	sw	s10,116(sp)
    80003356:	1dac                	add	a1,sp,760
    80003358:	9829                	and	s0,s0,-22
    8000335a:	1db9                	add	s11,s11,-18 # cfee <buflen.1+0xcfae>
    8000335c:	d75f 1dcb 2524      	.insn	6, 0x25241dcbd75f
    80003362:	9af51dd3          	.insn	4, 0x9af51dd3
    80003366:	1dd8                	add	a4,sp,756
    80003368:	8a44                	.insn	2, 0x8a44
    8000336a:	daf91def          	jal	s11,7ff95118 <buflen.1+0x7ff950d8>
    8000336e:	1df0                	add	a2,sp,764
    80003370:	6e48                	ld	a0,152(a2)
    80003372:	1df4                	add	a3,sp,764
    80003374:	c9c9                	beqz	a1,80003406 <verify_data+0x7be>
    80003376:	1e00                	add	s0,sp,816
    80003378:	d51d                	beqz	a0,800032a6 <verify_data+0x65e>
    8000337a:	1e08                	add	a0,sp,816
    8000337c:	1e300f6b          	.insn	4, 0x1e300f6b
    80003380:	25de                	fld	fa1,464(sp)
    80003382:	1e45                	add	t3,t3,-15
    80003384:	8062                	c.mv	zero,s8
    80003386:	1e46                	sll	t3,t3,0x31
    80003388:	1e48192b          	.insn	4, 0x1e48192b
    8000338c:	7f46                	ld	t5,112(sp)
    8000338e:	1e58                	add	a4,sp,820
    80003390:	1641                	add	a2,a2,-16
    80003392:	1e62                	sll	t3,t3,0x38
    80003394:	47e8                	lw	a0,76(a5)
    80003396:	1e6d                	add	t3,t3,-5
    80003398:	932c                	.insn	2, 0x932c
    8000339a:	1e6d                	add	t3,t3,-5
    8000339c:	0b6e                	sll	s6,s6,0x1b
    8000339e:	1e8c                	add	a1,sp,880
    800033a0:	e911                	bnez	a0,800033b4 <verify_data+0x76c>
    800033a2:	540d1e93          	.insn	4, 0x540d1e93
    800033a6:	1e9c                	add	a5,sp,880
    800033a8:	1e9ca763          	.insn	4, 0x1e9ca763
    800033ac:	49c4                	lw	s1,20(a1)
    800033ae:	1ea6                	sll	t4,t4,0x29
    800033b0:	f87d                	bnez	s0,800033a6 <verify_data+0x75e>
    800033b2:	1eb0                	add	a2,sp,888
    800033b4:	98ac                	.insn	2, 0x98ac
    800033b6:	1eb8                	add	a4,sp,888
    800033b8:	a950                	fsd	fa2,144(a0)
    800033ba:	1ebe                	sll	t4,t4,0x2f
    800033bc:	8110                	.insn	2, 0x8110
    800033be:	1edc                	add	a5,sp,884
    800033c0:	2d32                	fld	fs10,264(sp)
    800033c2:	1ee1                	add	t4,t4,-8
    800033c4:	4855                	li	a6,21
    800033c6:	1ef2                	sll	t4,t4,0x3c
    800033c8:	1ef490c3          	.insn	4, 0x1ef490c3
    800033cc:	1ef9fd23          	.insn	4, 0x1ef9fd23
    800033d0:	9906                	add	s2,s2,ra
    800033d2:	5e7e1f03          	lh	t5,1511(t3)
    800033d6:	1f06                	sll	t5,t5,0x21
    800033d8:	3d39                	addw	s10,s10,-18
    800033da:	1f09                	add	t5,t5,-30
    800033dc:	8905                	and	a0,a0,1
    800033de:	1f1f 5071 1f23      	.insn	6, 0x1f2350711f1f
    800033e4:	1f407de7          	.insn	4, 0x1f407de7
    800033e8:	1c49                	add	s8,s8,-14
    800033ea:	1f54                	add	a3,sp,948
    800033ec:	0239                	add	tp,tp,14 # e <buf.2+0xe>
    800033ee:	1f79                	add	t5,t5,-2
    800033f0:	1f8b77b7          	lui	a5,0x1f8b7
    800033f4:	96fd                	sra	a3,a3,0x3f
    800033f6:	1f98                	add	a4,sp,1008
    800033f8:	b1ee                	fsd	fs11,224(sp)
    800033fa:	cd531fb7          	lui	t6,0xcd531
    800033fe:	1fbc                	add	a5,sp,1016
    80003400:	7b61                	lui	s6,0xffff8
    80003402:	1fc6                	sll	t6,t6,0x31
    80003404:	0dde                	sll	s11,s11,0x17
    80003406:	1fda                	sll	t6,t6,0x36
    80003408:	16f9                	add	a3,a3,-2 # 534b0ffe <buflen.1+0x534b0fbe>
    8000340a:	1ff0                	add	a2,sp,1020
    8000340c:	adc6                	fsd	fa7,216(sp)
    8000340e:	73bb1ff3          	csrrw	t6,mhpmevent27h,s6
    80003412:	201f 0c4c 2027      	.insn	6, 0x20270c4c201f
    80003418:	202edda7          	.insn	4, 0x202edda7
    8000341c:	202fd7d7          	vfsgnj.vf	v15,v2,ft11,v0.t
    80003420:	2c8c                	fld	fa1,24(s1)
    80003422:	2031                	.insn	2, 0x2031
    80003424:	46f4                	lw	a3,76(a3)
    80003426:	203e                	fld	ft0,456(sp)
    80003428:	8ed1                	or	a3,a3,a2
    8000342a:	0db82057          	vredxor.vs	v0,v27,v16,v0.t
    8000342e:	206c                	fld	fa1,192(s0)
    80003430:	7fd8                	ld	a4,184(a5)
    80003432:	207a                	fld	ft0,408(sp)
    80003434:	0d30                	add	a2,sp,664
    80003436:	207d                	.insn	2, 0x207d
    80003438:	3aed                	addw	s5,s5,-5
    8000343a:	2085                	addw	ra,ra,1
    8000343c:	7fc9                	lui	t6,0xffff2
    8000343e:	2090                	fld	fa2,0(s1)
    80003440:	78d4                	ld	a3,176(s1)
    80003442:	f31d20b3          	.insn	4, 0xf31d20b3
    80003446:	20bc                	fld	fa5,64(s1)
    80003448:	7518                	ld	a4,40(a0)
    8000344a:	20d0                	fld	fa2,128(s1)
    8000344c:	cf61                	beqz	a4,80003524 <verify_data+0x8dc>
    8000344e:	e50320fb          	.insn	4, 0xe50320fb
    80003452:	2128                	fld	fa0,64(a0)
    80003454:	7078                	ld	a4,224(s0)
    80003456:	2159                	addw	sp,sp,22
    80003458:	0b52                	sll	s6,s6,0x14
    8000345a:	9d30216b          	.insn	4, 0x9d30216b
    8000345e:	218e                	fld	ft3,192(sp)
    80003460:	81de                	mv	gp,s7
    80003462:	03af21af          	amoadd.w.rl	gp,s10,(t5)
    80003466:	a15d21bf f16e21d7 	.insn	8, 0xf16e21d7a15d21bf
    8000346e:	21e4                	fld	fs1,192(a1)
    80003470:	21f8bbe7          	.insn	4, 0x21f8bbe7
    80003474:	757d                	lui	a0,0xfffff
    80003476:	2212                	fld	ft4,256(sp)
    80003478:	221bb1f3          	csrrc	gp,0x221,s7
    8000347c:	27e4                	fld	fs1,200(a5)
    8000347e:	223a                	fld	ft4,392(sp)
    80003480:	e330                	sd	a2,64(a4)
    80003482:	2262                	fld	ft4,24(sp)
    80003484:	226a2ea7          	fsw	ft6,573(s4)
    80003488:	9562                	add	a0,a0,s8
    8000348a:	226a                	fld	ft4,152(sp)
    8000348c:	227f96f7          	.insn	4, 0x227f96f7
    80003490:	810a                	mv	sp,sp
    80003492:	2285                	addw	t0,t0,1
    80003494:	22992e4b          	fnmsub.d	ft8,fs2,fs1,ft4,rdn
    80003498:	aa91                	j	800035ec <verify_data+0x9a4>
    8000349a:	229c                	fld	fa5,0(a3)
    8000349c:	9608                	.insn	2, 0x9608
    8000349e:	22c1                	addw	t0,t0,16
    800034a0:	fb81                	bnez	a5,800033b0 <verify_data+0x768>
    800034a2:	22e0                	fld	fs0,192(a3)
    800034a4:	ab60                	fsd	fs0,208(a4)
    800034a6:	22ea                	fld	ft5,152(sp)
    800034a8:	2fa9                	addw	t6,t6,10 # ffffffffffff200a <_tbss_end+0xffffffff7ffe9346>
    800034aa:	231c                	fld	fa5,0(a4)
    800034ac:	39df 2335 4e2b      	.insn	6, 0x4e2b233539df
    800034b2:	2349                	addw	t1,t1,18
    800034b4:	c94a                	sw	s2,144(sp)
    800034b6:	234c                	fld	fa1,128(a4)
    800034b8:	23688f3b          	.insn	4, 0x23688f3b
    800034bc:	278e                	fld	fa5,192(sp)
    800034be:	2374                	fld	fa3,192(a4)
    800034c0:	ed70                	sd	a2,216(a0)
    800034c2:	2381                	sext.w	t2,t2
    800034c4:	04c5                	add	s1,s1,17
    800034c6:	239c                	fld	fa5,0(a5)
    800034c8:	034d                	add	t1,t1,19
    800034ca:	23a5                	addw	t2,t2,9 # 9009 <buflen.1+0x8fc9>
    800034cc:	6a30                	ld	a2,80(a2)
    800034ce:	a2f223e7          	.insn	4, 0xa2f223e7
    800034d2:	7ca623ef          	jal	t2,80065c9c <_tbss_end+0x5cfd8>
    800034d6:	e3c123f3          	csrrs	t2,0xe3c,sp
    800034da:	23fe                	fld	ft7,472(sp)
    800034dc:	240481ab          	.insn	4, 0x240481ab
    800034e0:	37ea                	fld	fa5,184(sp)
    800034e2:	491c240f          	.insn	4, 0x491c240f
    800034e6:	2435                	addw	s0,s0,13
    800034e8:	b44a                	fsd	fs2,40(sp)
    800034ea:	2439                	addw	s0,s0,14
    800034ec:	cd3e                	sw	a5,152(sp)
    800034ee:	247e                	fld	fs0,472(sp)
    800034f0:	490d                	li	s2,3
    800034f2:	249c                	fld	fa5,8(s1)
    800034f4:	3ecd                	addw	t4,t4,-13
    800034f6:	24a2                	fld	fs1,8(sp)
    800034f8:	5cb5                	li	s9,-19
    800034fa:	66c324b3          	.insn	4, 0x66c324b3
    800034fe:	24d2                	fld	fs1,272(sp)
    80003500:	24d5dd8b          	.insn	4, 0x24d5dd8b
    80003504:	81fd                	srl	a1,a1,0x1f
    80003506:	24d8                	fld	fa4,136(s1)
    80003508:	5376                	lw	t1,124(sp)
    8000350a:	24e0                	fld	fs0,200(s1)
    8000350c:	bbfa                	fsd	ft10,496(sp)
    8000350e:	3a3624eb          	.insn	4, 0x3a3624eb
    80003512:	24ec                	fld	fa1,200(s1)
    80003514:	05f9                	add	a1,a1,30
    80003516:	24f4                	fld	fa3,200(s1)
    80003518:	0b3d                	add	s6,s6,15 # ffffffffffff800f <_tbss_end+0xffffffff7ffef34b>
    8000351a:	24fc                	fld	fa5,200(s1)
    8000351c:	c3bd                	beqz	a5,80003582 <verify_data+0x93a>
    8000351e:	2511                	addw	a0,a0,4 # fffffffffffff004 <_tbss_end+0xffffffff7fff6340>
    80003520:	b685                	j	80003080 <verify_data+0x438>
    80003522:	2514                	fld	fa3,8(a0)
    80003524:	90ea                	add	ra,ra,s10
    80003526:	2515                	addw	a0,a0,5
    80003528:	76c0                	ld	s0,168(a3)
    8000352a:	252c                	fld	fa1,72(a0)
    8000352c:	18b0                	add	a2,sp,120
    8000352e:	2530                	fld	fa2,72(a0)
    80003530:	dc48                	sw	a0,60(s0)
    80003532:	253a                	fld	fa0,392(sp)
    80003534:	625f 253c d083      	.insn	6, 0xd083253c625f
    8000353a:	e0d6253f 5203254f 	.insn	8, 0x5203254fe0d6253f
    80003542:	2575                	addw	a0,a0,29
    80003544:	0af0                	add	a2,sp,348
    80003546:	a39e2593          	slti	a1,t3,-1479
    8000354a:	259c                	fld	fa5,8(a1)
    8000354c:	648d                	lui	s1,0x3
    8000354e:	25a2                	fld	fa1,8(sp)
    80003550:	25aa979b          	.insn	4, 0x25aa979b
    80003554:	e378                	sd	a4,192(a4)
    80003556:	25b4                	fld	fa3,72(a1)
    80003558:	25bbf907          	vluxseg2ei64.v	v18,(s7),v27,v0.t
    8000355c:	7b4a                	ld	s6,176(sp)
    8000355e:	25be                	fld	fa1,456(sp)
    80003560:	ff86                	sd	ra,504(sp)
    80003562:	eb4f25ef          	jal	a1,7fff5c16 <buflen.1+0x7fff5bd6>
    80003566:	2601                	sext.w	a2,a2
    80003568:	a9bd                	j	800039e6 <verify_data+0xd9e>
    8000356a:	2609                	addw	a2,a2,2
    8000356c:	5fae                	lw	t6,232(sp)
    8000356e:	2632                	fld	fa2,264(sp)
    80003570:	2540                	fld	fs0,136(a0)
    80003572:	83a92667          	.insn	4, 0x83a92667
    80003576:	afc1266f          	jal	a2,7ff15872 <buflen.1+0x7ff15832>
    8000357a:	78e9268b          	.insn	4, 0x78e9268b
    8000357e:	26ba                	fld	fa3,392(sp)
    80003580:	0b60                	add	s0,sp,412
    80003582:	26c6                	fld	fa3,80(sp)
    80003584:	a9e2                	fsd	fs8,208(sp)
    80003586:	26d5                	addw	a3,a3,21
    80003588:	ed86                	sd	ra,216(sp)
    8000358a:	26d8                	fld	fa4,136(a3)
    8000358c:	ebc4                	sd	s1,144(a5)
    8000358e:	26dd                	addw	a3,a3,23
    80003590:	e848                	sd	a0,144(s0)
    80003592:	26e2                	fld	fa3,24(sp)
    80003594:	26ecc43f 26f58add 	.insn	8, 0x26f58add26ecc43f
    8000359c:	2ad8                	fld	fa4,144(a3)
    8000359e:	2709                	addw	a4,a4,2
    800035a0:	9280                	vmsge.vx	v5,v0,ra,v0.t
    800035a2:	270d                	addw	a4,a4,3
    800035a4:	4fba                	lw	t6,140(sp)
    800035a6:	2711                	addw	a4,a4,4
    800035a8:	53c2                	lw	t2,48(sp)
    800035aa:	2728                	fld	fa0,72(a4)
    800035ac:	272cdbc7          	.insn	4, 0x272cdbc7
    800035b0:	ec5c                	sd	a5,152(s0)
    800035b2:	276a                	fld	fa4,152(sp)
    800035b4:	bfb6                	fsd	fa3,504(sp)
    800035b6:	2799                	addw	a5,a5,6 # 1f8b7006 <buflen.1+0x1f8b6fc6>
    800035b8:	27ac473b          	.insn	4, 0x27ac473b
    800035bc:	e2fd                	bnez	a3,800036a2 <verify_data+0xa5a>
    800035be:	dfd027bb          	.insn	4, 0xdfd027bb
    800035c2:	27f8                	fld	fa4,200(a5)
    800035c4:	280b98c7          	fmsub.s	fa7,fs7,ft0,ft5,rtz
    800035c8:	d6ad                	beqz	a3,80003532 <verify_data+0x8ea>
    800035ca:	2812                	fld	fa6,256(sp)
    800035cc:	281bbd27          	fsd	ft1,666(s7)
    800035d0:	fe11                	bnez	a2,800034ec <verify_data+0x8a4>
    800035d2:	2828                	fld	fa0,80(s0)
    800035d4:	49a5                	li	s3,9
    800035d6:	2835                	addw	a6,a6,13
    800035d8:	10f8                	add	a4,sp,108
    800035da:	2844                	fld	fs1,144(s0)
    800035dc:	2845d05b          	.insn	4, 0x2845d05b
    800035e0:	9189                	srl	a1,a1,0x22
    800035e2:	285d                	addw	a6,a6,23
    800035e4:	2870b66f          	jal	a2,8000f06a <_tbss_end+0x63a6>
    800035e8:	a34d                	j	80003b8a <verify_data+0xf42>
    800035ea:	2880                	fld	fs0,16(s1)
    800035ec:	9bfd                	and	a5,a5,-1
    800035ee:	288a                	fld	fa7,128(sp)
    800035f0:	c5f0                	sw	a2,76(a1)
    800035f2:	28a6                	fld	fa7,72(sp)
    800035f4:	c1b4                	sw	a3,64(a1)
    800035f6:	f15328bb          	.insn	4, 0xf15328bb
    800035fa:	28bd                	addw	a7,a7,15
    800035fc:	5d55                	li	s10,-11
    800035fe:	28d4                	fld	fa3,144(s1)
    80003600:	b431                	j	8000300c <verify_data+0x3c4>
    80003602:	25ea28ef          	jal	a7,800a5860 <_tbss_end+0x9cb9c>
    80003606:	2901                	sext.w	s2,s2
    80003608:	290737e7          	.insn	4, 0x290737e7
    8000360c:	6c64                	ld	s1,216(s0)
    8000360e:	2909                	addw	s2,s2,2
    80003610:	292b6803          	lwu	a6,658(s6)
    80003614:	de5d                	beqz	a2,800035d2 <verify_data+0x98a>
    80003616:	292c                	fld	fa1,80(a0)
    80003618:	292dc637          	lui	a2,0x292dc
    8000361c:	4190                	lw	a2,0(a1)
    8000361e:	2931                	addw	s2,s2,12
    80003620:	fc5d                	bnez	s0,800035de <verify_data+0x996>
    80003622:	9857294b          	fnmsub.s	fs2,fa4,ft5,fs3,rdn
    80003626:	2959                	addw	s2,s2,22
    80003628:	28ae                	fld	fa7,200(sp)
    8000362a:	297c                	fld	fa5,208(a0)
    8000362c:	297efd5b          	.insn	4, 0x297efd5b
    80003630:	f432                	sd	a2,40(sp)
    80003632:	2982                	fld	fs3,0(sp)
    80003634:	d515                	beqz	a0,80003560 <verify_data+0x918>
    80003636:	2995                	addw	s3,s3,5
    80003638:	daa0                	sw	s0,112(a3)
    8000363a:	986b2997          	auipc	s3,0x986b2
    8000363e:	2998                	fld	fa4,16(a1)
    80003640:	29a4b67b          	.insn	4, 0x29a4b67b
    80003644:	29c439a7          	fsd	ft8,659(s0)
    80003648:	29d70e33          	.insn	4, 0x29d70e33
    8000364c:	7a22                	ld	s4,40(sp)
    8000364e:	29dd                	addw	s3,s3,23 # 186b5651 <buflen.1+0x186b5611>
    80003650:	eae5                	bnez	a3,80003740 <verify_data+0xaf8>
    80003652:	29e8                	fld	fa0,208(a1)
    80003654:	35ba                	fld	fa1,424(sp)
    80003656:	2a0d                	addw	s4,s4,3
    80003658:	2a12718f          	.insn	4, 0x2a12718f
    8000365c:	2885                	addw	a7,a7,1
    8000365e:	2a1a                	fld	fs4,384(sp)
    80003660:	4eda                	lw	t4,148(sp)
    80003662:	2a21                	addw	s4,s4,8
    80003664:	2a22a5e3          	.insn	4, 0x2a22a5e3
    80003668:	6ac2                	ld	s5,16(sp)
    8000366a:	2a4c                	fld	fa1,144(a2)
    8000366c:	2a8f6b6f          	jal	s6,800f9914 <_tbss_end+0xf0c50>
    80003670:	bc82                	fsd	ft0,120(sp)
    80003672:	2a95                	addw	s5,s5,5
    80003674:	6351                	lui	t1,0x14
    80003676:	2aac                	fld	fa1,80(a3)
    80003678:	74f2                	ld	s1,312(sp)
    8000367a:	2aca                	fld	fs5,144(sp)
    8000367c:	832c                	.insn	2, 0x832c
    8000367e:	4d282aef          	jal	s5,80085b50 <_tbss_end+0x7ce8c>
    80003682:	2afa                	fld	fs5,408(sp)
    80003684:	9719                	sra	a4,a4,0x26
    80003686:	2b01                	sext.w	s6,s6
    80003688:	2b0b5427          	vssseg2e16.v	v8,(s6),a6
    8000368c:	d0ed                	beqz	s1,8000366e <verify_data+0xa26>
    8000368e:	2b0c                	fld	fa1,16(a4)
    80003690:	261f 2b0e deec      	.insn	6, 0xdeec2b0e261f
    80003696:	2b16                	fld	fs6,320(sp)
    80003698:	0b2a                	sll	s6,s6,0xa
    8000369a:	2b1d                	addw	s6,s6,7
    8000369c:	4dbe                	lw	s11,204(sp)
    8000369e:	2b26                	fld	fs6,72(sp)
    800036a0:	0c12                	sll	s8,s8,0x4
    800036a2:	2b48                	fld	fa0,144(a4)
    800036a4:	2488                	fld	fa0,8(s1)
    800036a6:	1c4b2b53          	.insn	4, 0x1c4b2b53
    800036aa:	2b5e                	fld	fs6,464(sp)
    800036ac:	e58d                	bnez	a1,800036d6 <verify_data+0xa8e>
    800036ae:	2b7a                	fld	fs6,408(sp)
    800036b0:	6fa2                	ld	t6,8(sp)
    800036b2:	4d812b7b          	.insn	4, 0x4d812b7b
    800036b6:	2b84                	fld	fs1,16(a5)
    800036b8:	70c8                	ld	a0,160(s1)
    800036ba:	5d0d2b87          	flw	fs7,1488(s10)
    800036be:	2b89                	addw	s7,s7,2
    800036c0:	d1e1                	beqz	a1,80003680 <verify_data+0xa38>
    800036c2:	6ca02b8f          	.insn	4, 0x6ca02b8f
    800036c6:	d24e2b9b          	.insn	4, 0xd24e2b9b
    800036ca:	2b9d                	addw	s7,s7,7
    800036cc:	5d49                	li	s10,-14
    800036ce:	35dc2ba7          	fsw	ft9,855(s8)
    800036d2:	2ba8                	fld	fa0,80(a5)
    800036d4:	6a49                	lui	s4,0x12
    800036d6:	2be5                	addw	s7,s7,25
    800036d8:	7d20                	ld	s0,120(a0)
    800036da:	a3052bf3          	csrrs	s7,0xa30,a0
    800036de:	2bf5                	addw	s7,s7,29
    800036e0:	64c0                	ld	s0,136(s1)
    800036e2:	58672c07          	flw	fs8,1414(a4)
    800036e6:	2c15                	addw	s8,s8,5
    800036e8:	aecc                	fsd	fa1,152(a3)
    800036ea:	f5572c23          	sw	s5,-168(a4)
    800036ee:	94b82c2b          	.insn	4, 0x94b82c2b
    800036f2:	2c2d                	addw	s8,s8,11
    800036f4:	2c3cdaab          	.insn	4, 0x2c3cdaab
    800036f8:	0379                	add	t1,t1,30 # 1401e <buflen.1+0x13fde>
    800036fa:	2c52                	fld	fs8,272(sp)
    800036fc:	2c54a803          	lw	a6,709(s1) # 32c5 <buflen.1+0x3285>
    80003700:	983d                	and	s0,s0,-17
    80003702:	2c6a                	fld	fs8,152(sp)
    80003704:	aaad                	j	8000387e <verify_data+0xc36>
    80003706:	5cab2c73          	csrrs	s8,0x5ca,s6
    8000370a:	9f222c8f          	.insn	4, 0x9f222c8f
    8000370e:	2c9d                	addw	s9,s9,7
    80003710:	2c45                	addw	s8,s8,17
    80003712:	b88a2cab          	.insn	4, 0xb88a2cab
    80003716:	2cbd                	addw	s9,s9,15
    80003718:	2cc21eab          	.insn	4, 0x2cc21eab
    8000371c:	ddc4                	sw	s1,60(a1)
    8000371e:	2cd0                	fld	fa2,152(s1)
    80003720:	8849                	and	s0,s0,18
    80003722:	2cd8                	fld	fa4,152(s1)
    80003724:	2ce66627          	vsoxseg2ei32.v	v12,(a2),v14,v0.t
    80003728:	6b72                	ld	s6,280(sp)
    8000372a:	2cf4                	fld	fa3,216(s1)
    8000372c:	e584                	sd	s1,8(a1)
    8000372e:	2cf4                	fld	fa3,216(s1)
    80003730:	ceea                	sw	s10,92(sp)
    80003732:	2cfe                	fld	fs9,472(sp)
    80003734:	d921                	beqz	a0,80003684 <verify_data+0xa3c>
    80003736:	2d08                	fld	fa0,24(a0)
    80003738:	9006                	c.add	zero,ra
    8000373a:	2d0c                	fld	fa1,24(a0)
    8000373c:	2d2aea73          	csrrs	s4,0x2d2,21
    80003740:	8c8c                	.insn	2, 0x8c8c
    80003742:	2d2d                	addw	s10,s10,11
    80003744:	d426                	sw	s1,40(sp)
    80003746:	2d30                	fld	fa2,88(a0)
    80003748:	eda1                	bnez	a1,800037a0 <verify_data+0xb58>
    8000374a:	2d68                	fld	fa0,216(a0)
    8000374c:	2d73d15b          	.insn	4, 0x2d73d15b
    80003750:	7cb6                	ld	s9,360(sp)
    80003752:	fe492d97          	auipc	s11,0xfe492
    80003756:	ddde2d97          	auipc	s11,0xddde2
    8000375a:	2d9e                	fld	fs11,448(sp)
    8000375c:	ac55                	j	80003a10 <verify_data+0xdc8>
    8000375e:	0f762da3          	sw	s7,251(a2) # 292dc0fb <buflen.1+0x292dc0bb>
    80003762:	ec892dbb          	.insn	4, 0xec892dbb
    80003766:	2dc4                	fld	fs1,152(a1)
    80003768:	95c4                	.insn	2, 0x95c4
    8000376a:	2dc9                	addw	s11,s11,18 # 5dde5768 <buflen.1+0x5dde5728>
    8000376c:	17e0                	add	s0,sp,1004
    8000376e:	2dd6                	fld	fs11,336(sp)
    80003770:	2deb91bf 2df3dfcb 	.insn	8, 0x2df3dfcb2deb91bf
    80003778:	2e04b247          	.insn	4, 0x2e04b247
    8000377c:	9db6                	add	s11,s11,a3
    8000377e:	77ef2e07          	flw	ft8,1918(t5)
    80003782:	0dbb2e0b          	.insn	4, 0x0dbb2e0b
    80003786:	2e16                	fld	ft8,320(sp)
    80003788:	2e56b07f 2e6a0f7c 	.insn	16, 0x2e70078a2e6c133b2e6a0f7c2e56b07f
    80003790:	2e6c133b 2e70078a 
    80003798:	26e2                	fld	fa3,24(sp)
    8000379a:	2eb2                	fld	ft9,264(sp)
    8000379c:	3bb4                	fld	fa3,112(a5)
    8000379e:	2ed0                	fld	fa2,152(a3)
    800037a0:	4040                	lw	s0,4(s0)
    800037a2:	2ed9                	addw	t4,t4,22
    800037a4:	f2c1                	bnez	a3,80003724 <verify_data+0xadc>
    800037a6:	2edd                	addw	t4,t4,23
    800037a8:	0df8                	add	a4,sp,732
    800037aa:	2ee2                	fld	ft9,24(sp)
    800037ac:	2eea494b          	.insn	4, 0x2eea494b
    800037b0:	def5                	beqz	a3,800037ac <verify_data+0xb64>
    800037b2:	2ef0                	fld	fa2,216(a3)
    800037b4:	8746                	mv	a4,a7
    800037b6:	2ef5                	addw	t4,t4,29
    800037b8:	9bd8                	.insn	2, 0x9bd8
    800037ba:	2ef6                	fld	ft9,344(sp)
    800037bc:	5b1f 2f1a 9f26      	.insn	6, 0x9f262f1a5b1f
    800037c2:	2f24                	fld	fs1,88(a4)
    800037c4:	9259                	srl	a2,a2,0x36
    800037c6:	2f28                	fld	fa0,88(a4)
    800037c8:	91a6                	add	gp,gp,s1
    800037ca:	ef642f2b          	.insn	4, 0xef642f2b
    800037ce:	b4642f4b          	.insn	4, 0xb4642f4b
    800037d2:	2f70                	fld	fa2,216(a4)
    800037d4:	2c50                	fld	fa2,152(s0)
    800037d6:	2f82                	fld	ft11,0(sp)
    800037d8:	5026                	.insn	2, 0x5026
    800037da:	d1cb2f97          	auipc	t6,0xd1cb2
    800037de:	b6d42fa7          	fsw	fa3,-1153(s0)
    800037e2:	2faa                	fld	ft11,136(sp)
    800037e4:	2fb80fd7          	vxor.vv	v31,v27,v16
    800037e8:	21dc                	fld	fa5,128(a1)
    800037ea:	2fb9                	addw	t6,t6,14 # 51cb57e8 <buflen.1+0x51cb57a8>
    800037ec:	2fbefe13          	and	t3,t4,763
    800037f0:	2fc79aeb          	.insn	4, 0x2fc79aeb
    800037f4:	2fcade4f          	.insn	4, 0x2fcade4f
    800037f8:	b366                	fsd	fs9,416(sp)
    800037fa:	2fd8                	fld	fa4,152(a5)
    800037fc:	2ff1affb          	.insn	4, 0x2ff1affb
    80003800:	30107333          	.insn	4, 0x30107333
    80003804:	301453e7          	.insn	4, 0x301453e7
    80003808:	3014dbb7          	lui	s7,0x3014d
    8000380c:	94ee                	add	s1,s1,s11
    8000380e:	3041                	vmsgeu.vx	v0,v0,zero,v0.t
    80003810:	86c8                	.insn	2, 0x86c8
    80003812:	304d                	.insn	2, 0x304d
    80003814:	81e5                	srl	a1,a1,0x19
    80003816:	93fd304f          	fnmadd.d	ft0,fs10,ft11,fs2,rup
    8000381a:	89643067          	.insn	4, 0x89643067
    8000381e:	306a                	fld	ft0,184(sp)
    80003820:	2809                	addw	a6,a6,2
    80003822:	3401306b          	.insn	4, 0x3401306b
    80003826:	307d                	.insn	2, 0x307d
    80003828:	46b2                	lw	a3,12(sp)
    8000382a:	3089                	addw	ra,ra,-30
    8000382c:	9914                	.insn	2, 0x9914
    8000382e:	3095                	addw	ra,ra,-27
    80003830:	cd5f 30b8 735e      	.insn	6, 0x735e30b8cd5f
    80003836:	30ee                	fld	ft1,248(sp)
    80003838:	d0d4                	sw	a3,36(s1)
    8000383a:	30f6                	fld	ft1,376(sp)
    8000383c:	6af4                	ld	a3,208(a3)
    8000383e:	3108                	fld	fa0,32(a0)
    80003840:	1d65                	add	s10,s10,-7
    80003842:	3116                	fld	ft2,352(sp)
    80003844:	31529973          	csrrw	s2,0x315,t0
    80003848:	3170694b          	fnmsub.s	fs2,ft0,fs7,ft6,unknown
    8000384c:	31766a3f 3181e05e 	.insn	8, 0x3181e05e31766a3f
    80003854:	318c2ea3          	sw	s8,797(s8)
    80003858:	318c39e7          	.insn	4, 0x318c39e7
    8000385c:	8c7a                	mv	s8,t5
    8000385e:	3198                	fld	fa4,32(a1)
    80003860:	dfc5                	beqz	a5,80003818 <verify_data+0xbd0>
    80003862:	31a6                	fld	ft3,104(sp)
    80003864:	31bc1683          	lh	a3,795(s8)
    80003868:	0fec                	add	a1,sp,988
    8000386a:	31c6                	fld	ft3,112(sp)
    8000386c:	d196                	sw	t0,224(sp)
    8000386e:	31cc                	fld	fa1,160(a1)
    80003870:	0a74                	add	a3,sp,284
    80003872:	31d9                	addw	gp,gp,-10 # ffffffff8000743e <_tbss_end+0xfffffffeffffe77a>
    80003874:	58ee                	lw	a7,248(sp)
    80003876:	fa4731e3          	.insn	4, 0xfa4731e3
    8000387a:	100a31e3          	.insn	4, 0x100a31e3
    8000387e:	31ec                	fld	fa1,224(a1)
    80003880:	de75                	beqz	a2,8000387c <verify_data+0xc34>
    80003882:	3209                	addw	tp,tp,-30 # ffffffffffffffe2 <_tbss_end+0xffffffff7fff731e>
    80003884:	3213004b          	fnmsub.d	ft0,ft6,ft1,ft6,rne
    80003888:	6e71                	lui	t3,0x1c
    8000388a:	324a                	fld	ft4,176(sp)
    8000388c:	324f49f7          	.insn	4, 0x324f49f7
    80003890:	5676                	lw	a2,124(sp)
    80003892:	3268                	fld	fa0,224(a2)
    80003894:	e084                	sd	s1,0(s1)
    80003896:	326e                	fld	ft4,248(sp)
    80003898:	dd86                	sw	ra,248(sp)
    8000389a:	3276                	fld	ft4,376(sp)
    8000389c:	19a6                	sll	s3,s3,0x29
    8000389e:	3280                	fld	fs0,32(a3)
    800038a0:	9e1e                	add	t3,t3,t2
    800038a2:	328d                	addw	t0,t0,-29
    800038a4:	32919983          	lh	s3,809(gp) # 80007771 <__global_pointer$+0x329>
    800038a8:	2dde                	fld	fs11,464(sp)
    800038aa:	32a2                	fld	ft5,40(sp)
    800038ac:	24ff 32be 29b6 32c4 	.insn	14, 0x6a7432cda56532c429b632be24ff
    800038b4:	a565 32cd 6a74 
    800038ba:	32ce                	fld	ft5,240(sp)
    800038bc:	3d32                	fld	fs10,296(sp)
    800038be:	32d5                	addw	t0,t0,-11
    800038c0:	127e                	sll	tp,tp,0x3f
    800038c2:	32e0                	fld	fs0,224(a3)
    800038c4:	32ee431b          	.insn	4, 0x32ee431b
    800038c8:	e815                	bnez	s0,800038fc <verify_data+0xcb4>
    800038ca:	ffd432f7          	.insn	4, 0xffd432f7
    800038ce:	330e                	fld	ft6,224(sp)
    800038d0:	4b8a                	lw	s7,128(sp)
    800038d2:	3312                	fld	ft6,288(sp)
    800038d4:	33226d3b          	.insn	4, 0x33226d3b
    800038d8:	bb69                	j	80003672 <verify_data+0xa2a>
    800038da:	3324                	fld	fs1,96(a4)
    800038dc:	57fc                	lw	a5,108(a5)
    800038de:	3326                	fld	ft6,104(sp)
    800038e0:	3085                	addw	ra,ra,-31
    800038e2:	3339                	addw	t1,t1,-18
    800038e4:	a3bc                	fsd	fa5,64(a5)
    800038e6:	333c                	fld	fa5,96(a4)
    800038e8:	3348100b          	.insn	4, 0x3348100b
    800038ec:	bf5f 3378 37b1      	.insn	6, 0x37b13378bf5f
    800038f2:	337a                	fld	ft6,440(sp)
    800038f4:	9944                	.insn	2, 0x9944
    800038f6:	339f 69aa 33a5      	.insn	6, 0x33a569aa339f
    800038fc:	26c9                	addw	a3,a3,18
    800038fe:	d57033ab          	.insn	4, 0xd57033ab
    80003902:	33ac                	fld	fa1,96(a5)
    80003904:	f61d                	bnez	a2,80003832 <verify_data+0xbea>
    80003906:	33b6                	fld	ft7,360(sp)
    80003908:	e796                	sd	t0,456(sp)
    8000390a:	33d8                	fld	fa4,160(a5)
    8000390c:	33f842cb          	fnmsub.d	ft5,fa6,ft11,ft6,rmm
    80003910:	34127047          	.insn	4, 0x34127047
    80003914:	3417d43b          	.insn	4, 0x3417d43b
    80003918:	86a9                	sra	a3,a3,0xa
    8000391a:	341a                	fld	fs0,416(sp)
    8000391c:	342ec987          	.insn	4, 0x342ec987
    80003920:	b01d                	j	80003146 <verify_data+0x4fe>
    80003922:	3438                	fld	fa4,104(s0)
    80003924:	c77a                	sw	t5,140(sp)
    80003926:	345f 935e 3460      	.insn	6, 0x3460935e345f
    8000392c:	b74e                	fsd	fs3,424(sp)
    8000392e:	3462                	fld	fs0,56(sp)
    80003930:	47ff 346a e798 346c 	.insn	18, 0x3b97347ab34e3471e0a8346ce798346a47ff
    80003938:	e0a8 3471 b34e 347a 
    80003940:	3b97 
    80003942:	347e                	fld	fs0,504(sp)
    80003944:	3491fb3f 34968f93 	.insn	8, 0x34968f933491fb3f
    8000394c:	3499a707          	flw	fa4,841(s3)
    80003950:	5b28                	lw	a0,112(a4)
    80003952:	34cd                	addw	s1,s1,-13
    80003954:	3644                	fld	fs1,168(a2)
    80003956:	34de                	fld	fs1,496(sp)
    80003958:	6341                	lui	t1,0x10
    8000395a:	5cce34eb          	.insn	4, 0x5cce34eb
    8000395e:	6b953513          	sltiu	a0,a0,1721
    80003962:	3526                	fld	fa0,104(sp)
    80003964:	99c5                	and	a1,a1,-15
    80003966:	2e883533          	.insn	4, 0x2e883533
    8000396a:	3539                	addw	a0,a0,-18
    8000396c:	b79f 353e 36c6      	.insn	6, 0x36c6353eb79f
    80003972:	b68b3543          	.insn	4, 0xb68b3543
    80003976:	3548                	fld	fa0,168(a0)
    80003978:	1a2c                	add	a1,sp,312
    8000397a:	3555                	addw	a0,a0,-11
    8000397c:	a8ed                	j	80003a76 <verify_data+0xe2e>
    8000397e:	d7583557          	.insn	4, 0xd7583557
    80003982:	3559                	addw	a0,a0,-10
    80003984:	3150                	fld	fa2,160(a0)
    80003986:	3561                	addw	a0,a0,-8
    80003988:	05a2                	sll	a1,a1,0x8
    8000398a:	3594                	fld	fa3,40(a1)
    8000398c:	35ae                	fld	fa1,232(sp)
    8000398e:	35c0                	fld	fs0,168(a1)
    80003990:	5411                	li	s0,-28
    80003992:	35e6                	fld	fa1,120(sp)
    80003994:	360e2f13          	slti	t5,t3,864
    80003998:	3615d7bf 36182d7f 	.insn	8, 0x36182d7f3615d7bf
    800039a0:	69d9                	lui	s3,0x16
    800039a2:	3632                	fld	fa2,296(sp)
    800039a4:	93c9                	srl	a5,a5,0x32
    800039a6:	3634                	fld	fa3,104(a2)
    800039a8:	d420                	sw	s0,104(s0)
    800039aa:	d5de3647          	.insn	4, 0xd5de3647
    800039ae:	3661                	addw	a2,a2,-8
    800039b0:	5b94                	lw	a3,48(a5)
    800039b2:	3688                	fld	fa0,40(a3)
    800039b4:	42ad                	li	t0,11
    800039b6:	3698                	fld	fa4,40(a3)
    800039b8:	2b51                	addw	s6,s6,20
    800039ba:	369a                	fld	fa3,416(sp)
    800039bc:	10ae                	sll	ra,ra,0x2b
    800039be:	36b0                	fld	fa2,104(a3)
    800039c0:	36bd5793          	.insn	4, 0x36bd5793
    800039c4:	36d21197          	auipc	gp,0x36d21
    800039c8:	181a                	sll	a6,a6,0x26
    800039ca:	36ee                	fld	fa3,248(sp)
    800039cc:	712a                	ld	sp,168(sp)
    800039ce:	2af736f7          	.insn	4, 0x2af736f7
    800039d2:	953f370b          	.insn	4, 0x953f370b
    800039d6:	6219370f          	.insn	4, 0x6219370f
    800039da:	99ac371b          	.insn	4, 0x99ac371b
    800039de:	42b9372b          	.insn	4, 0x42b9372b
    800039e2:	3731                	addw	a4,a4,-20
    800039e4:	b46e                	fsd	fs11,40(sp)
    800039e6:	3734                	fld	fa3,104(a4)
    800039e8:	f7b8                	sd	a4,104(a5)
    800039ea:	98ff373f e5553741 	.insn	8, 0xe555374198ff373f
    800039f2:	3748                	fld	fa0,168(a4)
    800039f4:	3752e6c7          	.insn	4, 0x3752e6c7
    800039f8:	375ced43          	.insn	4, 0x375ced43
    800039fc:	c88e                	sw	gp,80(sp)
    800039fe:	3764                	fld	fs1,232(a4)
    80003a00:	3774479b          	.insn	4, 0x3774479b
    80003a04:	a8b1                	j	80003a60 <verify_data+0xe18>
    80003a06:	a7273793          	sltiu	a5,a4,-1422
    80003a0a:	37a5                	addw	a5,a5,-23
    80003a0c:	37a6bc03          	ld	s8,890(a3)
    80003a10:	74e5                	lui	s1,0xffff9
    80003a12:	37ac                	fld	fa1,104(a5)
    80003a14:	66c0                	ld	s0,136(a3)
    80003a16:	37b6                	fld	fa5,360(sp)
    80003a18:	7574                	ld	a3,232(a0)
    80003a1a:	37c2                	fld	fa5,48(sp)
    80003a1c:	37c3b8f7          	.insn	4, 0x37c3b8f7
    80003a20:	7da5                	lui	s11,0xfffe9
    80003a22:	37c5                	addw	a5,a5,-15
    80003a24:	37c94eb3          	.insn	4, 0x37c94eb3
    80003a28:	b958                	fsd	fa4,176(a0)
    80003a2a:	37da                	fld	fa5,432(sp)
    80003a2c:	626c                	ld	a1,192(a2)
    80003a2e:	37e8                	fld	fa0,232(a5)
    80003a30:	8c39                	xor	s0,s0,a4
    80003a32:	37e8                	fld	fa0,232(a5)
    80003a34:	9834                	.insn	2, 0x9834
    80003a36:	b6ea37ff b3cd381d 	.insn	16, 0x20f13842578e3834b3cd381db6ea37ff
    80003a3e:	578e3834 20f13842 
    80003a46:	384a                	fld	fa6,176(sp)
    80003a48:	092d                	add	s2,s2,11
    80003a4a:	3862                	fld	fa6,56(sp)
    80003a4c:	38679167          	.insn	4, 0x38679167
    80003a50:	4d02                	lw	s10,0(sp)
    80003a52:	3869                	addw	a6,a6,-6
    80003a54:	386a4a27          	.insn	4, 0x386a4a27
    80003a58:	cfc9                	beqz	a5,80003af2 <verify_data+0xeaa>
    80003a5a:	c145388b          	.insn	4, 0xc145388b
    80003a5e:	3890                	fld	fa2,48(s1)
    80003a60:	3893fc2f          	.insn	4, 0x3893fc2f
    80003a64:	ffda                	sd	s6,504(sp)
    80003a66:	389f 05d1 38b3      	.insn	6, 0x38b305d1389f
    80003a6c:	38b93c73          	csrrc	s8,0x38b,s2
    80003a70:	f23d                	bnez	a2,800039d6 <verify_data+0xd8e>
    80003a72:	38ca                	fld	fa7,176(sp)
    80003a74:	7b46                	ld	s6,112(sp)
    80003a76:	023138d3          	fadd.d	fa7,ft2,ft3,rup
    80003a7a:	a07c38db          	.insn	4, 0xa07c38db
    80003a7e:	db9c38e3          	.insn	4, 0xdb9c38e3
    80003a82:	38ea                	fld	fa7,184(sp)
    80003a84:	4292                	lw	t0,4(sp)
    80003a86:	3b0338eb          	.insn	4, 0x3b0338eb
    80003a8a:	bd26390b          	.insn	4, 0xbd26390b
    80003a8e:	3925                	addw	s2,s2,-23
    80003a90:	9561                	sra	a0,a0,0x38
    80003a92:	392e                	fld	fs2,232(sp)
    80003a94:	6cd4                	ld	a3,152(s1)
    80003a96:	c9d63947          	fmsub.s	fs2,fa2,ft9,fs9,rup
    80003a9a:	397a                	fld	fs2,440(sp)
    80003a9c:	35c4                	fld	fs1,168(a1)
    80003a9e:	398c                	fld	fa1,48(a1)
    80003aa0:	398d5073          	csrw	0x398,26
    80003aa4:	399987cf          	fnmadd.s	fa5,fs3,fs9,ft7,rne
    80003aa8:	737c                	ld	a5,224(a4)
    80003aaa:	eec339bf 6d6839c2 	.insn	8, 0x6d6839c2eec339bf
    80003ab2:	39c6                	fld	fs3,112(sp)
    80003ab4:	39c73b7f 39c96743 	.insn	16, 0x39f0708e39d3fdf639c9674339c73b7f
    80003abc:	39d3fdf6 39f0708e 
    80003ac4:	6835                	lui	a6,0xd
    80003ac6:	3a04                	fld	fs1,48(a2)
    80003ac8:	493e                	lw	s2,204(sp)
    80003aca:	3a06                	fld	fs4,96(sp)
    80003acc:	56e2                	lw	a3,56(sp)
    80003ace:	3a06                	fld	fs4,96(sp)
    80003ad0:	3a0a8c2b          	.insn	4, 0x3a0a8c2b
    80003ad4:	cef4                	sw	a3,92(a3)
    80003ad6:	3a2c                	fld	fa1,112(a2)
    80003ad8:	8a86                	mv	s5,ra
    80003ada:	3a2d                	addw	s4,s4,-21 # 11feb <buflen.1+0x11fab>
    80003adc:	c658                	sw	a4,12(a2)
    80003ade:	3a42                	fld	fs4,48(sp)
    80003ae0:	3a49aebb          	.insn	4, 0x3a49aebb
    80003ae4:	de5c                	sw	a5,60(a2)
    80003ae6:	3a4e                	fld	fs4,240(sp)
    80003ae8:	56ec                	lw	a1,108(a3)
    80003aea:	3a74                	fld	fa3,240(a2)
    80003aec:	c985                	beqz	a1,80003b1c <verify_data+0xed4>
    80003aee:	3a76                	fld	fs4,376(sp)
    80003af0:	3a980e8b          	.insn	4, 0x3a980e8b
    80003af4:	3aba90eb          	.insn	4, 0x3aba90eb
    80003af8:	3ac8d43b          	.insn	4, 0x3ac8d43b
    80003afc:	0afe                	sll	s5,s5,0x1f
    80003afe:	3ae0                	fld	fs0,240(a3)
    80003b00:	4361                	li	t1,24
    80003b02:	3aea                	fld	fs5,184(sp)
    80003b04:	3b13e5b7          	lui	a1,0x3b13e
    80003b08:	cef1                	beqz	a3,80003be4 <verify_data+0xf9c>
    80003b0a:	3b1e                	fld	fs6,480(sp)
    80003b0c:	fafd                	bnez	a3,80003b02 <verify_data+0xeba>
    80003b0e:	3b26                	fld	fs6,104(sp)
    80003b10:	fdc5                	bnez	a1,80003ac8 <verify_data+0xe80>
    80003b12:	fc5c3b37          	lui	s6,0xfc5c3
    80003b16:	af763b3b          	.insn	4, 0xaf763b3b
    80003b1a:	ed023b43          	.insn	4, 0xed023b43
    80003b1e:	3b76                	fld	fs6,376(sp)
    80003b20:	7cce                	ld	s9,240(sp)
    80003b22:	3b8a                	fld	fs7,160(sp)
    80003b24:	07e4                	add	s1,sp,972
    80003b26:	d0de3b8f          	.insn	4, 0xd0de3b8f
    80003b2a:	3b90                	fld	fa2,48(a5)
    80003b2c:	3b99408f          	.insn	4, 0x3b99408f
    80003b30:	3eb0                	fld	fa2,120(a3)
    80003b32:	3c06                	fld	fs8,96(sp)
    80003b34:	e4c1                	bnez	s1,80003bbc <verify_data+0xf74>
    80003b36:	3c39                	addw	s8,s8,-18
    80003b38:	02ec                	add	a1,sp,332
    80003b3a:	3c49                	addw	s8,s8,-14
    80003b3c:	de19                	beqz	a2,80003a5a <verify_data+0xe12>
    80003b3e:	3c49                	addw	s8,s8,-14
    80003b40:	bdbd                	j	800039be <verify_data+0xd76>
    80003b42:	3a763c4b          	fnmsub.d	fs8,fa2,ft7,ft7,rup
    80003b46:	e86b3c5b          	.insn	4, 0xe86b3c5b
    80003b4a:	3c6e                	fld	fs8,248(sp)
    80003b4c:	1752                	sll	a4,a4,0x34
    80003b4e:	3c96                	fld	fs9,352(sp)
    80003b50:	3c985217          	auipc	tp,0x3c985
    80003b54:	8b6a                	mv	s6,s10
    80003b56:	3ccc                	fld	fa1,184(s1)
    80003b58:	71b9                	lui	gp,0xfffee
    80003b5a:	a1413cdb          	.insn	4, 0xa1413cdb
    80003b5e:	0d013cf7          	.insn	4, 0x0d013cf7
    80003b62:	3d1a                	fld	fs10,416(sp)
    80003b64:	bfe5                	j	80003b5c <verify_data+0xf14>
    80003b66:	3d2c                	fld	fa1,120(a0)
    80003b68:	54be                	lw	s1,236(sp)
    80003b6a:	3d2d                	addw	s10,s10,-21
    80003b6c:	5ae1                	li	s5,-8
    80003b6e:	3d42                	fld	fs10,48(sp)
    80003b70:	3d4262f7          	.insn	4, 0x3d4262f7
    80003b74:	1d74                	add	a3,sp,700
    80003b76:	3d4e                	fld	fs10,240(sp)
    80003b78:	8d0c                	.insn	2, 0x8d0c
    80003b7a:	3d52                	fld	fs10,304(sp)
    80003b7c:	56d6                	lw	a3,116(sp)
    80003b7e:	3d54                	fld	fa3,184(a0)
    80003b80:	fb3a                	sd	a4,432(sp)
    80003b82:	742a3d57          	vmsle.vi	v26,v2,-12,v0.t
    80003b86:	3d5a                	fld	fs10,432(sp)
    80003b88:	00fc                	add	a5,sp,76
    80003b8a:	3d62                	fld	fs10,56(sp)
    80003b8c:	592a                	lw	s2,168(sp)
    80003b8e:	3d7d                	addw	s10,s10,-1
    80003b90:	7fc4                	ld	s1,184(a5)
    80003b92:	3d8e                	fld	fs11,224(sp)
    80003b94:	3d9105a3          	sb	s9,971(sp)
    80003b98:	38e6                	fld	fa7,120(sp)
    80003b9a:	3da0                	fld	fs0,120(a1)
    80003b9c:	ffa0                	sd	s0,120(a5)
    80003b9e:	3db1                	addw	s11,s11,-20 # fffffffffffe8fec <_tbss_end+0xffffffff7ffe0328>
    80003ba0:	3dbf7153          	.insn	4, 0x3dbf7153
    80003ba4:	50ad                	li	ra,-21
    80003ba6:	e9283dd7          	.insn	4, 0xe9283dd7
    80003baa:	3dde                	fld	fs11,496(sp)
    80003bac:	4c2e                	lw	s8,200(sp)
    80003bae:	b7773deb          	.insn	4, 0xb7773deb
    80003bb2:	0a4d3e27          	fsd	ft4,188(s10)
    80003bb6:	3e2a                	fld	ft8,168(sp)
    80003bb8:	f67f                	.insn	2, 0xf67f
    80003bba:	3e38                	fld	fa4,120(a2)
    80003bbc:	3e3b8743          	.insn	4, 0x3e3b8743
    80003bc0:	3e5303f7          	.insn	4, 0x3e5303f7
    80003bc4:	79d1                	lui	s3,0xffff4
    80003bc6:	17143e53          	.insn	4, 0x17143e53
    80003bca:	3e6d                	addw	t3,t3,-5 # 1bffb <buflen.1+0x1bfbb>
    80003bcc:	99ec                	.insn	2, 0x99ec
    80003bce:	3e85                	addw	t4,t4,-31
    80003bd0:	b8b0                	fsd	fa2,112(s1)
    80003bd2:	3e8d                	addw	t4,t4,-29
    80003bd4:	6ce8                	ld	a0,216(s1)
    80003bd6:	8b753e9b          	.insn	4, 0x8b753e9b
    80003bda:	3e9d                	addw	t4,t4,-25
    80003bdc:	ccad                	beqz	s1,80003c56 <verify_data+0x100e>
    80003bde:	c5723ea7          	fsd	fs7,-931(tp) # bc9887ad <_tbss_end+0x3c97fae9>
    80003be2:	99263ed3          	.insn	4, 0x99263ed3
    80003be6:	3f00                	fld	fs0,56(a4)
    80003be8:	227f 3f1a 1b75 3f1e 	.insn	14, 0x204c3f4ac5ee3f1e1b753f1a227f
    80003bf0:	c5ee 3f4a 204c 
    80003bf6:	3f66                	fld	ft10,120(sp)
    80003bf8:	7168                	ld	a0,224(a0)
    80003bfa:	d17c3f67          	.insn	4, 0xd17c3f67
    80003bfe:	e53c3f67          	.insn	4, 0xe53c3f67
    80003c02:	3f68                	fld	fa0,248(a4)
    80003c04:	b11e                	fsd	ft7,160(sp)
    80003c06:	3f7c                	fld	fa5,248(a4)
    80003c08:	f425                	bnez	s0,80003b70 <verify_data+0xf28>
    80003c0a:	3f81                	addw	t6,t6,-32
    80003c0c:	156e                	sll	a0,a0,0x3b
    80003c0e:	3f8a                	fld	ft11,160(sp)
    80003c10:	3f95e34b          	.insn	4, 0x3f95e34b
    80003c14:	f67d                	bnez	a2,80003c02 <verify_data+0xfba>
    80003c16:	3fa4                	fld	fs1,120(a5)
    80003c18:	5aa8                	lw	a0,112(a3)
    80003c1a:	3fb1                	addw	t6,t6,-20
    80003c1c:	91b1                	srl	a1,a1,0x2c
    80003c1e:	3fb4                	fld	fa3,120(a5)
    80003c20:	83ba                	mv	t2,a4
    80003c22:	3fbe                	fld	ft11,488(sp)
    80003c24:	4afd                	li	s5,31
    80003c26:	fa463fff 12294001 	.insn	16, 0x7e40401ed5c8400712294001fa463fff
    80003c2e:	d5c84007 7e40401e 
    80003c36:	4025                	c.li	zero,9
    80003c38:	4043fd5b          	.insn	4, 0x4043fd5b
    80003c3c:	405d5a9b          	sraw	s5,s10,0x5
    80003c40:	a050                	fsd	fa2,128(s0)
    80003c42:	4085                	li	ra,1
    80003c44:	345c                	fld	fa5,168(s0)
    80003c46:	7651408b          	.insn	4, 0x7651408b
    80003c4a:	c4ff408b          	.insn	4, 0xc4ff408b
    80003c4e:	40b0                	lw	a2,64(s1)
    80003c50:	4885                	li	a7,1
    80003c52:	40cd                	li	ra,19
    80003c54:	0d2d                	add	s10,s10,11
    80003c56:	40ce                	lw	ra,208(sp)
    80003c58:	24f2                	fld	fs1,280(sp)
    80003c5a:	40ce                	lw	ra,208(sp)
    80003c5c:	cc41                	beqz	s0,80003cf4 <verify_data+0x10ac>
    80003c5e:	40d2                	lw	ra,20(sp)
    80003c60:	a17a                	fsd	ft10,128(sp)
    80003c62:	40d5                	li	ra,21
    80003c64:	0dea                	sll	s11,s11,0x1a
    80003c66:	a95e40ef          	jal	7ffe86fa <buflen.1+0x7ffe86ba>
    80003c6a:	ad3840f3          	.insn	4, 0xad3840f3
    80003c6e:	40f9                	li	ra,30
    80003c70:	f865                	bnez	s0,80003c60 <verify_data+0x1018>
    80003c72:	40fd                	li	ra,31
    80003c74:	40fed847          	fmsub.s	fa6,ft9,fa5,fs0,unknown
    80003c78:	411c6f63          	bltu	s8,a7,80004096 <verify_data+0x144e>
    80003c7c:	41240a87          	.insn	4, 0x41240a87
    80003c80:	6f6a                	ld	t5,152(sp)
    80003c82:	4139                	li	sp,14
    80003c84:	3ab2                	fld	fs5,296(sp)
    80003c86:	413d                	li	sp,15
    80003c88:	88ae                	mv	a7,a1
    80003c8a:	414a                	lw	sp,144(sp)
    80003c8c:	58f0                	lw	a2,116(s1)
    80003c8e:	418e                	lw	gp,192(sp)
    80003c90:	4ba0                	lw	s0,80(a5)
    80003c92:	4191                	li	gp,4
    80003c94:	07d4                	add	a3,sp,964
    80003c96:	4192                	lw	gp,4(sp)
    80003c98:	41aaf2ef          	jal	t0,800b30b2 <_tbss_end+0xaa3ee>
    80003c9c:	2be4                	fld	fs1,208(a5)
    80003c9e:	41ae                	lw	gp,200(sp)
    80003ca0:	a764                	fsd	fs1,200(a4)
    80003ca2:	41b5                	li	gp,13
    80003ca4:	65ff 41b8 a514 41be 	.insn	22, 0xa0e2423bc726422f299741f694ba41bea51441b865ff
    80003cac:	94ba 41f6 2997 422f 
    80003cb4:	c726 423b a0e2 
    80003cba:	4248                	lw	a0,4(a2)
    80003cbc:	f095                	bnez	s1,80003be0 <verify_data+0xf98>
    80003cbe:	4252                	lw	tp,20(sp)
    80003cc0:	9e80                	vmsge.vx	v29,v0,ra,v0.t
    80003cc2:	4261                	li	tp,24
    80003cc4:	8d86                	mv	s11,ra
    80003cc6:	42d0                	lw	a2,4(a3)
    80003cc8:	42d7b4a3          	sd	a3,1065(a5)
    80003ccc:	42dd5013          	sra	zero,s10,0x2d
    80003cd0:	42dfc0af          	.insn	4, 0x42dfc0af
    80003cd4:	1664                	add	s1,sp,812
    80003cd6:	42ec                	lw	a1,68(a3)
    80003cd8:	aca1                	j	80003f30 <verify_data+0x12e8>
    80003cda:	42f4                	lw	a3,68(a3)
    80003cdc:	1936                	sll	s2,s2,0x2d
    80003cde:	42f8                	lw	a4,68(a3)
    80003ce0:	430fbce7          	.insn	4, 0x430fbce7
    80003ce4:	b1f5                	j	800039d0 <verify_data+0xd88>
    80003ce6:	431a                	lw	t1,132(sp)
    80003ce8:	aba4                	fsd	fs1,80(a5)
    80003cea:	431d                	li	t1,7
    80003cec:	4d99                	li	s11,6
    80003cee:	8fd1432f          	.insn	4, 0x8fd1432f
    80003cf2:	433a                	lw	t1,140(sp)
    80003cf4:	9488                	.insn	2, 0x9488
    80003cf6:	4349                	li	t1,18
    80003cf8:	6781                	vmsgeu.vx	v15,v0,zero,v0.t
    80003cfa:	c7ab4367          	.insn	4, 0xc7ab4367
    80003cfe:	0f3a4373          	.insn	4, 0x0f3a4373
    80003d02:	4382                	lw	t2,0(sp)
    80003d04:	7015                	c.lui	zero,0xfffe5
    80003d06:	19f2438f          	.insn	4, 0x19f2438f
    80003d0a:	4396                	lw	t2,68(sp)
    80003d0c:	4adc                	lw	a5,20(a3)
    80003d0e:	439a                	lw	t2,132(sp)
    80003d10:	d65f 43b2 0354      	.insn	6, 0x035443b2d65f
    80003d16:	43ba                	lw	t2,140(sp)
    80003d18:	6d74                	ld	a3,216(a0)
    80003d1a:	0be443bb          	.insn	4, 0x0be443bb
    80003d1e:	43cd                	li	t2,19
    80003d20:	43e409b7          	lui	s3,0x43e40
    80003d24:	3234                	fld	fa3,96(a2)
    80003d26:	43e6                	lw	t2,88(sp)
    80003d28:	247f 43f3 22f9 43fe 	.insn	14, 0x99ca44235c1243fe22f943f3247f
    80003d30:	5c12 4423 99ca 
    80003d36:	4428                	lw	a0,72(s0)
    80003d38:	d032                	sw	a2,32(sp)
    80003d3a:	442d                	li	s0,11
    80003d3c:	5118                	lw	a4,32(a0)
    80003d3e:	4430                	lw	a2,72(s0)
    80003d40:	463a                	lw	a2,140(sp)
    80003d42:	443a                	lw	s0,140(sp)
    80003d44:	44630ba3          	sb	t1,1111(t1) # 10457 <buflen.1+0x10417>
    80003d48:	ef61                	bnez	a4,80003e20 <verify_data+0x11d8>
    80003d4a:	4469                	li	s0,26
    80003d4c:	4477c207          	.insn	4, 0x4477c207
    80003d50:	1402                	sll	s0,s0,0x20
    80003d52:	447e                	lw	s0,220(sp)
    80003d54:	82a8                	.insn	2, 0x82a8
    80003d56:	3cf24497          	auipc	s1,0x3cf24
    80003d5a:	79ab44af          	.insn	4, 0x79ab44af
    80003d5e:	44b0                	lw	a2,72(s1)
    80003d60:	7ed5                	lui	t4,0xffff5
    80003d62:	44d5                	li	s1,21
    80003d64:	e886                	sd	ra,80(sp)
    80003d66:	44de                	lw	s1,212(sp)
    80003d68:	44e034f3          	csrrc	s1,0x44e,zero
    80003d6c:	be30                	fsd	fa2,120(a2)
    80003d6e:	980f44f3          	.insn	4, 0x980f44f3
    80003d72:	4500                	lw	s0,8(a0)
    80003d74:	3ef5                	addw	t4,t4,-3 # ffffffffffff4ffd <_tbss_end+0xffffffff7ffec339>
    80003d76:	451f 4e25 4520      	.insn	6, 0x45204e25451f
    80003d7c:	a5a0                	fsd	fs0,72(a1)
    80003d7e:	4522                	lw	a0,8(sp)
    80003d80:	bf66                	fsd	fs9,440(sp)
    80003d82:	4524                	lw	s1,72(a0)
    80003d84:	452708a7          	vsuxseg3ei8.v	v17,(a4),v18,v0.t
    80003d88:	45288ea3          	sb	s2,1117(a7)
    80003d8c:	452947fb          	.insn	4, 0x452947fb
    80003d90:	6738                	ld	a4,72(a4)
    80003d92:	452c                	lw	a1,72(a0)
    80003d94:	4f90                	lw	a2,24(a5)
    80003d96:	453c                	lw	a5,72(a0)
    80003d98:	14c2                	sll	s1,s1,0x30
    80003d9a:	454d                	li	a0,19
    80003d9c:	4f41                	li	t5,16
    80003d9e:	39da4577          	.insn	4, 0x39da4577
    80003da2:	2dac4583          	lbu	a1,730(s8)
    80003da6:	4592                	lw	a1,4(sp)
    80003da8:	45a55e33          	.insn	4, 0x45a55e33
    80003dac:	8575                	sra	a0,a0,0x1d
    80003dae:	45b2                	lw	a1,12(sp)
    80003db0:	91ea                	add	gp,gp,s10
    80003db2:	45c4                	lw	s1,12(a1)
    80003db4:	601e                	.insn	2, 0x601e
    80003db6:	45c8                	lw	a0,12(a1)
    80003db8:	d378                	sw	a4,100(a4)
    80003dba:	45cc                	lw	a1,12(a1)
    80003dbc:	45da2b4b          	.insn	4, 0x45da2b4b
    80003dc0:	45dfbae3          	.insn	4, 0x45dfbae3
    80003dc4:	60d8                	ld	a4,128(s1)
    80003dc6:	22c245f7          	.insn	4, 0x22c245f7
    80003dca:	45f8                	lw	a4,76(a1)
    80003dcc:	c688                	sw	a0,8(a3)
    80003dce:	4602                	lw	a2,0(sp)
    80003dd0:	2449                	addw	s0,s0,18
    80003dd2:	4609                	li	a2,2
    80003dd4:	952d                	sra	a0,a0,0x2b
    80003dd6:	4616                	lw	a2,68(sp)
    80003dd8:	2b82                	fld	fs7,0(sp)
    80003dda:	4638                	lw	a4,72(a2)
    80003ddc:	d58c                	sw	a1,40(a1)
    80003dde:	463a                	lw	a2,140(sp)
    80003de0:	20ae                	fld	ft1,200(sp)
    80003de2:	464e                	lw	a2,208(sp)
    80003de4:	5558                	lw	a4,44(a0)
    80003de6:	4656                	lw	a2,84(sp)
    80003de8:	465d649b          	.insn	4, 0x465d649b
    80003dec:	8db4                	.insn	2, 0x8db4
    80003dee:	3a7a4667          	.insn	4, 0x3a7a4667
    80003df2:	468a                	lw	a3,128(sp)
    80003df4:	fa54                	sd	a3,176(a2)
    80003df6:	469a                	lw	a3,132(sp)
    80003df8:	42ff 46ae 9d13 46d0 	.insn	18, 0xa1b846e0db7846dadd1346d09d1346ae42ff
    80003e00:	dd13 46da db78 46e0 
    80003e08:	a1b8 
    80003e0a:	8a9e46e3          	blt	t3,s1,800036b6 <verify_data+0xa6e>
    80003e0e:	6c8346fb          	.insn	4, 0x6c8346fb
    80003e12:	46fe                	lw	a3,220(sp)
    80003e14:	0e38                	add	a4,sp,792
    80003e16:	4705                	li	a4,1
    80003e18:	dae5                	beqz	a3,80003e08 <verify_data+0x11c0>
    80003e1a:	470e                	lw	a4,192(sp)
    80003e1c:	9f7d                	.insn	2, 0x9f7d
    80003e1e:	d0aa472b          	.insn	4, 0xd0aa472b
    80003e22:	4735                	li	a4,13
    80003e24:	47c5                	li	a5,17
    80003e26:	ead3476b          	.insn	4, 0xead3476b
    80003e2a:	1b49476b          	.insn	4, 0x1b49476b
    80003e2e:	4775                	li	a4,29
    80003e30:	229c                	fld	fa5,0(a3)
    80003e32:	477c                	lw	a5,76(a4)
    80003e34:	4797b60f          	.insn	4, 0x4797b60f
    80003e38:	479820a3          	sw	s9,1121(a6) # d461 <buflen.1+0xd421>
    80003e3c:	ddb4                	sw	a3,120(a1)
    80003e3e:	479f 3740 47a5      	.insn	6, 0x47a53740479f
    80003e44:	8ad5                	and	a3,a3,21
    80003e46:	155447a7          	.insn	4, 0x155447a7
    80003e4a:	47ba                	lw	a5,140(sp)
    80003e4c:	0524                	add	s1,sp,648
    80003e4e:	47c2                	lw	a5,16(sp)
    80003e50:	b8f5                	j	8000374c <verify_data+0xb04>
    80003e52:	47d2                	lw	a5,20(sp)
    80003e54:	d05f 47da 8286      	.insn	6, 0x828647dad05f
    80003e5a:	47e0                	lw	s0,76(a5)
    80003e5c:	b732                	fsd	fa2,424(sp)
    80003e5e:	47e6                	lw	a5,88(sp)
    80003e60:	481bd9f3          	csrrw	s3,0x481,23
    80003e64:	0125                	add	sp,sp,9
    80003e66:	481f 3db3 4847      	.insn	6, 0x48473db3481f
    80003e6c:	8551                	sra	a0,a0,0x14
    80003e6e:	484c                	lw	a1,20(s0)
    80003e70:	f4ee                	sd	s11,104(sp)
    80003e72:	4861                	li	a6,24
    80003e74:	adb0                	fsd	fa2,88(a1)
    80003e76:	486a                	lw	a6,152(sp)
    80003e78:	6559                	lui	a0,0x16
    80003e7a:	486c                	lw	a1,84(s0)
    80003e7c:	0341                	add	t1,t1,16
    80003e7e:	486d                	li	a6,27
    80003e80:	4881f2b7          	lui	t0,0x4881f
    80003e84:	36f5                	addw	a3,a3,-3
    80003e86:	4896                	lw	a7,68(sp)
    80003e88:	2d61                	addw	s10,s10,24
    80003e8a:	48a1                	li	a7,8
    80003e8c:	48bfb5ef          	jal	a1,800ffb16 <_tbss_end+0xf6e52>
    80003e90:	b06d                	j	8000373a <verify_data+0xaf2>
    80003e92:	48c5                	li	a7,17
    80003e94:	a2c4                	fsd	fs1,128(a3)
    80003e96:	48c8                	lw	a0,20(s1)
    80003e98:	48d2104f          	fnmadd.s	ft0,ft4,fa3,fs1,rtz
    80003e9c:	48deb2b3          	.insn	4, 0x48deb2b3
    80003ea0:	c11e                	sw	t2,128(sp)
    80003ea2:	48ec                	lw	a1,84(s1)
    80003ea4:	48ee3bd3          	.insn	4, 0x48ee3bd3
    80003ea8:	662c                	ld	a1,72(a2)
    80003eaa:	48ee                	lw	a7,216(sp)
    80003eac:	493e456f          	jal	a0,800e8b3e <_tbss_end+0xdfe7a>
    80003eb0:	2b3c                	fld	fa5,80(a4)
    80003eb2:	44f24957          	vmadc.vxm	v18,v15,tp,v0
    80003eb6:	4961                	li	s2,24
    80003eb8:	d92d                	beqz	a0,80003e2a <verify_data+0x11e2>
    80003eba:	4961                	li	s2,24
    80003ebc:	49635f53          	.insn	4, 0x49635f53
    80003ec0:	523d                	li	tp,-17
    80003ec2:	4969                	li	s2,26
    80003ec4:	ccf5                	beqz	s1,80003fc0 <verify_data+0x1378>
    80003ec6:	496d                	li	s2,27
    80003ec8:	49777d6b          	.insn	4, 0x49777d6b
    80003ecc:	f754                	sd	a3,168(a4)
    80003ece:	497d                	li	s2,31
    80003ed0:	6fb9                	lui	t6,0xe
    80003ed2:	497e                	lw	s2,220(sp)
    80003ed4:	c139                	beqz	a0,80003f1a <verify_data+0x12d2>
    80003ed6:	c342498f          	.insn	4, 0xc342498f
    80003eda:	cba1499b          	.insn	4, 0xcba1499b
    80003ede:	49b049e3          	bgtz	s11,80004b70 <verify_data+0x1f28>
    80003ee2:	49ed                	li	s3,27
    80003ee4:	4a41b0ab          	.insn	4, 0x4a41b0ab
    80003ee8:	4a5ba023          	sw	t0,1184(s7) # 3014d4a0 <buflen.1+0x3014d460>
    80003eec:	8c9f 4a73 0635      	.insn	6, 0x06354a738c9f
    80003ef2:	4a75                	li	s4,29
    80003ef4:	fd96                	sd	t0,248(sp)
    80003ef6:	4a86                	lw	s5,64(sp)
    80003ef8:	ca59                	beqz	a2,80003f8e <verify_data+0x1346>
    80003efa:	4ad5                	li	s5,21
    80003efc:	4699                	li	a3,6
    80003efe:	4add                	li	s5,23
    80003f00:	5c10                	lw	a2,56(s0)
    80003f02:	4adf bad6 4ae2      	.insn	6, 0x4ae2bad64adf
    80003f08:	0a4e                	sll	s4,s4,0x13
    80003f0a:	4af4                	lw	a3,84(a3)
    80003f0c:	4b27318b          	.insn	4, 0x4b27318b
    80003f10:	af6d                	j	800046ca <verify_data+0x1a82>
    80003f12:	4b3e                	lw	s6,204(sp)
    80003f14:	4b8786af          	.insn	4, 0x4b8786af
    80003f18:	3372                	fld	ft6,312(sp)
    80003f1a:	4bae                	lw	s7,200(sp)
    80003f1c:	91ec                	.insn	2, 0x91ec
    80003f1e:	d9bb4bc7          	fmsub.s	fs7,fs6,fs11,fs11,rmm
    80003f22:	058c4be3          	blt	s8,s8,80004778 <verify_data+0x1b30>
    80003f26:	9b834bef          	jal	s7,7ff380de <buflen.1+0x7ff3809e>
    80003f2a:	4bf2                	lw	s7,28(sp)
    80003f2c:	5c1f 4bf6 040c      	.insn	6, 0x040c4bf65c1f
    80003f32:	4c04                	lw	s1,24(s0)
    80003f34:	97d2                	add	a5,a5,s4
    80003f36:	4c06                	lw	s8,64(sp)
    80003f38:	58c2                	lw	a7,48(sp)
    80003f3a:	4c11                	li	s8,4
    80003f3c:	8cce                	mv	s9,s3
    80003f3e:	4c2d                	li	s8,11
    80003f40:	4c38983f 4c38dab4 	.insn	8, 0x4c38dab44c38983f
    80003f48:	4c3ceec7          	.insn	4, 0x4c3ceec7
    80003f4c:	f69e                	sd	t2,360(sp)
    80003f4e:	4c4a                	lw	s8,144(sp)
    80003f50:	465f 4c61 7db2      	.insn	6, 0x7db24c61465f
    80003f56:	e8004c9b          	.insn	4, 0xe8004c9b
    80003f5a:	4cb5                	li	s9,13
    80003f5c:	acda                	fsd	fs6,88(sp)
    80003f5e:	4cb8                	lw	a4,88(s1)
    80003f60:	4cc2bb0b          	.insn	4, 0x4cc2bb0b
    80003f64:	c236                	sw	a3,4(sp)
    80003f66:	47684ccf          	.insn	4, 0x47684ccf
    80003f6a:	4cd9                	li	s9,22
    80003f6c:	4ced7143          	.insn	4, 0x4ced7143
    80003f70:	a049                	j	80003ff2 <verify_data+0x13aa>
    80003f72:	4cf2                	lw	s9,28(sp)
    80003f74:	7b64                	ld	s1,240(a4)
    80003f76:	2ba04cf3          	.insn	4, 0x2ba04cf3
    80003f7a:	4cf4                	lw	a3,92(s1)
    80003f7c:	cad2                	sw	s4,84(sp)
    80003f7e:	4cf9                	li	s9,30
    80003f80:	1e4c                	add	a1,sp,820
    80003f82:	aadb4d03          	lbu	s10,-1363(s6) # fffffffffc5c2aad <_tbss_end+0xffffffff7c5b9de9>
    80003f86:	4d08                	lw	a0,24(a0)
    80003f88:	4d130333          	.insn	4, 0x4d130333
    80003f8c:	345f 4d2e 799b      	.insn	6, 0x799b4d2e345f
    80003f92:	4d4c                	lw	a1,28(a0)
    80003f94:	f848                	sd	a0,176(s0)
    80003f96:	4d60                	lw	s0,92(a0)
    80003f98:	5bb8                	lw	a4,112(a5)
    80003f9a:	1a904d77          	.insn	4, 0x1a904d77
    80003f9e:	4d9f fe51 4da5      	.insn	6, 0x4da5fe514d9f
    80003fa4:	6f29                	lui	t5,0xa
    80003fa6:	4db5                	li	s11,13
    80003fa8:	cec0                	sw	s0,28(a3)
    80003faa:	4dc9                	li	s11,18
    80003fac:	4e03cf67          	.insn	4, 0x4e03cf67
    80003fb0:	b8a4                	fsd	fs1,112(s1)
    80003fb2:	82044e17          	auipc	t3,0x82044
    80003fb6:	4e34                	lw	a3,88(a2)
    80003fb8:	b850                	fsd	fa2,176(s0)
    80003fba:	4e3a                	lw	t3,140(sp)
    80003fbc:	4e448da7          	vsoxseg3ei8.v	v27,(s1),v4
    80003fc0:	4e4c9107          	.insn	4, 0x4e4c9107
    80003fc4:	1808                	add	a0,sp,48
    80003fc6:	4e50                	lw	a2,28(a2)
    80003fc8:	6961                	lui	s2,0x18
    80003fca:	4e72                	lw	t3,28(sp)
    80003fcc:	0276                	sll	tp,tp,0x1d
    80003fce:	4e81                	li	t4,0
    80003fd0:	e729                	bnez	a4,8000401a <verify_data+0x13d2>
    80003fd2:	4e82                	lw	t4,0(sp)
    80003fd4:	94d2                	add	s1,s1,s4
    80003fd6:	d2144e8f          	.insn	4, 0xd2144e8f
    80003fda:	4e9c                	lw	a5,24(a3)
    80003fdc:	4eaa874f          	.insn	4, 0x4eaa874f
    80003fe0:	8f85                	sub	a5,a5,s1
    80003fe2:	4eca                	lw	t4,144(sp)
    80003fe4:	687e                	ld	a6,472(sp)
    80003fe6:	4ed0                	lw	a2,28(a3)
    80003fe8:	4ed6bee3          	.insn	4, 0x4ed6bee3
    80003fec:	9124                	.insn	2, 0x9124
    80003fee:	85ea4ee7          	.insn	4, 0x85ea4ee7
    80003ff2:	4eec                	lw	a1,92(a3)
    80003ff4:	aeb6                	fsd	fa3,344(sp)
    80003ff6:	4ef5                	li	t4,29
    80003ff8:	4efa053b          	.insn	4, 0x4efa053b
    80003ffc:	2d0a                	fld	fs10,128(sp)
    80003ffe:	6b084efb          	.insn	4, 0x6b084efb
    80004002:	4f09                	li	t5,2
    80004004:	d49f 4f2b 2e2c      	.insn	6, 0x2e2c4f2bd49f
    8000400a:	4f35                	li	t5,13
    8000400c:	4c14                	lw	a3,24(s0)
    8000400e:	82e34f5b          	.insn	4, 0x82e34f5b
    80004012:	4f5e                	lw	t5,212(sp)
    80004014:	7e0c                	ld	a1,56(a2)
    80004016:	4f6a                	lw	t5,152(sp)
    80004018:	d6f6                	sw	t4,108(sp)
    8000401a:	2e644f6b          	.insn	4, 0x2e644f6b
    8000401e:	4f6e                	lw	t5,216(sp)
    80004020:	4f730137          	lui	sp,0x4f730
    80004024:	0661                	add	a2,a2,24
    80004026:	4f80                	lw	s0,24(a5)
    80004028:	4e44                	lw	s1,28(a2)
    8000402a:	4f90                	lw	a2,24(a5)
    8000402c:	177e                	sll	a4,a4,0x3f
    8000402e:	4f96                	lw	t6,68(sp)
    80004030:	08d9                	add	a7,a7,22
    80004032:	6eff4f97          	auipc	t6,0x6eff4
    80004036:	4f9c                	lw	a5,24(a5)
    80004038:	9f10                	.insn	2, 0x9f10
    8000403a:	4f9f 6481 4fa3      	.insn	6, 0x4fa364814f9f
    80004040:	94c6                	add	s1,s1,a7
    80004042:	4fa9                	li	t6,10
    80004044:	3271                	addw	tp,tp,-4 # fffffffffffffffc <_tbss_end+0xffffffff7fff7338>
    80004046:	a3944fb7          	lui	t6,0xa3944
    8000404a:	4fc1                	li	t6,16
    8000404c:	fda0                	sd	s0,120(a1)
    8000404e:	44314fd3          	.insn	4, 0x44314fd3
    80004052:	4fed                	li	t6,27
    80004054:	b9ad                	j	80003cce <verify_data+0x1086>
    80004056:	501d                	c.li	zero,-25
    80004058:	495f 502b d8ac      	.insn	6, 0xd8ac502b495f
    8000405e:	5030                	lw	a2,96(s0)
    80004060:	503866b3          	.insn	4, 0x503866b3
    80004064:	259f 503a ed35      	.insn	6, 0xed35503a259f
    8000406a:	504d                	c.li	zero,-13
    8000406c:	5c0d                	li	s8,-29
    8000406e:	505e                	.insn	2, 0x505e
    80004070:	8da5                	xor	a1,a1,s1
    80004072:	505e                	.insn	2, 0x505e
    80004074:	5615                	li	a2,-27
    80004076:	5081                	li	ra,-32
    80004078:	9ad6                	add	s5,s5,s5
    8000407a:	50a2                	lw	ra,40(sp)
    8000407c:	5896                	lw	a7,100(sp)
    8000407e:	636650a7          	.insn	4, 0x636650a7
    80004082:	50b4                	lw	a3,96(s1)
    80004084:	fc05                	bnez	s0,80003fbc <verify_data+0x1374>
    80004086:	50c4                	lw	s1,36(s1)
    80004088:	a0ae                	fsd	fa1,64(sp)
    8000408a:	50c9                	li	ra,-14
    8000408c:	50dfdaef          	jal	s5,80101d98 <_tbss_end+0xf90d4>
    80004090:	67d5                	lui	a5,0x15
    80004092:	511f 6762 5120      	.insn	6, 0x51206762511f
    80004098:	b562                	fsd	fs8,168(sp)
    8000409a:	5162                	lw	sp,56(sp)
    8000409c:	eb98                	sd	a4,16(a5)
    8000409e:	5185                	li	gp,-31
    800040a0:	518d9d7b          	.insn	4, 0x518d9d7b
    800040a4:	9932                	add	s2,s2,a2
    800040a6:	51b0                	lw	a2,96(a1)
    800040a8:	a63a                	fsd	fa4,264(sp)
    800040aa:	51c9                	li	gp,-14
    800040ac:	3fa1                	addw	t6,t6,-24 # ffffffffa3943fe8 <_tbss_end+0xffffffff2393b324>
    800040ae:	51e5                	li	gp,-7
    800040b0:	7c82                	ld	s9,32(sp)
    800040b2:	049e51e7          	.insn	4, 0x049e51e7
    800040b6:	51fc                	lw	a5,100(a1)
    800040b8:	8b7a                	mv	s6,t5
    800040ba:	5222                	lw	tp,40(sp)
    800040bc:	5235d287          	.insn	4, 0x5235d287
    800040c0:	e641                	bnez	a2,80004148 <verify_data+0x1500>
    800040c2:	5238                	lw	a4,96(a2)
    800040c4:	10ed                	add	ra,ra,-5
    800040c6:	5241                	li	tp,-16
    800040c8:	34f5                	addw	s1,s1,-3 # ffffffffbcf27d53 <_tbss_end+0xffffffff3cf1f08f>
    800040ca:	5266                	lw	tp,120(sp)
    800040cc:	52670823          	sb	t1,1328(a4)
    800040d0:	52680fd7          	.insn	4, 0x52680fd7
    800040d4:	4906                	lw	s2,64(sp)
    800040d6:	526d                	li	tp,-5
    800040d8:	9a3e                	add	s4,s4,a5
    800040da:	adf35273          	csrrw	tp,0xadf,6
    800040de:	5278                	lw	a4,100(a2)
    800040e0:	5282f6af          	.insn	4, 0x5282f6af
    800040e4:	b9a9                	j	80003d3e <verify_data+0x10f6>
    800040e6:	9ede5297          	auipc	t0,0x9ede5
    800040ea:	52a0                	lw	s0,96(a3)
    800040ec:	47ea                	lw	a5,152(sp)
    800040ee:	52a2                	lw	t0,40(sp)
    800040f0:	8c68                	.insn	2, 0x8c68
    800040f2:	52ac                	lw	a1,96(a3)
    800040f4:	2390                	fld	fa2,0(a5)
    800040f6:	52b9                	li	t0,-18
    800040f8:	cb54                	sw	a3,20(a4)
    800040fa:	52c6                	lw	t0,112(sp)
    800040fc:	52d6793b          	.insn	4, 0x52d6793b
    80004100:	52d9061b          	addw	a2,s2,1325 # 1852d <buflen.1+0x184ed>
    80004104:	52da5463          	bge	s4,a3,8000462c <verify_data+0x19e4>
    80004108:	e6d4                	sd	a3,136(a3)
    8000410a:	52dd                	li	t0,-9
    8000410c:	6649                	lui	a2,0x12
    8000410e:	52de                	lw	t0,244(sp)
    80004110:	02a1                	add	t0,t0,8 # 1ede90ee <buflen.1+0x1ede90ae>
    80004112:	52e1                	li	t0,-8
    80004114:	bc78                	fsd	fa4,248(s0)
    80004116:	70bb52e3          	bge	s6,a1,8000501a <input_data+0x3d2>
    8000411a:	52ea                	lw	t0,184(sp)
    8000411c:	9892                	add	a7,a7,tp
    8000411e:	52f5                	li	t0,-3
    80004120:	b766                	fsd	fs9,424(sp)
    80004122:	52fa                	lw	t0,188(sp)
    80004124:	5324eef7          	.insn	4, 0x5324eef7
    80004128:	5328610f          	.insn	4, 0x5328610f
    8000412c:	6e6c                	ld	a1,216(a2)
    8000412e:	532a                	lw	t1,168(sp)
    80004130:	5f7c                	lw	a5,124(a4)
    80004132:	50f6533f 167d536d 	.insn	8, 0x167d536d50f6533f
    8000413a:	5370                	lw	a2,100(a4)
    8000413c:	537361cf          	fnmadd.d	ft3,ft6,fs7,fa0,unknown
    80004140:	53807c37          	lui	s8,0x53807
    80004144:	538275d3          	.insn	4, 0x538275d3
    80004148:	8780                	vmsge.vx	v15,v0,ra,v0.t
    8000414a:	5390                	lw	a2,32(a5)
    8000414c:	099e                	sll	s3,s3,0x7
    8000414e:	539c                	lw	a5,32(a5)
    80004150:	53a33aef          	jal	s5,8003768a <_tbss_end+0x2e9c6>
    80004154:	da66                	sw	s9,52(sp)
    80004156:	70b553ab          	.insn	4, 0x70b553ab
    8000415a:	53ba                	lw	t2,172(sp)
    8000415c:	53c8cb9b          	.insn	4, 0x53c8cb9b
    80004160:	53ca3e2f          	.insn	4, 0x53ca3e2f
    80004164:	8d40                	vmsge.vx	v26,v0,ra,v0.t
    80004166:	53de                	lw	t2,244(sp)
    80004168:	53f8a88b          	.insn	4, 0x53f8a88b
    8000416c:	a9d0                	fsd	fa2,144(a1)
    8000416e:	a88853fb          	.insn	4, 0xa88853fb
    80004172:	5431                	li	s0,-20
    80004174:	ce4c                	sw	a1,28(a2)
    80004176:	5445                	li	s0,-15
    80004178:	148d                	add	s1,s1,-29
    8000417a:	544a                	lw	s0,176(sp)
    8000417c:	6075                	c.lui	zero,0x1d
    8000417e:	544a                	lw	s0,176(sp)
    80004180:	2416                	fld	fs0,320(sp)
    80004182:	545d                	li	s0,-9
    80004184:	0c00                	add	s0,sp,528
    80004186:	547c                	lw	a5,108(s0)
    80004188:	e13c                	sd	a5,64(a0)
    8000418a:	547e                	lw	s0,252(sp)
    8000418c:	d742                	sw	a6,172(sp)
    8000418e:	af9c54af          	.insn	4, 0xaf9c54af
    80004192:	54ec                	lw	a1,108(s1)
    80004194:	a2b4                	fsd	fa3,64(a3)
    80004196:	54ed                	li	s1,-5
    80004198:	6adf 5506 fc8e      	.insn	6, 0xfc8e55066adf
    8000419e:	5515                	li	a0,-27
    800041a0:	f601                	bnez	a2,800040a8 <verify_data+0x1460>
    800041a2:	5520                	lw	s0,104(a0)
    800041a4:	9b08                	.insn	2, 0x9b08
    800041a6:	5548                	lw	a0,44(a0)
    800041a8:	5552d8af          	.insn	4, 0x5552d8af
    800041ac:	5557c007          	.insn	4, 0x5557c007
    800041b0:	5579cfa7          	.insn	4, 0x5579cfa7
    800041b4:	5582c697          	auipc	a3,0x5582c
    800041b8:	7b2e                	ld	s6,232(sp)
    800041ba:	5595                	li	a1,-27
    800041bc:	1f9c                	add	a5,sp,1008
    800041be:	55a9                	li	a1,-22
    800041c0:	e12a                	sd	a0,128(sp)
    800041c2:	55d6                	lw	a1,116(sp)
    800041c4:	4c62                	lw	s8,24(sp)
    800041c6:	55f0                	lw	a2,108(a1)
    800041c8:	56126e87          	.insn	4, 0x56126e87
    800041cc:	ddb0                	sw	a2,120(a1)
    800041ce:	5612                	lw	a2,36(sp)
    800041d0:	657f 5624 35e2 5625 	.insn	22, 0xdc38564cd7805646a03f562654c2562535e25624657f
    800041d8:	54c2 5626 a03f 5646 
    800041e0:	d780 564c dc38 
    800041e6:	567a                	lw	a2,188(sp)
    800041e8:	5680bd3f 56834290 	.insn	8, 0x568342905680bd3f
    800041f0:	17e6                	sll	a5,a5,0x39
    800041f2:	56a1                	li	a3,-24
    800041f4:	56be5ff3          	csrrw	t6,0x56b,28
    800041f8:	16b2                	sll	a3,a3,0x2c
    800041fa:	56c5                	li	a3,-15
    800041fc:	263e                	fld	fa2,456(sp)
    800041fe:	56df 1c4d 56f8      	.insn	6, 0x56f81c4d56df
    80004204:	b0b9                	j	80003a52 <verify_data+0xe0a>
    80004206:	56f8                	lw	a4,108(a3)
    80004208:	3468                	fld	fa0,232(s0)
    8000420a:	56fe                	lw	a3,252(sp)
    8000420c:	0bc1                	add	s7,s7,16
    8000420e:	5700                	lw	s0,40(a4)
    80004210:	4838                	lw	a4,80(s0)
    80004212:	02115727          	.insn	4, 0x02115727
    80004216:	572c                	lw	a1,104(a4)
    80004218:	3a00                	fld	fs0,48(a2)
    8000421a:	5730                	lw	a2,104(a4)
    8000421c:	6a81                	vmsgeu.vx	v21,v0,zero,v0.t
    8000421e:	5732                	lw	a4,44(sp)
    80004220:	5737b9e3          	.insn	4, 0x5737b9e3
    80004224:	08ff 576b c149 576b 	.insn	10, 0x6483576bc149576b08ff
    8000422c:	6483 
    8000422e:	5776                	lw	a4,124(sp)
    80004230:	5511                	li	a0,-28
    80004232:	c65d5787          	vluxseg7ei16.v	v15,(s10),v5
    80004236:	57a2                	lw	a5,40(sp)
    80004238:	b06e                	fsd	fs11,32(sp)
    8000423a:	b82b57af          	.insn	4, 0xb82b57af
    8000423e:	57b4                	lw	a3,104(a5)
    80004240:	ceb2                	sw	a2,92(sp)
    80004242:	57b6                	lw	a5,108(sp)
    80004244:	973c                	.insn	2, 0x973c
    80004246:	57c5                	li	a5,-15
    80004248:	57cebc73          	csrrc	s8,0x57c,t4
    8000424c:	6a2e                	ld	s4,200(sp)
    8000424e:	73e657d7          	vmfne.vf	v15,v30,fa2
    80004252:	57f4                	lw	a3,108(a5)
    80004254:	2e9a                	fld	ft9,384(sp)
    80004256:	f556583b          	.insn	4, 0xf556583b
    8000425a:	b0c8583b          	.insn	4, 0xb0c8583b
    8000425e:	583d                	li	a6,-17
    80004260:	86a0                	vmsge.vx	v13,v0,ra,v0.t
    80004262:	5864                	lw	s1,116(s0)
    80004264:	9850                	.insn	2, 0x9850
    80004266:	588e                	lw	a7,224(sp)
    80004268:	a0ea                	fsd	fs10,64(sp)
    8000426a:	4ae3589b          	.insn	4, 0x4ae3589b
    8000426e:	01ab58ab          	.insn	4, 0x01ab58ab
    80004272:	236f58cb          	fnmsub.d	fa7,ft10,fs6,ft4,unknown
    80004276:	58e6                	lw	a7,120(sp)
    80004278:	3434                	fld	fa3,104(s0)
    8000427a:	917d58ef          	jal	a7,7ffd9b90 <buflen.1+0x7ffd9b50>
    8000427e:	58f5                	li	a7,-3
    80004280:	592c584b          	fnmsub.s	fa6,fs8,fs2,fa1,unknown
    80004284:	62d6                	ld	t0,336(sp)
    80004286:	ca9b592f          	.insn	4, 0xca9b592f
    8000428a:	5944                	lw	s1,52(a0)
    8000428c:	8add                	and	a3,a3,23
    8000428e:	5948                	lw	a0,52(a0)
    80004290:	1fe2                	sll	t6,t6,0x38
    80004292:	5952                	lw	s2,52(sp)
    80004294:	5969bfbf 597a35f0 	.insn	8, 0x597a35f05969bfbf
    8000429c:	c412                	sw	tp,8(sp)
    8000429e:	598a                	lw	s3,160(sp)
    800042a0:	09c4                	add	s1,sp,212
    800042a2:	598e                	lw	s3,224(sp)
    800042a4:	359a                	fld	fa1,416(sp)
    800042a6:	930e598f          	.insn	4, 0x930e598f
    800042aa:	59a5                	li	s3,-23
    800042ac:	d140                	sw	s0,36(a0)
    800042ae:	59b4                	lw	a3,112(a1)
    800042b0:	59bbba97          	auipc	s5,0x59bbb
    800042b4:	ad26                	fsd	fs1,152(sp)
    800042b6:	59ce                	lw	s3,240(sp)
    800042b8:	9a45                	and	a2,a2,-15
    800042ba:	59d9                	li	s3,-10
    800042bc:	0492                	sll	s1,s1,0x4
    800042be:	59ed                	li	s3,-5
    800042c0:	ce14                	sw	a3,24(a2)
    800042c2:	5a02                	lw	s4,32(sp)
    800042c4:	5c31                	li	s8,-20
    800042c6:	5a21                	li	s4,-24
    800042c8:	ca46                	sw	a7,20(sp)
    800042ca:	5a21                	li	s4,-24
    800042cc:	7271                	lui	tp,0xffffc
    800042ce:	5a32                	lw	s4,44(sp)
    800042d0:	0f8e                	sll	t6,t6,0x3
    800042d2:	5a42                	lw	s4,48(sp)
    800042d4:	5a46b2c3          	fmadd.d	ft5,fa3,ft4,fa1,rup
    800042d8:	e44c                	sd	a1,136(s0)
    800042da:	5a49                	li	s4,-14
    800042dc:	11fa                	sll	gp,gp,0x3e
    800042de:	5a51                	li	s4,-12
    800042e0:	2220                	fld	fs0,64(a2)
    800042e2:	5a55                	li	s4,-11
    800042e4:	50ec                	lw	a1,100(s1)
    800042e6:	5d345a5b          	.insn	4, 0x5d345a5b
    800042ea:	5a8a                	lw	s5,160(sp)
    800042ec:	8bfd                	and	a5,a5,31
    800042ee:	e4a25aa3          	.insn	4, 0xe4a25aa3
    800042f2:	5aa6                	lw	s5,104(sp)
    800042f4:	5aadf643          	fmadd.d	fa2,fs11,fa0,fa1
    800042f8:	b38c                	fsd	fa1,32(a5)
    800042fa:	5abc                	lw	a5,112(a3)
    800042fc:	7ebd                	lui	t4,0xfffef
    800042fe:	5ad6                	lw	s5,116(sp)
    80004300:	e652                	sd	s4,264(sp)
    80004302:	5add                	li	s5,-9
    80004304:	8a1a                	mv	s4,t1
    80004306:	5aec                	lw	a1,116(a3)
    80004308:	8572                	mv	a0,t3
    8000430a:	5b04                	lw	s1,48(a4)
    8000430c:	5b13e84b          	fnmsub.d	fa6,ft7,fa7,fa1,unknown
    80004310:	5b668c23          	sb	s6,1464(a3) # d583076c <_tbss_end+0x55827aa8>
    80004314:	4e8e                	lw	t4,192(sp)
    80004316:	085b5b67          	.insn	4, 0x085b5b67
    8000431a:	5b74                	lw	a3,116(a4)
    8000431c:	c33a                	sw	a4,132(sp)
    8000431e:	5b90                	lw	a2,48(a5)
    80004320:	c554                	sw	a3,12(a0)
    80004322:	13985ba3          	.insn	4, 0x13985ba3
    80004326:	5bad                	li	s7,-21
    80004328:	fea1                	bnez	a3,80004280 <verify_data+0x1638>
    8000432a:	5bb1                	li	s7,-20
    8000432c:	5bc3d43b          	.insn	4, 0x5bc3d43b
    80004330:	5bdbb757          	.insn	4, 0x5bdbb757
    80004334:	d285                	beqz	a3,80004254 <verify_data+0x160c>
    80004336:	20625bdb          	.insn	4, 0x20625bdb
    8000433a:	5be2                	lw	s7,56(sp)
    8000433c:	4fe1                	li	t6,24
    8000433e:	5c1f f7b7 5c26      	.insn	6, 0x5c26f7b75c1f
    80004344:	ae74                	fsd	fa3,216(a2)
    80004346:	754a5c27          	.insn	4, 0x754a5c27
    8000434a:	96b35c3f e1405c4d 	.insn	8, 0xe1405c4d96b35c3f
    80004352:	5c50                	lw	a2,60(s0)
    80004354:	4f7e                	lw	t5,220(sp)
    80004356:	8f185c63          	bge	a6,a7,8000344e <verify_data+0x806>
    8000435a:	5c65                	li	s8,-7
    8000435c:	5c6b23e3          	.insn	4, 0x5c6b23e3
    80004360:	21b4                	fld	fa3,64(a1)
    80004362:	5c6e                	lw	s8,248(sp)
    80004364:	5c7c7ae7          	.insn	4, 0x5c7c7ae7
    80004368:	4274                	lw	a3,68(a2)
    8000436a:	5c99                	li	s9,-26
    8000436c:	c924                	sw	s1,80(a0)
    8000436e:	5ca1                	li	s9,-24
    80004370:	6251                	lui	tp,0x14
    80004372:	5cb4                	lw	a3,120(s1)
    80004374:	7dfd                	lui	s11,0xfffff
    80004376:	5cb9                	li	s9,-18
    80004378:	ecf0                	sd	a2,216(s1)
    8000437a:	5ce0                	lw	s0,124(s1)
    8000437c:	cf1d                	beqz	a4,800043ba <verify_data+0x1772>
    8000437e:	e2f05ce7          	.insn	4, 0xe2f05ce7
    80004382:	5cfd                	li	s9,-1
    80004384:	5d0e34db          	.insn	4, 0x5d0e34db
    80004388:	cf00                	sw	s0,24(a4)
    8000438a:	5d0e                	lw	s10,224(sp)
    8000438c:	6bb9                	lui	s7,0xe
    8000438e:	5d11                	li	s10,-28
    80004390:	5d161ea7          	.insn	4, 0x5d161ea7
    80004394:	5d347033          	.insn	4, 0x5d347033
    80004398:	5d39ae3b          	.insn	4, 0x5d39ae3b
    8000439c:	52b6                	lw	t0,108(sp)
    8000439e:	5d51                	li	s10,-12
    800043a0:	5d52b08f          	.insn	4, 0x5d52b08f
    800043a4:	acbd                	j	80004622 <verify_data+0x19da>
    800043a6:	5d64                	lw	s1,124(a0)
    800043a8:	791e                	ld	s2,480(sp)
    800043aa:	5d78                	lw	a4,124(a0)
    800043ac:	d049                	beqz	s0,8000432e <verify_data+0x16e6>
    800043ae:	861e5d7b          	.insn	4, 0x861e5d7b
    800043b2:	5cf85d83          	lhu	s11,1487(a6)
    800043b6:	5d8c                	lw	a1,56(a1)
    800043b8:	2534                	fld	fa3,72(a0)
    800043ba:	5d9e                	lw	s11,228(sp)
    800043bc:	af35                	j	80004af8 <verify_data+0x1eb0>
    800043be:	5dac                	lw	a1,120(a1)
    800043c0:	5db6107f 5de66704 	.insn	12, 0x5dffa3b25de667045db6107f
    800043c8:	5dffa3b2 
    800043cc:	b1aa                	fsd	fa0,224(sp)
    800043ce:	5e0d                	li	t3,-29
    800043d0:	b1a2                	fsd	fs0,224(sp)
    800043d2:	5e28                	lw	a0,120(a2)
    800043d4:	1801                	add	a6,a6,-32
    800043d6:	5e3d                	li	t3,-17
    800043d8:	f449                	bnez	s0,80004362 <verify_data+0x171a>
    800043da:	5e3d                	li	t3,-17
    800043dc:	5f29                	li	t5,-22
    800043de:	5e48                	lw	a0,60(a2)
    800043e0:	2640                	fld	fs0,136(a2)
    800043e2:	5e70                	lw	a2,124(a2)
    800043e4:	f286                	sd	ra,352(sp)
    800043e6:	5e79                	li	t3,-2
    800043e8:	58ce                	lw	a7,240(sp)
    800043ea:	5eaa                	lw	t4,168(sp)
    800043ec:	5eb1deab          	.insn	4, 0x5eb1deab
    800043f0:	2f60                	fld	fs0,216(a4)
    800043f2:	5eb9                	li	t4,-18
    800043f4:	859f 5ecc 3d98      	.insn	6, 0x3d985ecc859f
    800043fa:	5ed1                	li	t4,-12
    800043fc:	babe                	fsd	fa5,368(sp)
    800043fe:	5ef8                	lw	a4,124(a3)
    80004400:	5f000727          	.insn	4, 0x5f000727
    80004404:	fee2                	sd	s8,376(sp)
    80004406:	ae285f0b          	.insn	4, 0xae285f0b
    8000440a:	5f21                	li	t5,-24
    8000440c:	5f2d8e87          	.insn	4, 0x5f2d8e87
    80004410:	0230                	add	a2,sp,264
    80004412:	5f38                	lw	a4,120(a4)
    80004414:	3635                	addw	a2,a2,-19 # 11fed <buflen.1+0x11fad>
    80004416:	5f46                	lw	t5,112(sp)
    80004418:	5f5770ab          	.insn	4, 0x5f5770ab
    8000441c:	2df2                	fld	fs11,280(sp)
    8000441e:	5f5c                	lw	a5,60(a4)
    80004420:	6aa2                	ld	s5,8(sp)
    80004422:	5f5e                	lw	t5,244(sp)
    80004424:	9731                	sra	a4,a4,0x2c
    80004426:	5f65                	li	t5,-7
    80004428:	5ea0                	lw	s0,120(a3)
    8000442a:	183e5f6f          	jal	t5,800e9dac <_tbss_end+0xe10e8>
    8000442e:	5f71                	li	t5,-4
    80004430:	bf85                	j	800043a0 <verify_data+0x1758>
    80004432:	5f76                	lw	t5,124(sp)
    80004434:	796a                	ld	s2,184(sp)
    80004436:	5f84                	lw	s1,56(a5)
    80004438:	3495                	addw	s1,s1,-27
    8000443a:	5f89                	li	t6,-30
    8000443c:	5f8b586b          	.insn	4, 0x5f8b586b
    80004440:	5ed6                	lw	t4,116(sp)
    80004442:	5f92                	lw	t6,36(sp)
    80004444:	25c2                	fld	fa1,16(sp)
    80004446:	5fa0                	lw	s0,120(a5)
    80004448:	8e1a                	mv	t3,t1
    8000444a:	5fa0                	lw	s0,120(a5)
    8000444c:	5faed877          	.insn	4, 0x5faed877
    80004450:	5faffcaf          	.insn	4, 0x5faffcaf
    80004454:	fdc5                	bnez	a1,8000440c <verify_data+0x17c4>
    80004456:	beb65fcb          	.insn	4, 0xbeb65fcb
    8000445a:	5fd0                	lw	a2,60(a5)
    8000445c:	7672                	ld	a2,312(sp)
    8000445e:	5fd2                	lw	t6,52(sp)
    80004460:	378e                	fld	fa5,224(sp)
    80004462:	f9555fd3          	.insn	4, 0xf9555fd3
    80004466:	5ff5                	li	t6,-3
    80004468:	5ffa6057          	.insn	4, 0x5ffa6057
    8000446c:	e246                	sd	a7,256(sp)
    8000446e:	5ffe                	lw	t6,252(sp)
    80004470:	8c4e                	mv	s8,s3
    80004472:	600d                	c.lui	zero,0x3
    80004474:	6f54                	ld	a3,152(a4)
    80004476:	600e                	.insn	2, 0x600e
    80004478:	4a40                	lw	s0,20(a2)
    8000447a:	6010                	ld	a2,0(s0)
    8000447c:	3b49                	addw	s6,s6,-14
    8000447e:	601e                	.insn	2, 0x601e
    80004480:	601e79bb          	.insn	4, 0x601e79bb
    80004484:	9910                	.insn	2, 0x9910
    80004486:	f51e603f 804f6064 	.insn	8, 0x804f6064f51e603f
    8000448e:	6076                	.insn	2, 0x6076
    80004490:	1c78                	add	a4,sp,572
    80004492:	6089                	lui	ra,0x2
    80004494:	c63a                	sw	a4,12(sp)
    80004496:	6089                	lui	ra,0x2
    80004498:	d200                	sw	s0,32(a2)
    8000449a:	7ef86097          	auipc	ra,0x7ef86
    8000449e:	540c609b          	.insn	4, 0x540c609b
    800044a2:	60b8                	ld	a4,64(s1)
    800044a4:	52a1                	li	t0,-24
    800044a6:	60b9                	lui	ra,0xe
    800044a8:	3d99                	addw	s11,s11,-26 # ffffffffffffefe6 <_tbss_end+0xffffffff7fff6322>
    800044aa:	60d6                	ld	ra,336(sp)
    800044ac:	7a9e                	ld	s5,480(sp)
    800044ae:	60ff 3a28 610f 407d 	.insn	22, 0x612c4ec4612686e061223bea610f407d610f3a2860ff
    800044b6:	610f 3bea 6122 86e0 
    800044be:	6126 4ec4 612c 
    800044c4:	6133ac8b          	.insn	4, 0x6133ac8b
    800044c8:	4569                	li	a0,26
    800044ca:	613d                	add	sp,sp,480
    800044cc:	5b08                	lw	a0,48(a4)
    800044ce:	6145                	add	sp,sp,48
    800044d0:	6ca9                	lui	s9,0xa
    800044d2:	615d                	add	sp,sp,432
    800044d4:	a80d                	j	80004506 <verify_data+0x18be>
    800044d6:	a6ab616b          	.insn	4, 0xa6ab616b
    800044da:	6182                	ld	gp,0(sp)
    800044dc:	7cc8                	ld	a0,184(s1)
    800044de:	6186                	ld	gp,64(sp)
    800044e0:	8322                	mv	t1,s0
    800044e2:	6190                	ld	a2,0(a1)
    800044e4:	f3c1                	bnez	a5,80004464 <verify_data+0x181c>
    800044e6:	61ce                	ld	gp,208(sp)
    800044e8:	19ad                	add	s3,s3,-21 # 43e3ffeb <buflen.1+0x43e3ffab>
    800044ea:	61e4                	ld	s1,192(a1)
    800044ec:	6d64                	ld	s1,216(a0)
    800044ee:	61ec                	ld	a1,192(a1)
    800044f0:	52ca                	lw	t0,176(sp)
    800044f2:	61fd                	lui	gp,0x1f
    800044f4:	d948                	sw	a0,52(a0)
    800044f6:	6202                	ld	tp,0(sp)
    800044f8:	800e                	c.mv	zero,gp
    800044fa:	b61d621b          	.insn	4, 0xb61d621b
    800044fe:	6226                	ld	tp,72(sp)
    80004500:	4380                	lw	s0,0(a5)
    80004502:	fe036243          	.insn	4, 0xfe036243
    80004506:	624e                	ld	tp,208(sp)
    80004508:	b9e0                	fsd	fs0,240(a1)
    8000450a:	bb78624f          	fnmadd.d	ft4,fa6,fs7,fs7,unknown
    8000450e:	6266                	ld	tp,88(sp)
    80004510:	2af9                	addw	s5,s5,30 # ffffffffd9bbf2ce <_tbss_end+0xffffffff59bb660a>
    80004512:	6279                	lui	tp,0x1e
    80004514:	628bd913          	.insn	4, 0x628bd913
    80004518:	62a986eb          	.insn	4, 0x62a986eb
    8000451c:	9932                	add	s2,s2,a2
    8000451e:	62bc                	ld	a5,64(a3)
    80004520:	62c3d607          	.insn	4, 0x62c3d607
    80004524:	a545                	j	80004bc4 <verify_data+0x1f7c>
    80004526:	8bab62d3          	.insn	4, 0x8bab62d3
    8000452a:	6d6f62e3          	bltu	t5,s6,800053ee <input_data+0x7a6>
    8000452e:	62e4                	ld	s1,192(a3)
    80004530:	f09c                	sd	a5,32(s1)
    80004532:	e6d262fb          	.insn	4, 0xe6d262fb
    80004536:	6320                	ld	s0,64(a4)
    80004538:	632cf297          	auipc	t0,0x632cf
    8000453c:	d69d                	beqz	a3,8000446a <verify_data+0x1822>
    8000453e:	463a634b          	.insn	4, 0x463a634b
    80004542:	634e                	ld	t1,208(sp)
    80004544:	f658                	sd	a4,168(a2)
    80004546:	635d                	lui	t1,0x17
    80004548:	c3dd                	beqz	a5,800045ee <verify_data+0x19a6>
    8000454a:	6366                	ld	t1,88(sp)
    8000454c:	a131                	j	80004958 <verify_data+0x1d10>
    8000454e:	c12363ab          	.insn	4, 0xc12363ab
    80004552:	63bc                	ld	a5,64(a5)
    80004554:	e759                	bnez	a4,800045e2 <verify_data+0x199a>
    80004556:	0cb163c7          	.insn	4, 0x0cb163c7
    8000455a:	032663db          	.insn	4, 0x032663db
    8000455e:	63de                	ld	t2,464(sp)
    80004560:	da45                	beqz	a2,80004510 <verify_data+0x18c8>
    80004562:	036f63fb          	.insn	4, 0x036f63fb
    80004566:	748b6413          	or	s0,s6,1864
    8000456a:	6418                	ld	a4,8(s0)
    8000456c:	5eb2                	lw	t4,44(sp)
    8000456e:	641f 9a25 6426      	.insn	6, 0x64269a25641f
    80004574:	4216                	lw	tp,68(sp)
    80004576:	3fdd6427          	.insn	4, 0x3fdd6427
    8000457a:	f9ef643f 83b4644b 	.insn	8, 0x83b4644bf9ef643f
    80004582:	645e                	ld	s0,464(sp)
    80004584:	1629                	add	a2,a2,-22
    80004586:	6460                	ld	s0,200(s0)
    80004588:	6941                	lui	s2,0x10
    8000458a:	6474                	ld	a3,200(s0)
    8000458c:	7cc8                	ld	a0,184(s1)
    8000458e:	647c                	ld	a5,200(s0)
    80004590:	9cdc                	.insn	2, 0x9cdc
    80004592:	6481                	vmsgeu.vx	v9,v0,zero,v0.t
    80004594:	a0ff 6485 071f 6487 	.insn	14, 0xf0a06495d2ea6487071f6485a0ff
    8000459c:	d2ea 6495 f0a0 
    800045a2:	c97d649b          	.insn	4, 0xc97d649b
    800045a6:	64a6                	ld	s1,72(sp)
    800045a8:	8b6a                	mv	s6,s10
    800045aa:	64ba                	ld	s1,392(sp)
    800045ac:	e9f0                	sd	a2,208(a1)
    800045ae:	64bd                	lui	s1,0xf
    800045b0:	0924                	add	s1,sp,152
    800045b2:	64d2                	ld	s1,272(sp)
    800045b4:	ef6e                	sd	s11,408(sp)
    800045b6:	64d4                	ld	a3,136(s1)
    800045b8:	938e                	add	t2,t2,gp
    800045ba:	650a                	ld	a0,128(sp)
    800045bc:	1121                	add	sp,sp,-24 # 4f72ffe8 <buflen.1+0x4f72ffa8>
    800045be:	6511                	lui	a0,0x4
    800045c0:	a2b8                	fsd	fa4,64(a3)
    800045c2:	6530                	ld	a2,72(a0)
    800045c4:	f2a1                	bnez	a3,80004504 <verify_data+0x18bc>
    800045c6:	6578                	ld	a4,200(a0)
    800045c8:	8ac2                	mv	s5,a6
    800045ca:	6599                	lui	a1,0x6
    800045cc:	65a60287          	vluxseg4ei8.v	v5,(a2),v26,v0.t
    800045d0:	0f15                	add	t5,t5,5 # a005 <buflen.1+0x9fc5>
    800045d2:	65ae                	ld	a1,200(sp)
    800045d4:	8f02                	jr	t5
    800045d6:	0e4c65b7          	lui	a1,0xe4c6
    800045da:	65ce                	ld	a1,208(sp)
    800045dc:	a371                	j	80004b68 <verify_data+0x1f20>
    800045de:	ef3e65cf          	.insn	4, 0xef3e65cf
    800045e2:	924f65cf          	fnmadd.d	fa1,ft10,ft4,fs2,unknown
    800045e6:	65dd                	lui	a1,0x17
    800045e8:	eb55                	bnez	a4,8000469c <verify_data+0x1a54>
    800045ea:	d54865e7          	.insn	4, 0xd54865e7
    800045ee:	65e9                	lui	a1,0x1a
    800045f0:	31f2                	fld	ft3,312(sp)
    800045f2:	65f1                	lui	a1,0x1c
    800045f4:	660479c3          	.insn	4, 0x660479c3
    800045f8:	c086                	sw	ra,64(sp)
    800045fa:	6606                	ld	a2,64(sp)
    800045fc:	66076677          	.insn	4, 0x66076677
    80004600:	77b2                	ld	a5,296(sp)
    80004602:	27536607          	vluxseg2ei32.v	v12,(t1),v21
    80004606:	436d660f          	.insn	4, 0x436d660f
    8000460a:	6610                	ld	a2,8(a2)
    8000460c:	661d2f27          	fsw	ft1,1662(s10)
    80004610:	8e36                	mv	t3,a3
    80004612:	6621                	lui	a2,0x8
    80004614:	12f4                	add	a3,sp,364
    80004616:	662e                	ld	a2,200(sp)
    80004618:	160e                	sll	a2,a2,0x23
    8000461a:	663d                	lui	a2,0xf
    8000461c:	9be5                	and	a5,a5,-7
    8000461e:	663e                	ld	a2,456(sp)
    80004620:	663ef68b          	.insn	4, 0x663ef68b
    80004624:	192a                	sll	s2,s2,0x2a
    80004626:	6655                	lui	a2,0x15
    80004628:	02a2                	sll	t0,t0,0x8
    8000462a:	6676                	ld	a2,344(sp)
    8000462c:	667e9cb3          	.insn	4, 0x667e9cb3
    80004630:	66a01657          	vmfle.vv	v12,v10,v0
    80004634:	152e                	sll	a0,a0,0x2b
    80004636:	66b5                	lui	a3,0xd
    80004638:	ac6e                	fsd	fs11,24(sp)
    8000463a:	66d9                	lui	a3,0x16
    8000463c:	bcfc                	fsd	fa5,248(s1)
    8000463e:	d44c66ef          	jal	a3,7ffcab82 <buflen.1+0x7ffcab42>
    80004642:	66f8                	ld	a4,200(a3)
    80004644:	ca7a                	sw	t5,20(sp)
    80004646:	6722                	ld	a4,8(sp)
    80004648:	b5d9                	j	8000450e <verify_data+0x18c6>
    8000464a:	6728                	ld	a0,72(a4)
    8000464c:	72c2                	ld	t0,48(sp)
    8000464e:	a6b0673b          	.insn	4, 0xa6b0673b
    80004652:	673c                	ld	a5,72(a4)
    80004654:	1266                	sll	tp,tp,0x39
    80004656:	6751                	lui	a4,0x14
    80004658:	79cd                	lui	s3,0xffff3
    8000465a:	675a                	ld	a4,400(sp)
    8000465c:	6796bc67          	.insn	4, 0x6796bc67
    80004660:	2ace                	fld	fs5,208(sp)
    80004662:	679d                	lui	a5,0x7
    80004664:	67b7ceef          	jal	t4,800814de <_tbss_end+0x7881a>
    80004668:	2ddd                	addw	s11,s11,23
    8000466a:	67c2                	ld	a5,16(sp)
    8000466c:	3ffd                	addw	t6,t6,-1
    8000466e:	67c2                	ld	a5,16(sp)
    80004670:	67d54dcb          	.insn	4, 0x67d54dcb
    80004674:	6f8c                	ld	a1,24(a5)
    80004676:	5d2467db          	.insn	4, 0x5d2467db
    8000467a:	6806                	ld	a6,64(sp)
    8000467c:	96cd                	sra	a3,a3,0x33
    8000467e:	6808                	ld	a0,16(s0)
    80004680:	680ae06b          	.insn	4, 0x680ae06b
    80004684:	68160343          	fmadd.s	ft6,fa2,ft1,fa3,rne
    80004688:	1e9a                	sll	t4,t4,0x26
    8000468a:	6819                	lui	a6,0x6
    8000468c:	a664                	fsd	fs1,200(a2)
    8000468e:	681f 3f29 682e      	.insn	6, 0x682e3f29681f
    80004694:	778c                	ld	a1,40(a5)
    80004696:	684e                	ld	a6,208(sp)
    80004698:	e6c8                	sd	a0,136(a3)
    8000469a:	6851                	lui	a6,0x14
    8000469c:	a4ba                	fsd	fa4,72(sp)
    8000469e:	6855                	lui	a6,0x15
    800046a0:	685d77c3          	fmadd.s	fa5,fs10,ft5,fa3
    800046a4:	686ebe97          	auipc	t4,0x686eb
    800046a8:	42d6                	lw	t0,84(sp)
    800046aa:	6872                	ld	a6,280(sp)
    800046ac:	86aa                	mv	a3,a0
    800046ae:	6876                	ld	a6,344(sp)
    800046b0:	9209                	srl	a2,a2,0x22
    800046b2:	687e                	ld	a6,472(sp)
    800046b4:	6892be83          	ld	t4,1673(t0) # e32d3bc1 <_tbss_end+0x632caefd>
    800046b8:	4cb0                	lw	a2,88(s1)
    800046ba:	689e                	ld	a7,448(sp)
    800046bc:	1f5a                	sll	t5,t5,0x36
    800046be:	68ba                	ld	a7,392(sp)
    800046c0:	6041                	c.lui	zero,0x10
    800046c2:	68d4                	ld	a3,144(s1)
    800046c4:	68f47697          	auipc	a3,0x68f47
    800046c8:	24b9                	addw	s1,s1,14 # f00e <buflen.1+0xefce>
    800046ca:	3a4f68fb          	.insn	4, 0x3a4f68fb
    800046ce:	6921                	lui	s2,0x8
    800046d0:	29f1                	addw	s3,s3,28 # ffffffffffff301c <_tbss_end+0xffffffff7ffea358>
    800046d2:	2dd1692b          	.insn	4, 0x2dd1692b
    800046d6:	6939                	lui	s2,0xe
    800046d8:	6e7e                	ld	t3,472(sp)
    800046da:	6940                	ld	s0,144(a0)
    800046dc:	1426                	sll	s0,s0,0x29
    800046de:	6958                	ld	a4,144(a0)
    800046e0:	ac82                	fsd	ft0,88(sp)
    800046e2:	696d                	lui	s2,0x1b
    800046e4:	a53a                	fsd	fa4,136(sp)
    800046e6:	b03a6987          	.insn	4, 0xb03a6987
    800046ea:	6998                	ld	a4,16(a1)
    800046ec:	6b32                	ld	s6,264(sp)
    800046ee:	699d                	lui	s3,0x7
    800046f0:	2da4                	fld	fs1,88(a1)
    800046f2:	69aa                	ld	s3,136(sp)
    800046f4:	69c06c73          	csrrs	s8,0x69c,0
    800046f8:	0ac0                	add	s0,sp,340
    800046fa:	404869c7          	fmsub.s	fs3,fa6,ft4,fs0,unknown
    800046fe:	69c9                	lui	s3,0x12
    80004700:	679c                	ld	a5,8(a5)
    80004702:	69d1                	lui	s3,0x14
    80004704:	a229                	j	8000480e <verify_data+0x1bc6>
    80004706:	69d5                	lui	s3,0x15
    80004708:	a2f9                	j	800048d6 <verify_data+0x1c8e>
    8000470a:	69d8                	ld	a4,144(a1)
    8000470c:	cf72                	sw	t3,156(sp)
    8000470e:	69e2                	ld	s3,24(sp)
    80004710:	bb2a                	fsd	fa0,432(sp)
    80004712:	6e2669e7          	.insn	4, 0x6e2669e7
    80004716:	6a02                	ld	s4,0(sp)
    80004718:	7850                	ld	a2,176(s0)
    8000471a:	809e6a2b          	.insn	4, 0x809e6a2b
    8000471e:	6a35                	lui	s4,0xd
    80004720:	fa95                	bnez	a3,80004654 <verify_data+0x1a0c>
    80004722:	6a49                	lui	s4,0x12
    80004724:	cfe1                	beqz	a5,800047fc <verify_data+0x1bb4>
    80004726:	6a54                	ld	a3,144(a2)
    80004728:	182e                	sll	a6,a6,0x2b
    8000472a:	6a60                	ld	s0,208(a2)
    8000472c:	9f9f 6a88 6f2a      	.insn	6, 0x6f2a6a889f9f
    80004732:	6a89                	lui	s5,0x2
    80004734:	6a98a6bb          	.insn	4, 0x6a98a6bb
    80004738:	bdbc                	fsd	fa5,120(a1)
    8000473a:	6ab9                	lui	s5,0xe
    8000473c:	4a64                	lw	s1,84(a2)
    8000473e:	ec2c6adb          	.insn	4, 0xec2c6adb
    80004742:	6ae1                	lui	s5,0x18
    80004744:	6a98                	ld	a4,16(a3)
    80004746:	6aea                	ld	s5,152(sp)
    80004748:	d36e                	sw	s11,164(sp)
    8000474a:	6b25                	lui	s6,0x9
    8000474c:	c5fc                	sw	a5,76(a1)
    8000474e:	6b3d                	lui	s6,0xf
    80004750:	a94d                	j	80004c02 <verify_data+0x1fba>
    80004752:	6b4c                	ld	a1,144(a4)
    80004754:	6b51cb4f          	fnmadd.d	fs6,ft3,fs5,fa3,rmm
    80004758:	6b6b5947          	fmsub.d	fs2,fs6,fs6,fa3,unknown
    8000475c:	56e2                	lw	a3,56(sp)
    8000475e:	6b6d                	lui	s6,0x1b
    80004760:	6522                	ld	a0,8(sp)
    80004762:	6b7a                	ld	s6,408(sp)
    80004764:	5071                	c.li	zero,-4
    80004766:	6ba6                	ld	s7,72(sp)
    80004768:	f150                	sd	a2,160(a0)
    8000476a:	6bb5                	lui	s7,0xd
    8000476c:	6bb744cb          	fnmsub.d	fs1,fa4,fs11,fa3,rmm
    80004770:	845e                	mv	s0,s7
    80004772:	02a06bc7          	fmsub.d	fs7,ft0,fa0,ft0,unknown
    80004776:	f0ee6bf3          	csrrs	s7,0xf0e,28
    8000477a:	6c34                	ld	a3,88(s0)
    8000477c:	6c47c04b          	.insn	4, 0x6c47c04b
    80004780:	9a26                	add	s4,s4,s1
    80004782:	4a886c4f          	fnmadd.d	fs8,fa6,fs0,fs1,unknown
    80004786:	6c7f 9de8 6c91 cb9d 	.insn	22, 0x6ca995026ca2da286c9dc8546c92cb9d6c919de86c7f
    8000478e:	6c92 c854 6c9d da28 
    80004796:	6ca2 9502 6ca9 
    8000479c:	8e32                	mv	t3,a2
    8000479e:	6cdf 2228 6ce0      	.insn	6, 0x6ce022286cdf
    800047a4:	6ce3fc13          	and	s8,t2,1742
    800047a8:	c129                	beqz	a0,800047ea <verify_data+0x1ba2>
    800047aa:	a8146cef          	jal	s9,7ff4b22a <buflen.1+0x7ff4b1ea>
    800047ae:	6d49                	lui	s10,0x12
    800047b0:	929f 6d4a 14f7      	.insn	6, 0x14f76d4a929f
    800047b6:	82826d53          	.insn	4, 0x82826d53
    800047ba:	6d54                	ld	a3,152(a0)
    800047bc:	6d54fafb          	.insn	4, 0x6d54fafb
    800047c0:	7909                	lui	s2,0xfffe2
    800047c2:	6d55                	lui	s10,0x15
    800047c4:	8b9f 6d56 a105      	.insn	6, 0xa1056d568b9f
    800047ca:	6d5d                	lui	s10,0x17
    800047cc:	fa38                	sd	a4,112(a2)
    800047ce:	6d62                	ld	s10,24(sp)
    800047d0:	003e                	c.slli	zero,0xf
    800047d2:	6d6d                	lui	s10,0x1b
    800047d4:	ccb2                	sw	a2,88(sp)
    800047d6:	6d6e                	ld	s10,216(sp)
    800047d8:	f5ee                	sd	s11,232(sp)
    800047da:	6d70                	ld	a2,216(a0)
    800047dc:	ac1f 6d82 fbd7      	.insn	6, 0xfbd76d82ac1f
    800047e2:	6d90                	ld	a2,24(a1)
    800047e4:	6d9de20f          	.insn	4, 0x6d9de20f
    800047e8:	6db9d8c7          	.insn	4, 0x6db9d8c7
    800047ec:	f7a0                	sd	s0,104(a5)
    800047ee:	6e10                	ld	a2,24(a2)
    800047f0:	6e24d8eb          	.insn	4, 0x6e24d8eb
    800047f4:	a2ea                	fsd	fs10,320(sp)
    800047f6:	6e30                	ld	a2,88(a2)
    800047f8:	6e3d0eeb          	.insn	4, 0x6e3d0eeb
    800047fc:	6e3f8a0b          	.insn	4, 0x6e3f8a0b
    80004800:	d051                	beqz	s0,80004784 <verify_data+0x1b3c>
    80004802:	0dc06e3f 89186e66 	.insn	8, 0x89186e660dc06e3f
    8000480a:	6e96                	ld	t4,320(sp)
    8000480c:	8f2e                	mv	t5,a1
    8000480e:	6ec8                	ld	a0,152(a3)
    80004810:	1281                	add	t0,t0,-32
    80004812:	6ecd                	lui	t4,0x13
    80004814:	82f5                	srl	a3,a3,0x1d
    80004816:	6ed8                	ld	a4,152(a3)
    80004818:	fea4                	sd	s1,120(a3)
    8000481a:	28036ee3          	bltu	t1,zero,800052b6 <input_data+0x66e>
    8000481e:	6eea                	ld	t4,152(sp)
    80004820:	3c64                	fld	fs1,248(s0)
    80004822:	6f09                	lui	t5,0x2
    80004824:	ec4e                	sd	s3,24(sp)
    80004826:	6f28                	ld	a0,88(a4)
    80004828:	6f3a5657          	vmflt.vf	v12,v19,fs4
    8000482c:	bc8d                	j	8000429e <verify_data+0x1656>
    8000482e:	6f59                	lui	t5,0x16
    80004830:	d541                	beqz	a0,800047b8 <verify_data+0x1b70>
    80004832:	b5926f5b          	.insn	4, 0xb5926f5b
    80004836:	6f6a                	ld	t5,152(sp)
    80004838:	6f793433          	.insn	4, 0x6f793433
    8000483c:	0ec2                	sll	t4,t4,0x10
    8000483e:	1d7a6f83          	lwu	t6,471(s4) # 121d7 <buflen.1+0x12197>
    80004842:	6f86                	ld	t6,64(sp)
    80004844:	a3d2                	fsd	fs4,448(sp)
    80004846:	73bb6f8f          	.insn	4, 0x73bb6f8f
    8000484a:	6fb1                	lui	t6,0xc
    8000484c:	6fb360db          	.insn	4, 0x6fb360db
    80004850:	6fc00817          	auipc	a6,0x6fc00
    80004854:	6241                	lui	tp,0x10
    80004856:	6fd5                	lui	t6,0x15
    80004858:	e188                	sd	a0,0(a1)
    8000485a:	a4ac6ff3          	csrrs	t6,0xa4a,24
    8000485e:	6ff6                	ld	t6,344(sp)
    80004860:	7008f7cb          	fnmsub.s	fa5,fa7,ft0,fa4
    80004864:	e7fa                	sd	t5,456(sp)
    80004866:	7015                	c.lui	zero,0xfffe5
    80004868:	701755cb          	fnmsub.s	fa1,fa4,ft1,fa4,unknown
    8000486c:	a7de                	fsd	fs7,456(sp)
    8000486e:	7021                	c.lui	zero,0xfffe8
    80004870:	e0a1                	bnez	s1,800048b0 <verify_data+0x1c68>
    80004872:	703e                	.insn	2, 0x703e
    80004874:	8c1c                	.insn	2, 0x8c1c
    80004876:	ed6c704b          	.insn	4, 0xed6c704b
    8000487a:	706e                	.insn	2, 0x706e
    8000487c:	70b4af37          	lui	t5,0x70b4a
    80004880:	6f0e                	ld	t5,192(sp)
    80004882:	70b5                	lui	ra,0xfffed
    80004884:	fc69                	bnez	s0,8000485e <verify_data+0x1c16>
    80004886:	2dc170bf 482e70c4 	.insn	8, 0x482e70c42dc170bf
    8000488e:	584070cb          	fnmsub.s	ft1,ft0,ft4,fa1
    80004892:	70d6                	ld	ra,368(sp)
    80004894:	3381                	addw	t2,t2,-32
    80004896:	7111                	add	sp,sp,-256
    80004898:	711c785b          	.insn	4, 0x711c785b
    8000489c:	c500                	sw	s0,8(a0)
    8000489e:	711f 12ec 712a      	.insn	6, 0x712a12ec711f
    800048a4:	71422f0f          	.insn	4, 0x71422f0f
    800048a8:	71490dbf 7157291f 	.insn	8, 0x7157291f71490dbf
    800048b0:	df4c                	sw	a1,60(a4)
    800048b2:	7165                	add	sp,sp,-400
    800048b4:	4d82                	lw	s11,0(sp)
    800048b6:	74f47167          	.insn	4, 0x74f47167
    800048ba:	7180                	ld	s0,32(a1)
    800048bc:	94e1                	sra	s1,s1,0x38
    800048be:	7184                	ld	s1,32(a1)
    800048c0:	88e1                	and	s1,s1,24
    800048c2:	7185                	lui	gp,0xfffe1
    800048c4:	7f30                	ld	a2,120(a4)
    800048c6:	7188                	ld	a0,32(a1)
    800048c8:	420c                	lw	a1,0(a2)
    800048ca:	7190                	ld	a2,32(a1)
    800048cc:	86fc                	.insn	2, 0x86fc
    800048ce:	71a0                	ld	s0,96(a1)
    800048d0:	9e52                	add	t3,t3,s4
    800048d2:	71b6                	ld	gp,360(sp)
    800048d4:	328d                	addw	t0,t0,-29
    800048d6:	6c2a71bb          	.insn	4, 0x6c2a71bb
    800048da:	364471d3          	.insn	4, 0x364471d3
    800048de:	ceae71e7          	.insn	4, 0xceae71e7
    800048e2:	887a71f7          	.insn	4, 0x887a71f7
    800048e6:	720d                	lui	tp,0xfffe3
    800048e8:	ee24                	sd	s1,88(a2)
    800048ea:	720e                	ld	tp,224(sp)
    800048ec:	32b5                	addw	t0,t0,-19
    800048ee:	7214                	ld	a3,32(a2)
    800048f0:	7220fd73          	csrrc	s10,0x722,1
    800048f4:	adc9                	j	80004fc6 <input_data+0x37e>
    800048f6:	7221                	lui	tp,0xfffe8
    800048f8:	3950                	fld	fa2,176(a0)
    800048fa:	06f2722b          	.insn	4, 0x06f2722b
    800048fe:	723d                	lui	tp,0xfffef
    80004900:	c58d                	beqz	a1,8000492a <verify_data+0x1ce2>
    80004902:	a9257257          	.insn	4, 0xa9257257
    80004906:	1f647273          	csrrc	tp,0x1f6,8
    8000490a:	5fea72b7          	lui	t0,0x5fea7
    8000490e:	496172d7          	vsetvli	t0,sp,1174
    80004912:	72e1                	lui	t0,0xffff8
    80004914:	ac02                	fsd	ft0,24(sp)
    80004916:	58a272ef          	jal	t0,8002bea0 <_tbss_end+0x231dc>
    8000491a:	90f072f3          	csrrc	t0,0x90f,0
    8000491e:	e6287313          	and	t1,a6,-414
    80004922:	7316                	ld	t1,352(sp)
    80004924:	0655                	add	a2,a2,21 # 15015 <buflen.1+0x14fd5>
    80004926:	731d                	lui	t1,0xfffe7
    80004928:	4038                	lw	a4,64(s0)
    8000492a:	7320                	ld	s0,96(a4)
    8000492c:	a425                	j	80004b54 <verify_data+0x1f0c>
    8000492e:	7329                	lui	t1,0xfffea
    80004930:	5cd4                	lw	a3,60(s1)
    80004932:	53ad733f e6707345 	.insn	8, 0xe670734553ad733f
    8000493a:	7359                	lui	t1,0xffff6
    8000493c:	736f35b7          	lui	a1,0x736f3
    80004940:	73877afb          	.insn	4, 0x73877afb
    80004944:	739d378b          	.insn	4, 0x739d378b
    80004948:	eeb2                	sd	a2,344(sp)
    8000494a:	73c1                	lui	t2,0xffff0
    8000494c:	ee10                	sd	a2,24(a2)
    8000494e:	73d1                	lui	t2,0xffff4
    80004950:	73d9c2c7          	fmsub.d	ft5,fs3,ft9,fa4,rmm
    80004954:	73e9750b          	.insn	4, 0x73e9750b
    80004958:	0760                	add	s0,sp,908
    8000495a:	73f0                	ld	a2,224(a5)
    8000495c:	aae2                	fsd	fs8,336(sp)
    8000495e:	73fd                	lui	t2,0xfffff
    80004960:	fa75                	bnez	a2,80004954 <verify_data+0x1d0c>
    80004962:	741d                	lui	s0,0xfffe7
    80004964:	1086                	sll	ra,ra,0x21
    80004966:	7439                	lui	s0,0xfffee
    80004968:	8909                	and	a0,a0,2
    8000496a:	743c                	ld	a5,104(s0)
    8000496c:	744d6397          	auipc	t2,0x744d6
    80004970:	dd6a                	sw	s10,184(sp)
    80004972:	b729745b          	.insn	4, 0xb729745b
    80004976:	745e                	ld	s0,496(sp)
    80004978:	7465                	lui	s0,0xffff9
    8000497a:	7465                	lui	s0,0xffff9
    8000497c:	4bc0                	lw	s0,20(a5)
    8000497e:	7398746f          	jal	s0,8008c8b6 <_tbss_end+0x83bf2>
    80004982:	7476                	ld	s0,376(sp)
    80004984:	748d9613          	.insn	4, 0x748d9613
    80004988:	8ffa                	mv	t6,t5
    8000498a:	74b0                	ld	a2,104(s1)
    8000498c:	d7c8                	sw	a0,44(a5)
    8000498e:	74b2                	ld	s1,296(sp)
    80004990:	74bac3d7          	vmsle.vx	v7,v11,s5,v0.t
    80004994:	5bd8                	lw	a4,52(a5)
    80004996:	6dec74c7          	.insn	4, 0x6dec74c7
    8000499a:	74c8                	ld	a0,168(s1)
    8000499c:	f214                	sd	a3,32(a2)
    8000499e:	5c8374eb          	.insn	4, 0x5c8374eb
    800049a2:	74ec                	ld	a1,232(s1)
    800049a4:	43cd                	li	t2,19
    800049a6:	74fc                	ld	a5,232(s1)
    800049a8:	d010                	sw	a2,32(s0)
    800049aa:	7501                	lui	a0,0xfffe0
    800049ac:	ff5d                	bnez	a4,8000496a <verify_data+0x1d22>
    800049ae:	7524                	ld	s1,104(a0)
    800049b0:	91ec                	.insn	2, 0x91ec
    800049b2:	752c                	ld	a1,104(a0)
    800049b4:	cea2                	sw	s0,92(sp)
    800049b6:	7548                	ld	a0,168(a0)
    800049b8:	7556939b          	.insn	4, 0x7556939b
    800049bc:	ce81                	beqz	a3,800049d4 <verify_data+0x1d8c>
    800049be:	7556                	ld	a0,368(sp)
    800049c0:	ae6e                	fsd	fs11,280(sp)
    800049c2:	fa5f7567          	.insn	4, 0xfa5f7567
    800049c6:	76de7577          	.insn	4, 0x76de7577
    800049ca:	7582                	ld	a1,32(sp)
    800049cc:	10d0                	add	a2,sp,100
    800049ce:	7585                	lui	a1,0xfffe1
    800049d0:	d4b4                	sw	a3,104(s1)
    800049d2:	803b75e3          	bgeu	s6,gp,800041dc <verify_data+0x1594>
    800049d6:	7612                	ld	a2,288(sp)
    800049d8:	01e6                	sll	gp,gp,0x19
    800049da:	f891761b          	.insn	4, 0xf891761b
    800049de:	a0507637          	lui	a2,0xa0507
    800049e2:	c41b7643          	.insn	4, 0xc41b7643
    800049e6:	5c327643          	.insn	4, 0x5c327643
    800049ea:	765e                	ld	a2,496(sp)
    800049ec:	039c                	add	a5,sp,448
    800049ee:	766e                	ld	a2,248(sp)
    800049f0:	66c4                	ld	s1,136(a3)
    800049f2:	7691                	lui	a3,0xfffe4
    800049f4:	76c9de3b          	.insn	4, 0x76c9de3b
    800049f8:	76e02b87          	flw	fs7,1902(zero) # 76e <buflen.1+0x72e>
    800049fc:	770d9d97          	auipc	s11,0x770d9
    80004a00:	b4d1                	j	800044c4 <verify_data+0x187c>
    80004a02:	7745                	lui	a4,0xffff1
    80004a04:	8a60                	vmsge.vx	v20,v0,ra,v0.t
    80004a06:	7761                	lui	a4,0xffff8
    80004a08:	c005                	beqz	s0,80004a28 <verify_data+0x1de0>
    80004a0a:	777c                	ld	a5,232(a4)
    80004a0c:	5dbc                	lw	a5,120(a1)
    80004a0e:	777e                	ld	a4,504(sp)
    80004a10:	3159                	addw	sp,sp,-10
    80004a12:	7782                	ld	a5,32(sp)
    80004a14:	d711                	beqz	a4,80004920 <verify_data+0x1cd8>
    80004a16:	56c3778b          	.insn	4, 0x56c3778b
    80004a1a:	778e                	ld	a5,224(sp)
    80004a1c:	0736                	sll	a4,a4,0xd
    80004a1e:	7796                	ld	a5,352(sp)
    80004a20:	779e33eb          	.insn	4, 0x779e33eb
    80004a24:	a4f9                	j	80004cf2 <input_data+0xaa>
    80004a26:	77c2                	ld	a5,48(sp)
    80004a28:	8b1a                	mv	s6,t1
    80004a2a:	77d6                	ld	a5,368(sp)
    80004a2c:	0db6                	sll	s11,s11,0xd
    80004a2e:	77ea                	ld	a5,184(sp)
    80004a30:	96b1                	sra	a3,a3,0x2c
    80004a32:	780c                	ld	a1,48(s0)
    80004a34:	2c8c                	fld	fa1,24(s1)
    80004a36:	780d                	lui	a6,0xfffe3
    80004a38:	78276307          	.insn	4, 0x78276307
    80004a3c:	3012                	fld	ft0,288(sp)
    80004a3e:	782c                	ld	a1,112(s0)
    80004a40:	d041                	beqz	s0,800049c0 <verify_data+0x1d78>
    80004a42:	7830                	ld	a2,112(s0)
    80004a44:	783be667          	.insn	4, 0x783be667
    80004a48:	5ebc                	lw	a5,120(a3)
    80004a4a:	784d                	lui	a6,0xffff3
    80004a4c:	b865                	j	80004304 <verify_data+0x16bc>
    80004a4e:	7889                	lui	a7,0xfffe2
    80004a50:	1f55                	add	t5,t5,-11 # 70b49ff5 <buflen.1+0x70b49fb5>
    80004a52:	7894                	ld	a3,48(s1)
    80004a54:	23fa                	fld	ft7,408(sp)
    80004a56:	789c                	ld	a5,48(s1)
    80004a58:	d08a                	sw	sp,96(sp)
    80004a5a:	78b0                	ld	a2,112(s1)
    80004a5c:	5dae                	lw	s11,232(sp)
    80004a5e:	78d8                	ld	a4,176(s1)
    80004a60:	fd24                	sd	s1,120(a0)
    80004a62:	78dd                	lui	a7,0xffff7
    80004a64:	35aa                	fld	fa1,168(sp)
    80004a66:	78de                	ld	a7,496(sp)
    80004a68:	7171                	add	sp,sp,-176
    80004a6a:	78df 9a07 78e2      	.insn	6, 0x78e29a0778df
    80004a70:	78f220af          	.insn	4, 0x78f220af
    80004a74:	f786                	sd	ra,488(sp)
    80004a76:	78fd                	lui	a7,0xfffff
    80004a78:	2c44                	fld	fs1,152(s0)
    80004a7a:	792d                	lui	s2,0xfffeb
    80004a7c:	c459                	beqz	s0,80004b0a <verify_data+0x1ec2>
    80004a7e:	7939                	lui	s2,0xfffee
    80004a80:	1798                	add	a4,sp,992
    80004a82:	7948                	ld	a0,176(a0)
    80004a84:	d530                	sw	a2,104(a0)
    80004a86:	574d795b          	.insn	4, 0x574d795b
    80004a8a:	7966                	ld	s2,120(sp)
    80004a8c:	ee36                	sd	a3,280(sp)
    80004a8e:	796c                	ld	a1,240(a0)
    80004a90:	89e9                	and	a1,a1,26
    80004a92:	de277987          	.insn	4, 0xde277987
    80004a96:	7988                	ld	a0,48(a1)
    80004a98:	79b5933b          	.insn	4, 0x79b5933b
    80004a9c:	79c39977          	.insn	4, 0x79c39977
    80004aa0:	35d0                	fld	fa2,168(a1)
    80004aa2:	79d5                	lui	s3,0xffff5
    80004aa4:	79ea714f          	fnmadd.s	ft2,fs4,ft10,fa5
    80004aa8:	c122                	sw	s0,128(sp)
    80004aaa:	79f0                	ld	a2,240(a1)
    80004aac:	135a                	sll	t1,t1,0x36
    80004aae:	79ff                	.insn	2, 0x79ff
    80004ab0:	7a02d7ff 7a0e7c57 	.insn	20, 0x7a2bec617a1a8d0d7a1523997a0e7c577a02d7ff
    80004ab8:	7a152399 7a1a8d0d 
    80004ac0:	7a2bec61 
    80004ac4:	f0f9                	bnez	s1,80004a8a <verify_data+0x1e42>
    80004ac6:	0e127a53          	.insn	4, 0x0e127a53
    80004aca:	7a54                	ld	a3,176(a2)
    80004acc:	7a54488b          	.insn	4, 0x7a54488b
    80004ad0:	039a                	sll	t2,t2,0x6
    80004ad2:	7a6c                	ld	a1,240(a2)
    80004ad4:	cbd4                	sw	a3,20(a5)
    80004ad6:	7a70                	ld	a2,240(a2)
    80004ad8:	c442                	sw	a6,8(sp)
    80004ada:	7a88                	ld	a0,48(a3)
    80004adc:	e546                	sd	a7,136(sp)
    80004ade:	939c7ad7          	.insn	4, 0x939c7ad7
    80004ae2:	7ada                	ld	s5,432(sp)
    80004ae4:	7afd1cd3          	.insn	4, 0x7afd1cd3
    80004ae8:	5c90                	lw	a2,56(s1)
    80004aea:	7b08                	ld	a0,48(a4)
    80004aec:	d916                	sw	t0,176(sp)
    80004aee:	7b0a                	ld	s6,160(sp)
    80004af0:	7b2b5f8b          	.insn	4, 0x7b2b5f8b
    80004af4:	de31                	beqz	a2,80004a50 <verify_data+0x1e08>
    80004af6:	7b31                	lui	s6,0xfffec
    80004af8:	7b35733f 7b3b8ae9 	.insn	8, 0x7b3b8ae97b35733f
    80004b00:	69d2                	ld	s3,272(sp)
    80004b02:	7b48                	ld	a0,176(a4)
    80004b04:	84c1                	sra	s1,s1,0x10
    80004b06:	7b4e                	ld	s6,240(sp)
    80004b08:	26e9                	addw	a3,a3,26 # fffffffffffe401a <_tbss_end+0xffffffff7ffdb356>
    80004b0a:	7b55                	lui	s6,0xffff5
    80004b0c:	d215                	beqz	a2,80004a30 <verify_data+0x1de8>
    80004b0e:	7b68                	ld	a0,240(a4)
    80004b10:	7b86eff3          	csrrs	t6,0x7b8,13
    80004b14:	d676                	sw	t4,44(sp)
    80004b16:	7b96                	ld	s7,352(sp)
    80004b18:	8d3a                	mv	s10,a4
    80004b1a:	678e7bab          	.insn	4, 0x678e7bab
    80004b1e:	7bac                	ld	a1,112(a5)
    80004b20:	7bc697fb          	.insn	4, 0x7bc697fb
    80004b24:	b108                	fsd	fa0,32(a0)
    80004b26:	7bd6                	ld	s7,368(sp)
    80004b28:	7be3d2d7          	.insn	4, 0x7be3d2d7
    80004b2c:	8a2c                	.insn	2, 0x8a2c
    80004b2e:	7bf2                	ld	s7,312(sp)
    80004b30:	80f5                	srl	s1,s1,0x1d
    80004b32:	7c05                	lui	s8,0xfffe1
    80004b34:	da01                	beqz	a2,80004a44 <verify_data+0x1dfc>
    80004b36:	7c11                	lui	s8,0xfffe4
    80004b38:	67a4                	ld	s1,72(a5)
    80004b3a:	7c24                	ld	s1,120(s0)
    80004b3c:	7c45df3b          	.insn	4, 0x7c45df3b
    80004b40:	8234                	.insn	2, 0x8234
    80004b42:	2dab7c4b          	.insn	4, 0x2dab7c4b
    80004b46:	27d67c6f          	jal	s8,8006c5c2 <_tbss_end+0x638fe>
    80004b4a:	7c7d                	lui	s8,0xfffff
    80004b4c:	5be8                	lw	a0,116(a5)
    80004b4e:	7c80                	ld	s0,56(s1)
    80004b50:	ee66                	sd	s9,280(sp)
    80004b52:	7c82                	ld	s9,32(sp)
    80004b54:	7c9296e3          	bne	t0,s1,80005b20 <input_data+0xed8>
    80004b58:	7c93425b          	.insn	4, 0x7c93425b
    80004b5c:	29ad                	addw	s3,s3,11 # ffffffffffff500b <_tbss_end+0xffffffff7ffec347>
    80004b5e:	91207c9b          	.insn	4, 0x91207c9b
    80004b62:	4ee17c9b          	.insn	4, 0x4ee17c9b
    80004b66:	7c9d                	lui	s9,0xfffe7
    80004b68:	ae2c                	fsd	fa1,88(a2)
    80004b6a:	da267cab          	.insn	4, 0xda267cab
    80004b6e:	35837cc7          	.insn	4, 0x35837cc7
    80004b72:	7cd1                	lui	s9,0xffff4
    80004b74:	5531                	li	a0,-20
    80004b76:	7cd2                	ld	s9,304(sp)
    80004b78:	ed64                	sd	s1,216(a0)
    80004b7a:	7cd8                	ld	a4,184(s1)
    80004b7c:	172d                	add	a4,a4,-21 # ffffffffffff7feb <_tbss_end+0xffffffff7ffef327>
    80004b7e:	7cdd                	lui	s9,0xffff7
    80004b80:	8ed0                	.insn	2, 0x8ed0
    80004b82:	7cfe                	ld	s9,504(sp)
    80004b84:	7d199933          	.insn	4, 0x7d199933
    80004b88:	0d94                	add	a3,sp,720
    80004b8a:	d9767d33          	.insn	4, 0xd9767d33
    80004b8e:	7d5c                	ld	a5,184(a0)
    80004b90:	a826                	fsd	fs1,16(sp)
    80004b92:	7d7c                	ld	a5,248(a0)
    80004b94:	7dc1                	lui	s11,0xffff0
    80004b96:	7d81                	lui	s11,0xfffe0
    80004b98:	b7c8                	fsd	fa0,168(a5)
    80004b9a:	7d82                	ld	s11,32(sp)
    80004b9c:	2f96                	fld	ft11,320(sp)
    80004b9e:	7d84                	ld	s1,56(a1)
    80004ba0:	3b66                	fld	fs6,120(sp)
    80004ba2:	7dac                	ld	a1,120(a1)
    80004ba4:	97d6                	add	a5,a5,s5
    80004ba6:	7db5                	lui	s11,0xfffed
    80004ba8:	7dbce1f7          	.insn	4, 0x7dbce1f7
    80004bac:	c751                	beqz	a4,80004c38 <verify_data+0x1ff0>
    80004bae:	7dc1                	lui	s11,0xffff0
    80004bb0:	7558                	ld	a4,168(a0)
    80004bb2:	7df8                	ld	a4,248(a1)
    80004bb4:	7e0a0b8f          	.insn	4, 0x7e0a0b8f
    80004bb8:	7e1723f7          	.insn	4, 0x7e1723f7
    80004bbc:	287c                	fld	fa5,208(s0)
    80004bbe:	48c77e27          	vssseg3e64.v	v28,(a4),a2,v0.t
    80004bc2:	7e3c                	ld	a5,120(a2)
    80004bc4:	3888                	fld	fa0,48(s1)
    80004bc6:	7e41                	lui	t3,0xffff0
    80004bc8:	b8ee                	fsd	fs11,112(sp)
    80004bca:	7e44                	ld	s1,184(a2)
    80004bcc:	69c4                	ld	s1,144(a1)
    80004bce:	7e4a                	ld	t3,176(sp)
    80004bd0:	a6bd                	j	80004f3e <input_data+0x2f6>
    80004bd2:	7e4a                	ld	t3,176(sp)
    80004bd4:	de88                	sw	a0,56(a3)
    80004bd6:	282b7e53          	.insn	4, 0x282b7e53
    80004bda:	7e7f                	.insn	2, 0x7e7f
    80004bdc:	2a5f 7e88 3314      	.insn	6, 0x33147e882a5f
    80004be2:	7e90                	ld	a2,56(a3)
    80004be4:	1b69                	add	s6,s6,-6 # ffffffffffff4ffa <_tbss_end+0xffffffff7ffec336>
    80004be6:	7ea5                	lui	t4,0xfffe9
    80004be8:	8eb9                	xor	a3,a3,a4
    80004bea:	a1f87eb7          	lui	t4,0xa1f87
    80004bee:	7eb8                	ld	a4,120(a3)
    80004bf0:	8b3e                	mv	s6,a5
    80004bf2:	7ec6                	ld	t4,112(sp)
    80004bf4:	7ec6e397          	auipc	t2,0x7ec6e
    80004bf8:	e55e                	sd	s7,136(sp)
    80004bfa:	50687ed7          	vsetvli	t4,a6,1286
    80004bfe:	cc317ee3          	bgeu	sp,gp,800048da <verify_data+0x1c92>
    80004c02:	7eed                	lui	t4,0xffffb
    80004c04:	2954                	fld	fa3,144(a0)
    80004c06:	7ef4                	ld	a3,248(a3)
    80004c08:	7ef912b7          	lui	t0,0x7ef91
    80004c0c:	a5cd                	j	800052ee <input_data+0x6a6>
    80004c0e:	7f02                	ld	t5,32(sp)
    80004c10:	1831                	add	a6,a6,-20 # ffffffffffff2fec <_tbss_end+0xffffffff7ffea328>
    80004c12:	7f10                	ld	a2,56(a4)
    80004c14:	a605                	j	80004f34 <input_data+0x2ec>
    80004c16:	7f10                	ld	a2,56(a4)
    80004c18:	0434                	add	a3,sp,520
    80004c1a:	7f24                	ld	s1,120(a4)
    80004c1c:	c95e                	sw	s7,144(sp)
    80004c1e:	731f7f4b          	fnmsub.d	ft10,ft10,fa7,fa4
    80004c22:	7f8d                	lui	t6,0xfffe3
    80004c24:	3385                	addw	t2,t2,-31 # fffffffffec72bd5 <_tbss_end+0xffffffff7ec69f11>
    80004c26:	58997f8f          	.insn	4, 0x58997f8f
    80004c2a:	7f99                	lui	t6,0xfffe6
    80004c2c:	1715                	add	a4,a4,-27
    80004c2e:	7fa6                	ld	t6,104(sp)
    80004c30:	c8f2                	sw	t3,80(sp)
    80004c32:	7fb1                	lui	t6,0xfffec
    80004c34:	8976                	mv	s2,t4
    80004c36:	7fc0                	ld	s0,184(a5)
    80004c38:	d2d0                	sw	a2,36(a3)
    80004c3a:	7fc0                	ld	s0,184(a5)
    80004c3c:	7fca5d7f 7fdb3900 	.insn	20, 0x3a2ccef4055424a47fe84e467fdb39007fca5d7f
    80004c44:	7fe84e46  
    80004c4c:	 

0000000080004c48 <input_data>:
    80004c48:	24a4                	fld	fs1,72(s1)
    80004c4a:	0554                	add	a3,sp,644
    80004c4c:	cef4                	sw	a3,92(a3)
    80004c4e:	3a2c                	fld	fa1,112(a2)
    80004c50:	4a64                	lw	s1,84(a2)
    80004c52:	97196adb          	.insn	4, 0x97196adb
    80004c56:	2b01                	sext.w	s6,s6
    80004c58:	f4ee                	sd	s11,104(sp)
    80004c5a:	4861                	li	a6,24
    80004c5c:	0039e5ef          	jal	a1,800a345e <_tbss_end+0x9a79a>
    80004c60:	eeec                	sd	a1,216(a3)
    80004c62:	1802                	sll	a6,a6,0x20
    80004c64:	8b3e                	mv	s6,a5
    80004c66:	7ec6                	ld	t4,112(sp)
    80004c68:	4a40                	lw	s0,20(a2)
    80004c6a:	6010                	ld	a2,0(s0)
    80004c6c:	0df8                	add	a4,sp,732
    80004c6e:	2ee2                	fld	ft9,24(sp)
    80004c70:	6b72                	ld	s6,280(sp)
    80004c72:	2cf4                	fld	fa3,216(s1)
    80004c74:	49635f53          	.insn	4, 0x49635f53
    80004c78:	8979                	and	a0,a0,30
    80004c7a:	9b6810f7          	.insn	4, 0x9b6810f7
    80004c7e:	0836                	sll	a6,a6,0xd
    80004c80:	79b5933b          	.insn	4, 0x79b5933b
    80004c84:	db86                	sw	ra,244(sp)
    80004c86:	ca5913a7          	.insn	4, 0xca5913a7
    80004c8a:	4ad5                	li	s5,21
    80004c8c:	28d5                	addw	a7,a7,21 # fffffffffffff015 <_tbss_end+0xffffffff7fff6351>
    80004c8e:	1bb9                	add	s7,s7,-18 # cfee <buflen.1+0xcfae>
    80004c90:	72c2                	ld	t0,48(sp)
    80004c92:	04bd673b          	.insn	4, 0x04bd673b
    80004c96:	9f1011fb          	.insn	4, 0x9f1011fb
    80004c9a:	4f9f 88d5 1afe      	.insn	6, 0x1afe88d54f9f
    80004ca0:	8b4c                	.insn	2, 0x8b4c
    80004ca2:	d92d00d7          	.insn	4, 0xd92d00d7
    80004ca6:	4961                	li	s2,24
    80004ca8:	8a60                	vmsge.vx	v20,v0,ra,v0.t
    80004caa:	7761                	lui	a4,0xffff8
    80004cac:	d1e1                	beqz	a1,80004c6c <input_data+0x24>
    80004cae:	ee242b8f          	.insn	4, 0xee242b8f
    80004cb2:	720e                	ld	tp,224(sp)
    80004cb4:	040c                	add	a1,sp,512
    80004cb6:	4c04                	lw	s1,24(s0)
    80004cb8:	6e71                	lui	t3,0x1c
    80004cba:	324a                	fld	ft4,176(sp)
    80004cbc:	0655                	add	a2,a2,21 # ffffffffa0507015 <_tbss_end+0xffffffff204fe351>
    80004cbe:	731d                	lui	t1,0xfffe7
    80004cc0:	917d                	srl	a0,a0,0x3f
    80004cc2:	58f5                	li	a7,-3
    80004cc4:	da5f 1d42 de31      	.insn	6, 0xde311d42da5f
    80004cca:	7b31                	lui	s6,0xfffec
    80004ccc:	fa95                	bnez	a3,80004c00 <verify_data+0x1fb8>
    80004cce:	018a                	sll	gp,gp,0x2
    80004cd0:	d8e0                	sw	s0,116(s1)
    80004cd2:	12ec0e33          	.insn	4, 0x12ec0e33
    80004cd6:	712a                	ld	sp,168(sp)
    80004cd8:	db66                	sw	s9,180(sp)
    80004cda:	0ef1                	add	t4,t4,28 # ffffffffffffb01c <_tbss_end+0xffffffff7fff2358>
    80004cdc:	3b49                	addw	s6,s6,-14 # fffffffffffebff2 <_tbss_end+0xffffffff7ffe332e>
    80004cde:	601e                	.insn	2, 0x601e
    80004ce0:	2601eb4f          	.insn	4, 0x2601eb4f
    80004ce4:	cb54                	sw	a3,20(a4)
    80004ce6:	52c6                	lw	t0,112(sp)
    80004ce8:	2b51                	addw	s6,s6,20
    80004cea:	369a                	fld	fa3,416(sp)
    80004cec:	d5c8                	sw	a0,44(a1)
    80004cee:	401e                	.insn	2, 0x401e
    80004cf0:	10f8                	add	a4,sp,108
    80004cf2:	2844                	fld	fs1,144(s0)
    80004cf4:	8c39                	xor	s0,s0,a4
    80004cf6:	37e8                	fld	fa0,232(a5)
    80004cf8:	0c00                	add	s0,sp,528
    80004cfa:	547c                	lw	a5,108(s0)
    80004cfc:	0492                	sll	s1,s1,0x4
    80004cfe:	59ed                	li	s3,-5
    80004d00:	632cf297          	auipc	t0,0x632cf
    80004d04:	1e9a                	sll	t4,t4,0x26
    80004d06:	6819                	lui	a6,0x6
    80004d08:	b431                	j	80004714 <verify_data+0x1acc>
    80004d0a:	e1f728ef          	jal	a7,7ff77b28 <buflen.1+0x7ff77ae8>
    80004d0e:	7dbc                	ld	a5,120(a1)
    80004d10:	3468                	fld	fa0,232(s0)
    80004d12:	56fe                	lw	a3,252(sp)
    80004d14:	2441                	addw	s0,s0,16 # ffffffffffff9010 <_tbss_end+0xffffffff7fff034c>
    80004d16:	a7de1353          	.insn	4, 0xa7de1353
    80004d1a:	7021                	c.lui	zero,0xfffe8
    80004d1c:	62d6                	ld	t0,336(sp)
    80004d1e:	86c8592f          	.insn	4, 0x86c8592f
    80004d22:	304d                	.insn	2, 0x304d
    80004d24:	8551                	sra	a0,a0,0x14
    80004d26:	484c                	lw	a1,20(s0)
    80004d28:	8b6a                	mv	s6,s10
    80004d2a:	3ccc                	fld	fa1,184(s1)
    80004d2c:	fb81                	bnez	a5,80004c3c <verify_data+0x1ff4>
    80004d2e:	22e0                	fld	fs0,192(a3)
    80004d30:	783be667          	.insn	4, 0x783be667
    80004d34:	2128e503          	lwu	a0,530(a7)
    80004d38:	bf66                	fsd	fs9,440(sp)
    80004d3a:	4524                	lw	s1,72(a0)
    80004d3c:	52ea70bb          	.insn	4, 0x52ea70bb
    80004d40:	662c                	ld	a1,72(a2)
    80004d42:	48ee                	lw	a7,216(sp)
    80004d44:	6f6a                	ld	t5,152(sp)
    80004d46:	4139                	li	sp,14
    80004d48:	af00                	fsd	fs0,24(a4)
    80004d4a:	1a05                	add	s4,s4,-31
    80004d4c:	0b5676e3          	bgeu	a2,s5,800055f8 <input_data+0x9b0>
    80004d50:	7ca6                	ld	s9,104(sp)
    80004d52:	727123f3          	csrrs	t2,mhpmevent7h,sp
    80004d56:	5a32                	lw	s4,44(sp)
    80004d58:	5b08                	lw	a0,48(a4)
    80004d5a:	6145                	add	sp,sp,48
    80004d5c:	e12a                	sd	a0,128(sp)
    80004d5e:	55d6                	lw	a1,116(sp)
    80004d60:	6f29                	lui	t5,0xa
    80004d62:	4db5                	li	s11,13
    80004d64:	301453e7          	.insn	4, 0x301453e7
    80004d68:	4ba0                	lw	s0,80(a5)
    80004d6a:	4191                	li	gp,4
    80004d6c:	42ff 46ae 148d 544a 	.insn	18, 0x058c1900b280780c96b1544a148d46ae42ff
    80004d74:	96b1 780c b280 1900 
    80004d7c:	058c 
    80004d7e:	c97f4bef          	jal	s7,7fff9a14 <buflen.1+0x7fff99d4>
    80004d82:	0a79                	add	s4,s4,30
    80004d84:	c11e                	sw	t2,128(sp)
    80004d86:	48ec                	lw	a1,84(s1)
    80004d88:	27e4                	fld	fs1,200(a5)
    80004d8a:	223a                	fld	ft4,392(sp)
    80004d8c:	135a                	sll	t1,t1,0x36
    80004d8e:	79ff                	.insn	2, 0x79ff
    80004d90:	1082                	sll	ra,ra,0x20
    80004d92:	16571d5b          	.insn	4, 0x16571d5b
    80004d96:	66a0                	ld	s0,72(a3)
    80004d98:	0c12                	sll	s8,s8,0x4
    80004d9a:	2b48                	fld	fa0,144(a4)
    80004d9c:	5c10                	lw	a2,56(s0)
    80004d9e:	4adf f786 78fd      	.insn	6, 0x78fdf7864adf
    80004da4:	34f5                	addw	s1,s1,-3
    80004da6:	5266                	lw	tp,120(sp)
    80004da8:	739d378b          	.insn	4, 0x739d378b
    80004dac:	9259                	srl	a2,a2,0x36
    80004dae:	2f28                	fld	fa0,88(a4)
    80004db0:	1ef9fd23          	.insn	4, 0x1ef9fd23
    80004db4:	ccad                	beqz	s1,80004e2e <input_data+0x1e6>
    80004db6:	43cd3ea7          	fsd	ft8,1085(s10) # 1b43d <buflen.1+0x1b3fd>
    80004dba:	74fc                	ld	a5,232(s1)
    80004dbc:	2a22a5e3          	.insn	4, 0x2a22a5e3
    80004dc0:	cf72                	sw	t3,156(sp)
    80004dc2:	69e2                	ld	s3,24(sp)
    80004dc4:	281bbd27          	fsd	ft1,666(s7)
    80004dc8:	778e56c3          	.insn	4, 0x778e56c3
    80004dcc:	4bf29b83          	lh	s7,1215(t0) # e32d41bf <_tbss_end+0x632cb4fb>
    80004dd0:	de88                	sw	a0,56(a3)
    80004dd2:	0fec7e53          	.insn	4, 0x0fec7e53
    80004dd6:	31c6                	fld	ft3,112(sp)
    80004dd8:	191afacb          	fnmsub.s	fs5,fs5,fa7,ft3
    80004ddc:	8575                	sra	a0,a0,0x1d
    80004dde:	45b2                	lw	a1,12(sp)
    80004de0:	5c90                	lw	a2,56(s1)
    80004de2:	7b08                	ld	a0,48(a4)
    80004de4:	5f7c                	lw	a5,124(a4)
    80004de6:	2d61533f 7dc148a1 	.insn	8, 0x7dc148a12d61533f
    80004dee:	7d81                	lui	s11,0xfffe0
    80004df0:	e584                	sd	s1,8(a1)
    80004df2:	2cf4                	fld	fa3,216(s1)
    80004df4:	7fca5d7f 532a6e6c 	.insn	20, 0x0a264a155431a8886855a4ba532a6e6c7fca5d7f
    80004dfc:	6855a4ba 5431a888 
    80004e04:	0a264a15 
    80004e08:	3a26                	fld	fs4,104(sp)
    80004e0a:	45a11733          	.insn	4, 0x45a11733
    80004e0e:	1ab8                	add	a4,sp,376
    80004e10:	0e578ce3          	beq	a5,t0,80005708 <input_data+0xac0>
    80004e14:	4e46                	lw	t3,80(sp)
    80004e16:	7fe8                	ld	a0,248(a5)
    80004e18:	f7a0                	sd	s0,104(a5)
    80004e1a:	6e10                	ld	a2,24(a2)
    80004e1c:	6366                	ld	t1,88(sp)
    80004e1e:	50b4                	lw	a3,96(s1)
    80004e20:	08606c9b          	.insn	4, 0x08606c9b
    80004e24:	cb9d                	beqz	a5,80004e5a <input_data+0x212>
    80004e26:	6c92                	ld	s9,256(sp)
    80004e28:	05f9                	add	a1,a1,30 # fffffffffffe101e <_tbss_end+0xffffffff7ffd835a>
    80004e2a:	24f4                	fld	fa3,200(s1)
    80004e2c:	0f8e                	sll	t6,t6,0x3
    80004e2e:	5a42                	lw	s4,48(sp)
    80004e30:	2cc21eab          	.insn	4, 0x2cc21eab
    80004e34:	d2d0                	sw	a2,36(a3)
    80004e36:	7fc0                	ld	s0,184(a5)
    80004e38:	321c                	fld	fa5,32(a2)
    80004e3a:	1225                	add	tp,tp,-23 # fffffffffffeefe9 <_tbss_end+0xffffffff7ffe6325>
    80004e3c:	0d30                	add	a2,sp,664
    80004e3e:	207d                	.insn	2, 0x207d
    80004e40:	aae2                	fsd	fs8,336(sp)
    80004e42:	73fd                	lui	t2,0xfffff
    80004e44:	1398                	add	a4,sp,480
    80004e46:	5bad                	li	s7,-21
    80004e48:	7f30                	ld	a2,120(a4)
    80004e4a:	7188                	ld	a0,32(a1)
    80004e4c:	6219                	lui	tp,0x6
    80004e4e:	a15d371b          	.insn	4, 0xa15d371b
    80004e52:	b79f21d7          	vmacc.vv	v3,v30,v25
    80004e56:	353e                	fld	fa0,488(sp)
    80004e58:	cba1                	beqz	a5,80004ea8 <input_data+0x260>
    80004e5a:	980f49e3          	bltz	t5,800047ec <verify_data+0x1ba4>
    80004e5e:	4500                	lw	s0,8(a0)
    80004e60:	2f96                	fld	ft11,320(sp)
    80004e62:	7d84                	ld	s1,56(a1)
    80004e64:	59bbba97          	auipc	s5,0x59bbb
    80004e68:	7cc8                	ld	a0,184(s1)
    80004e6a:	6186                	ld	gp,64(sp)
    80004e6c:	00949033          	sll	zero,s1,s1
    80004e70:	2d32                	fld	fs10,264(sp)
    80004e72:	1ee1                	add	t4,t4,-8
    80004e74:	7168                	ld	a0,224(a0)
    80004e76:	fb3a3f67          	.insn	4, 0xfb3a3f67
    80004e7a:	ea803d57          	.insn	4, 0xea803d57
    80004e7e:	0cd0                	add	a2,sp,596
    80004e80:	fa46                	sd	a7,304(sp)
    80004e82:	4001                	c.li	zero,0
    80004e84:	1281                	add	t0,t0,-32
    80004e86:	6ecd                	lui	t4,0x13
    80004e88:	69aa                	ld	s3,136(sp)
    80004e8a:	33a5                	addw	t2,t2,-23 # ffffffffffffefe9 <_tbss_end+0xffffffff7fff6325>
    80004e8c:	58e6236f          	jal	t1,8006741a <_tbss_end+0x5e756>
    80004e90:	a960                	fsd	fs0,208(a0)
    80004e92:	1c74                	add	a3,sp,572
    80004e94:	3150                	fld	fa2,160(a0)
    80004e96:	3561                	addw	a0,a0,-8 # fffffffffffdfff8 <_tbss_end+0xffffffff7ffd7334>
    80004e98:	a07c                	fsd	fa5,192(s0)
    80004e9a:	a9bd38e3          	.insn	4, 0xa9bd38e3
    80004e9e:	2609                	addw	a2,a2,2
    80004ea0:	8f18                	.insn	2, 0x8f18
    80004ea2:	5c65                	li	s8,-7
    80004ea4:	3ecd                	addw	t4,t4,-13 # 12ff3 <buflen.1+0x12fb3>
    80004ea6:	24a2                	fld	fs1,8(sp)
    80004ea8:	17e6                	sll	a5,a5,0x39
    80004eaa:	56a1                	li	a3,-24
    80004eac:	4e44                	lw	s1,28(a2)
    80004eae:	4f90                	lw	a2,24(a5)
    80004eb0:	28bdf153          	.insn	4, 0x28bdf153
    80004eb4:	4130                	lw	a2,64(a0)
    80004eb6:	0ac50a0f          	.insn	4, 0x0ac50a0f
    80004eba:	1cb4                	add	a3,sp,632
    80004ebc:	9006                	c.add	zero,ra
    80004ebe:	2d0c                	fld	fa1,24(a0)
    80004ec0:	3012                	fld	ft0,288(sp)
    80004ec2:	782c                	ld	a1,112(s0)
    80004ec4:	14c2                	sll	s1,s1,0x30
    80004ec6:	454d                	li	a0,19
    80004ec8:	bbfa                	fsd	ft10,496(sp)
    80004eca:	664924eb          	.insn	4, 0x664924eb
    80004ece:	52de                	lw	t0,244(sp)
    80004ed0:	61f6                	ld	gp,344(sp)
    80004ed2:	a7d10f4f          	.insn	4, 0xa7d10f4f
    80004ed6:	15c5                	add	a1,a1,-15
    80004ed8:	687e                	ld	a6,472(sp)
    80004eda:	4ed0                	lw	a2,28(a3)
    80004edc:	4adc                	lw	a5,20(a3)
    80004ede:	439a                	lw	t2,132(sp)
    80004ee0:	fe51                	bnez	a2,80004e7c <input_data+0x234>
    80004ee2:	4da5                	li	s11,9
    80004ee4:	c3bd                	beqz	a5,80004f4a <input_data+0x302>
    80004ee6:	2511                	addw	a0,a0,4
    80004ee8:	100a                	c.slli	zero,0x22
    80004eea:	31ec                	fld	fa1,224(a1)
    80004eec:	66076677          	.insn	4, 0x66076677
    80004ef0:	ceea                	sw	s10,92(sp)
    80004ef2:	2cfe                	fld	fs9,472(sp)
    80004ef4:	152e                	sll	a0,a0,0x2b
    80004ef6:	66b5                	lui	a3,0xd
    80004ef8:	de5c                	sw	a5,60(a2)
    80004efa:	3a4e                	fld	fs4,240(sp)
    80004efc:	e140                	sd	s0,128(a0)
    80004efe:	5c50                	lw	a2,60(s0)
    80004f00:	034d                	add	t1,t1,19 # fffffffffffe7013 <_tbss_end+0xffffffff7ffde34f>
    80004f02:	23a5                	addw	t2,t2,9
    80004f04:	4569                	li	a0,26
    80004f06:	613d                	add	sp,sp,480
    80004f08:	9f26                	add	t5,t5,s1
    80004f0a:	2f24                	fld	fs1,88(a4)
    80004f0c:	796a                	ld	s2,184(sp)
    80004f0e:	5f84                	lw	s1,56(a5)
    80004f10:	2df3dfcb          	.insn	4, 0x2df3dfcb
    80004f14:	16b9                	add	a3,a3,-18 # cfee <buflen.1+0xcfae>
    80004f16:	0bd0                	add	a2,sp,468
    80004f18:	4699                	li	a3,6
    80004f1a:	4add                	li	s5,23
    80004f1c:	a1f8                	fsd	fa4,192(a1)
    80004f1e:	7eb8                	ld	a4,120(a3)
    80004f20:	2215                	addw	tp,tp,5 # 6005 <buflen.1+0x5fc5>
    80004f22:	080c                	add	a1,sp,16
    80004f24:	9608                	.insn	2, 0x9608
    80004f26:	22c1                	addw	t0,t0,16
    80004f28:	3888                	fld	fa0,48(s1)
    80004f2a:	7e41                	lui	t3,0xffff0
    80004f2c:	8b9f 6d56 d570      	.insn	6, 0xd5706d568b9f
    80004f32:	33ac                	fld	fa1,96(a5)
    80004f34:	938e                	add	t2,t2,gp
    80004f36:	650a                	ld	a0,128(sp)
    80004f38:	983d                	and	s0,s0,-17
    80004f3a:	2c6a                	fld	fs8,152(sp)
    80004f3c:	99ca                	add	s3,s3,s2
    80004f3e:	4428                	lw	a0,72(s0)
    80004f40:	f095                	bnez	s1,80004e64 <input_data+0x21c>
    80004f42:	4252                	lw	tp,20(sp)
    80004f44:	b4a9                	j	8000498e <verify_data+0x1d46>
    80004f46:	1c88                	add	a0,sp,624
    80004f48:	8ad5                	and	a3,a3,21
    80004f4a:	e5b747a7          	.insn	4, 0xe5b747a7
    80004f4e:	b7293b13          	sltiu	s6,s2,-1166
    80004f52:	745e                	ld	s0,496(sp)
    80004f54:	1ef490c3          	.insn	4, 0x1ef490c3
    80004f58:	f658                	sd	a4,168(a2)
    80004f5a:	635d                	lui	t1,0x17
    80004f5c:	2deb91bf 20b378d4 	.insn	8, 0x20b378d42deb91bf
    80004f64:	2a8f6b6f          	jal	s6,800fb20c <_tbss_end+0xf2548>
    80004f68:	e759                	bnez	a4,80004ff6 <input_data+0x3ae>
    80004f6a:	ceb263c7          	.insn	4, 0xceb263c7
    80004f6e:	57b6                	lw	a5,108(sp)
    80004f70:	e800                	sd	s0,16(s0)
    80004f72:	4cb5                	li	s9,13
    80004f74:	3d98                	fld	fa4,56(a1)
    80004f76:	5ed1                	li	t4,-12
    80004f78:	6746                	ld	a4,80(sp)
    80004f7a:	1268                	add	a0,sp,300
    80004f7c:	9561                	sra	a0,a0,0x38
    80004f7e:	392e                	fld	fs2,232(sp)
    80004f80:	e231                	bnez	a2,80004fc4 <input_data+0x37c>
    80004f82:	0456                	sll	s0,s0,0x15
    80004f84:	dfd0                	sw	a2,60(a5)
    80004f86:	27f8                	fld	fa4,200(a5)
    80004f88:	2d4e                	fld	fs10,208(sp)
    80004f8a:	3635100b          	.insn	4, 0x3635100b
    80004f8e:	5f46                	lw	t5,112(sp)
    80004f90:	23fa                	fld	ft7,408(sp)
    80004f92:	789c                	ld	a5,48(s1)
    80004f94:	47c5                	li	a5,17
    80004f96:	33eb476b          	.insn	4, 0x33eb476b
    80004f9a:	779e                	ld	a5,480(sp)
    80004f9c:	00fc                	add	a5,sp,76
    80004f9e:	3d62                	fld	fs10,56(sp)
    80004fa0:	02a2                	sll	t0,t0,0x8
    80004fa2:	6676                	ld	a2,344(sp)
    80004fa4:	476bead3          	.insn	4, 0x476bead3
    80004fa8:	46dadd13          	.insn	4, 0x46dadd13
    80004fac:	66c4                	ld	s1,136(a3)
    80004fae:	7691                	lui	a3,0xfffe4
    80004fb0:	e555                	bnez	a0,8000505c <input_data+0x414>
    80004fb2:	3748                	fld	fa0,168(a4)
    80004fb4:	77b2                	ld	a5,296(sp)
    80004fb6:	eef76607          	vloxseg8ei32.v	v12,(a4),v15
    80004fba:	5324                	lw	s1,96(a4)
    80004fbc:	17e0                	add	s0,sp,1004
    80004fbe:	2dd6                	fld	fs11,336(sp)
    80004fc0:	7a02d7ff 722b3950 	.insn	20, 0x028131ca5557c00724e05376722b39507a02d7ff
    80004fc8:	24e05376 5557c007 
    80004fd0:	028131ca 
    80004fd4:	94ba                	add	s1,s1,a4
    80004fd6:	41f6                	lw	gp,92(sp)
    80004fd8:	2422                	fld	fs0,8(sp)
    80004fda:	229c0663          	beq	s8,s1,80005206 <input_data+0x5be>
    80004fde:	477c                	lw	a5,76(a4)
    80004fe0:	0b0fe933          	.insn	4, 0x0b0fe933
    80004fe4:	6f793433          	.insn	4, 0x6f793433
    80004fe8:	2cec                	fld	fa1,216(s1)
    80004fea:	0c38                	add	a4,sp,536
    80004fec:	7909                	lui	s2,0xfffe2
    80004fee:	6d55                	lui	s10,0x15
    80004ff0:	cfc9                	beqz	a5,8000508a <input_data+0x442>
    80004ff2:	9167388b          	.insn	4, 0x9167388b
    80004ff6:	af6d3867          	.insn	4, 0xaf6d3867
    80004ffa:	4b3e                	lw	s6,204(sp)
    80004ffc:	1545                	add	a0,a0,-15
    80004ffe:	07d5                	add	a5,a5,21 # 7015 <buflen.1+0x6fd5>
    80005000:	8f85                	sub	a5,a5,s1
    80005002:	4eca                	lw	t4,144(sp)
    80005004:	b0b9                	j	80004852 <verify_data+0x1c0a>
    80005006:	56f8                	lw	a4,108(a3)
    80005008:	d0d4                	sw	a3,36(s1)
    8000500a:	30f6                	fld	ft1,376(sp)
    8000500c:	6a74                	ld	a3,208(a2)
    8000500e:	32ce                	fld	ft5,240(sp)
    80005010:	e3c1                	bnez	a5,80005090 <input_data+0x448>
    80005012:	23fe                	fld	ft7,472(sp)
    80005014:	ffb9                	bnez	a5,80004f72 <input_data+0x32a>
    80005016:	013a                	sll	sp,sp,0xe
    80005018:	6796bc67          	.insn	4, 0x6796bc67
    8000501c:	bdad                	j	80004e96 <input_data+0x24e>
    8000501e:	0236                	sll	tp,tp,0xd
    80005020:	27d6                	fld	fa5,336(sp)
    80005022:	7c7d                	lui	s8,0xfffff
    80005024:	68b2                	ld	a7,264(sp)
    80005026:	24b915db          	.insn	4, 0x24b915db
    8000502a:	e0d668fb          	.insn	4, 0xe0d668fb
    8000502e:	f557254f          	.insn	4, 0xf557254f
    80005032:	cd5f2c2b          	.insn	4, 0xcd5f2c2b
    80005036:	30b8                	fld	fa4,96(s1)
    80005038:	6d68                	ld	a0,216(a0)
    8000503a:	39c6                	fld	fs3,112(sp)
    8000503c:	44b079ab          	.insn	4, 0x44b079ab
    80005040:	2be4                	fld	fs1,208(a5)
    80005042:	41ae                	lw	gp,200(sp)
    80005044:	3abd                	addw	s5,s5,-17 # ffffffffd9bbfe53 <_tbss_end+0xffffffff59bb718f>
    80005046:	678e17cf          	.insn	4, 0x678e17cf
    8000504a:	7bac                	ld	a1,112(a5)
    8000504c:	76de                	ld	a3,496(sp)
    8000504e:	7582                	ld	a1,32(sp)
    80005050:	2c8f5cab          	.insn	4, 0x2c8f5cab
    80005054:	452947fb          	.insn	4, 0x452947fb
    80005058:	2ace                	fld	fs5,208(sp)
    8000505a:	679d                	lui	a5,0x7
    8000505c:	7558                	ld	a4,168(a0)
    8000505e:	7df8                	ld	a4,248(a1)
    80005060:	3381                	addw	t2,t2,-32
    80005062:	7111                	add	sp,sp,-256
    80005064:	328d                	addw	t0,t0,-29
    80005066:	34f371bb          	.insn	4, 0x34f371bb
    8000506a:	44e0                	lw	s0,76(s1)
    8000506c:	f79f 0704 1798      	.insn	6, 0x17980704f79f
    80005072:	7948                	ld	a0,176(a0)
    80005074:	6961                	lui	s2,0x18
    80005076:	4e72                	lw	t3,28(sp)
    80005078:	9a45                	and	a2,a2,-15
    8000507a:	59d9                	li	s3,-10
    8000507c:	79ea714f          	fnmadd.s	ft2,fs4,ft10,fa5
    80005080:	ddde                	sw	s7,248(sp)
    80005082:	2d9e                	fld	fs11,448(sp)
    80005084:	592a                	lw	s2,168(sp)
    80005086:	3d7d                	addw	s10,s10,-1 # 14fff <buflen.1+0x14fbf>
    80005088:	b06d                	j	80004932 <verify_data+0x1cea>
    8000508a:	48c5                	li	a7,17
    8000508c:	136948cb          	fnmsub.d	fa7,fs2,fs6,ft2,rmm
    80005090:	06f2                	sll	a3,a3,0x1c
    80005092:	723d                	lui	tp,0xfffef
    80005094:	6bd8                	ld	a4,144(a5)
    80005096:	00fa                	sll	ra,ra,0x1e
    80005098:	3e02                	fld	ft8,32(sp)
    8000509a:	02d4                	add	a3,sp,324
    8000509c:	10ed                	add	ra,ra,-5 # fffffffffffecffb <_tbss_end+0xffffffff7ffe4337>
    8000509e:	5241                	li	tp,-16
    800050a0:	a2c4                	fsd	fs1,128(a3)
    800050a2:	48c8                	lw	a0,20(s1)
    800050a4:	4d28                	lw	a0,88(a0)
    800050a6:	2afa                	fld	fs5,408(sp)
    800050a8:	5552d8af          	.insn	4, 0x5552d8af
    800050ac:	5cf8                	lw	a4,124(s1)
    800050ae:	5d8c                	lw	a1,56(a1)
    800050b0:	93c9                	srl	a5,a5,0x32
    800050b2:	3634                	fld	fa3,104(a2)
    800050b4:	0c30a657          	vredxor.vs	v12,v3,v1,v0.t
    800050b8:	37a6bc03          	ld	s8,890(a3) # fffffffffffe437a <_tbss_end+0xffffffff7ffdb6b6>
    800050bc:	5d52b08f          	.insn	4, 0x5d52b08f
    800050c0:	145d8bd7          	vmin.vv	v23,v5,v27,v0.t
    800050c4:	a2f2                	fsd	ft8,320(sp)
    800050c6:	02d623ef          	jal	t2,800678f2 <_tbss_end+0x5ec2e>
    800050ca:	0051                	c.nop	20
    800050cc:	2dde                	fld	fs11,464(sp)
    800050ce:	32a2                	fld	ft5,40(sp)
    800050d0:	0ac3bca3          	sd	a2,185(t2)
    800050d4:	b0c8                	fsd	fa0,160(s1)
    800050d6:	583d                	li	a6,-17
    800050d8:	1fbccd53          	.insn	4, 0x1fbccd53
    800050dc:	74bac3d7          	vmsle.vx	v7,v11,s5,v0.t
    800050e0:	d5d4                	sw	a3,44(a1)
    800050e2:	0654                	add	a3,sp,772
    800050e4:	0d01                	add	s10,s10,0
    800050e6:	3d1a                	fld	fs10,416(sp)
    800050e8:	7da5                	lui	s11,0xfffe9
    800050ea:	37c5                	addw	a5,a5,-15 # 6ff1 <buflen.1+0x6fb1>
    800050ec:	686ebe97          	auipc	t4,0x686eb
    800050f0:	8ac2                	mv	s5,a6
    800050f2:	6599                	lui	a1,0x6
    800050f4:	d049                	beqz	s0,80005076 <input_data+0x42e>
    800050f6:	d5415d7b          	.insn	4, 0xd5415d7b
    800050fa:	bbe76f5b          	.insn	4, 0xbbe76f5b
    800050fe:	21f8                	fld	fa4,192(a1)
    80005100:	79d1                	lui	s3,0xffff4
    80005102:	4c253e53          	.insn	4, 0x4c253e53
    80005106:	1060                	add	s0,sp,44
    80005108:	5cce                	lw	s9,240(sp)
    8000510a:	25de3513          	sltiu	a0,t3,605
    8000510e:	1e45                	add	t3,t3,-15 # fffffffffffefff1 <_tbss_end+0xffffffff7ffe732d>
    80005110:	ef64                	sd	s1,216(a4)
    80005112:	ab662f4b          	fnmsub.d	ft10,fa2,fs6,fs5,rdn
    80005116:	1b78                	add	a4,sp,444
    80005118:	20ae                	fld	ft1,200(sp)
    8000511a:	464e                	lw	a2,208(sp)
    8000511c:	172d75a3          	.insn	4, 0x172d75a3
    80005120:	9e80                	vmsge.vx	v29,v0,ra,v0.t
    80005122:	4261                	li	tp,24
    80005124:	00d3e7bb          	.insn	4, 0x00d3e7bb
    80005128:	6c2a                	ld	s8,136(sp)
    8000512a:	a05071d3          	.insn	4, 0xa05071d3
    8000512e:	4085                	li	ra,1
    80005130:	08ff 576b 465f 4c61 	.insn	10, 0xcd3e4c61465f576b08ff
    80005138:	cd3e 
    8000513a:	247e                	fld	fs0,472(sp)
    8000513c:	2ff2                	fld	ft11,280(sp)
    8000513e:	1640                	add	s0,sp,804
    80005140:	f16e                	sd	s11,160(sp)
    80005142:	21e4                	fld	fs1,192(a1)
    80005144:	5278adf3          	csrrs	s11,0x527,a7
    80005148:	4afd                	li	s5,31
    8000514a:	aaad3fff d0832c73 	.insn	16, 0x58a24cd94768253fd0832c73aaad3fff
    80005152:	4768253f 58a24cd9 
    8000515a:	09fd72f3          	csrrc	t0,0x9f,26
    8000515e:	08d4                	add	a3,sp,84
    80005160:	e83e                	sd	a5,16(sp)
    80005162:	1b94                	add	a3,sp,496
    80005164:	6ce3fc13          	and	s8,t2,1742
    80005168:	af35                	j	800058a4 <input_data+0xc5c>
    8000516a:	5dac                	lw	a1,120(a1)
    8000516c:	2416                	fld	fs0,320(sp)
    8000516e:	545d                	li	s0,-9
    80005170:	2e9a                	fld	ft9,384(sp)
    80005172:	82e3583b          	.insn	4, 0x82e3583b
    80005176:	4f5e                	lw	t5,212(sp)
    80005178:	202fd7d7          	vfsgnj.vf	v15,v2,ft11,v0.t
    8000517c:	096e                	sll	s2,s2,0x1b
    8000517e:	e9f00f97          	auipc	t6,0xe9f00
    80005182:	64bd                	lui	s1,0xf
    80005184:	10e4ceaf          	.insn	4, 0x10e4ceaf
    80005188:	d0aa                	sw	a0,96(sp)
    8000518a:	4735                	li	a4,13
    8000518c:	7850                	ld	a2,176(s0)
    8000518e:	78e96a2b          	.insn	4, 0x78e96a2b
    80005192:	26ba                	fld	fa3,392(sp)
    80005194:	5579cfa7          	.insn	4, 0x5579cfa7
    80005198:	d65f 43b2 a8b1      	.insn	6, 0xa8b143b2d65f
    8000519e:	601e3793          	sltiu	a5,t3,1537
    800051a2:	45c8                	lw	a0,12(a1)
    800051a4:	99ec                	.insn	2, 0x99ec
    800051a6:	3e85                	addw	t4,t4,-31 # ffffffffe86f00cd <_tbss_end+0xffffffff686e7409>
    800051a8:	fc5d                	bnez	s0,80005166 <input_data+0x51e>
    800051aa:	d200294b          	fnmsub.d	fs2,ft0,ft0,fs10,rdn
    800051ae:	574d6097          	auipc	ra,0x574d6
    800051b2:	7966                	ld	s2,120(sp)
    800051b4:	233d                	addw	t1,t1,15 # 1700f <buflen.1+0x16fcf>
    800051b6:	101e                	c.slli	zero,0x27
    800051b8:	24d5dd8b          	.insn	4, 0x24d5dd8b
    800051bc:	ed35                	bnez	a0,80005238 <input_data+0x5f0>
    800051be:	504d                	c.li	zero,-13
    800051c0:	b03a                	fsd	fa4,32(sp)
    800051c2:	6998                	ld	a4,16(a1)
    800051c4:	01d8e9c7          	fmsub.s	fs3,fa7,ft9,ft0,unknown
    800051c8:	4fba                	lw	t6,140(sp)
    800051ca:	2711                	addw	a4,a4,4 # ffffffffffff8004 <_tbss_end+0xffffffff7ffef340>
    800051cc:	54ee                	lw	s1,248(sp)
    800051ce:	1121015b          	.insn	4, 0x1121015b
    800051d2:	6511                	lui	a0,0x4
    800051d4:	f61d                	bnez	a2,80005102 <input_data+0x4ba>
    800051d6:	33b6                	fld	ft7,360(sp)
    800051d8:	a3b2                	fsd	fa2,448(sp)
    800051da:	05ac5dff 1cd30d95 	.insn	20, 0x60412ef69bd85a21ca467afd1cd30d9505ac5dff
    800051e2:	ca467afd 9bd85a21 
    800051ea:	60412ef6 
    800051ee:	68d4                	ld	a3,144(s1)
    800051f0:	4274                	lw	a3,68(a2)
    800051f2:	5c99                	li	s9,-26
    800051f4:	7b86eff3          	csrrs	t6,0x7b8,13
    800051f8:	e378                	sd	a4,192(a4)
    800051fa:	25b4                	fld	fa3,72(a1)
    800051fc:	34127047          	.insn	4, 0x34127047
    80005200:	8ed0                	.insn	2, 0x8ed0
    80005202:	7cfe                	ld	s9,504(sp)
    80005204:	7008f7cb          	fnmsub.s	fa5,fa7,ft0,fa4
    80005208:	70b5                	lui	ra,0xfffed
    8000520a:	53ba                	lw	t2,172(sp)
    8000520c:	6db9d8c7          	.insn	4, 0x6db9d8c7
    80005210:	f955                	bnez	a0,800051c4 <input_data+0x57c>
    80005212:	5ff5                	li	t6,-3
    80005214:	dbe0                	sw	s0,116(a5)
    80005216:	db0a0b17          	auipc	s6,0xdb0a0
    8000521a:	0bb4                	add	a3,sp,472
    8000521c:	a8fc                	fsd	fa5,208(s1)
    8000521e:	46b207bf d7423089 	.insn	8, 0xd742308946b207bf
    80005226:	507c54af          	.insn	4, 0x507c54af
    8000522a:	0d86                	sll	s11,s11,0x1
    8000522c:	7b2e                	ld	s6,232(sp)
    8000522e:	5595                	li	a1,-27
    80005230:	3b0a                	fld	fs6,160(sp)
    80005232:	0d31                	add	s10,s10,12
    80005234:	e4b2                	sd	a2,72(sp)
    80005236:	139c                	add	a5,sp,480
    80005238:	735e                	ld	t1,496(sp)
    8000523a:	30ee                	fld	ft1,248(sp)
    8000523c:	0f8b5fbf 538275d3 	.insn	8, 0x538275d30f8b5fbf
    80005244:	366e                	fld	fa2,248(sp)
    80005246:	0c92                	sll	s9,s9,0x4
    80005248:	0ac0                	add	s0,sp,340
    8000524a:	364469c7          	.insn	4, 0x364469c7
    8000524e:	34de                	fld	fs1,496(sp)
    80005250:	f150                	sd	a2,160(a0)
    80005252:	6bb5                	lui	s7,0xd
    80005254:	1e48192b          	.insn	4, 0x1e48192b
    80005258:	0f76                	sll	t5,t5,0x1d
    8000525a:	36cb2dbb          	.insn	4, 0x36cb2dbb
    8000525e:	bfaa0197          	auipc	gp,0xbfaa0
    80005262:	d42012ff 3fc03647 	.insn	12, 0x8d3a06fd3fc03647d42012ff
    8000526a:	8d3a06fd 
    8000526e:	3fa67bab          	.insn	4, 0x3fa67bab
    80005272:	11f6                	sll	gp,gp,0x3d
    80005274:	1bb4383f 7a6c039a 	.insn	8, 0x7a6c039a1bb4383f
    8000527c:	08d9                	add	a7,a7,22
    8000527e:	a3054f97          	auipc	t6,0xa3054
    80005282:	2bf5                	addw	s7,s7,29 # d01d <buflen.1+0xcfdd>
    80005284:	2e56b07f 44630ba3 	.insn	16, 0x610f407d761b01e644630ba32e56b07f
    8000528c:	761b01e6 610f407d 
    80005294:	c554                	sw	a3,12(a0)
    80005296:	b4a35ba3          	.insn	4, 0xb4a35ba3
    8000529a:	b76642d7          	vnsra.wx	v5,v22,a2
    8000529e:	52fa                	lw	t0,188(sp)
    800052a0:	6b51cb4f          	fnmadd.d	fs6,ft3,fs5,fa3,rmm
    800052a4:	2540                	fld	fs0,136(a0)
    800052a6:	d9bb2667          	.insn	4, 0xd9bb2667
    800052aa:	86fc4be3          	blt	s8,a5,80004b20 <verify_data+0x1ed8>
    800052ae:	71a0                	ld	s0,96(a1)
    800052b0:	2a85                	addw	s5,s5,1
    800052b2:	648301af          	.insn	4, 0x648301af
    800052b6:	5776                	lw	a4,124(sp)
    800052b8:	5f2d                	li	t5,-21
    800052ba:	80f21633          	.insn	4, 0x80f21633
    800052be:	49ca04ab          	.insn	4, 0x49ca04ab
    800052c2:	0816                	sll	a6,a6,0x5
    800052c4:	c5ee                	sw	s11,200(sp)
    800052c6:	3f4a                	fld	ft10,176(sp)
    800052c8:	5fc4                	lw	s1,60(a5)
    800052ca:	fa540f83          	lb	t6,-91(s0)
    800052ce:	469a                	lw	a3,132(sp)
    800052d0:	dde6                	sw	s9,248(sp)
    800052d2:	1122                	sll	sp,sp,0x28
    800052d4:	7ed5                	lui	t4,0xffff5
    800052d6:	44d5                	li	s1,21
    800052d8:	86e0                	vmsge.vx	v13,v0,ra,v0.t
    800052da:	6126                	ld	sp,72(sp)
    800052dc:	7c45df3b          	.insn	4, 0x7c45df3b
    800052e0:	b6d4                	fsd	fa3,168(a3)
    800052e2:	2faa                	fld	ft11,136(sp)
    800052e4:	52670823          	sb	t1,1328(a4)
    800052e8:	c122                	sw	s0,128(sp)
    800052ea:	79f0                	ld	a2,240(a1)
    800052ec:	37a5a727          	fsw	fs10,878(a1) # 636e <buflen.1+0x632e>
    800052f0:	d981                	beqz	a1,80005200 <input_data+0x5b8>
    800052f2:	2e88050f          	.insn	4, 0x2e88050f
    800052f6:	3539                	addw	a0,a0,-18 # 3fee <buflen.1+0x3fae>
    800052f8:	0db2                	sll	s11,s11,0xc
    800052fa:	10a5                	add	ra,ra,-23 # fffffffffffecfe9 <_tbss_end+0xffffffff7ffe4325>
    800052fc:	ed86                	sd	ra,216(sp)
    800052fe:	26d8                	fld	fa4,136(a3)
    80005300:	3b24                	fld	fs1,112(a4)
    80005302:	0e38                	add	a4,sp,792
    80005304:	b3cd                	j	800050e6 <input_data+0x49e>
    80005306:	3834                	fld	fa3,112(s0)
    80005308:	da28                	sw	a0,112(a2)
    8000530a:	6ca2                	ld	s9,8(sp)
    8000530c:	d051                	beqz	s0,80005290 <input_data+0x648>
    8000530e:	98346e3f 734737ff 	.insn	8, 0x734737ff98346e3f
    80005316:	1a06                	sll	s4,s4,0x21
    80005318:	f31d                	bnez	a4,8000523e <input_data+0x5f6>
    8000531a:	20bc                	fld	fa5,64(s1)
    8000531c:	56d6                	lw	a3,116(sp)
    8000531e:	3d54                	fld	fa3,184(a0)
    80005320:	810a                	mv	sp,sp
    80005322:	2285                	addw	t0,t0,1
    80005324:	1b69                	add	s6,s6,-6 # 5b0a5210 <buflen.1+0x5b0a51d0>
    80005326:	7ea5                	lui	t4,0xfffe9
    80005328:	b34e                	fsd	fs3,416(sp)
    8000532a:	347a                	fld	fs0,440(sp)
    8000532c:	4290                	lw	a2,0(a3)
    8000532e:	56155683          	lhu	a3,1377(a0)
    80005332:	5081                	li	ra,-32
    80005334:	ae74                	fsd	fa3,216(a2)
    80005336:	bb695c27          	.insn	4, 0xbb695c27
    8000533a:	3324                	fld	fs1,96(a4)
    8000533c:	cc31                	beqz	s0,80005398 <input_data+0x750>
    8000533e:	7eed                	lui	t4,0xffffb
    80005340:	8db4                	.insn	2, 0x8db4
    80005342:	1c4b4667          	.insn	4, 0x1c4b4667
    80005346:	2b5e                	fld	fs6,464(sp)
    80005348:	1c78                	add	a4,sp,572
    8000534a:	6089                	lui	ra,0x2
    8000534c:	39c2eec3          	fmadd.s	ft9,ft5,ft8,ft7,unknown
    80005350:	48473db3          	.insn	4, 0x48473db3
    80005354:	6762                	ld	a4,24(sp)
    80005356:	5120                	lw	s0,96(a0)
    80005358:	15f77ee7          	.insn	4, 0x15f77ee7
    8000535c:	13e702e3          	beq	a4,t5,80005c80 <input_data+0x1038>
    80005360:	8266                	mv	tp,s9
    80005362:	027c                	add	a5,sp,268
    80005364:	e6d4                	sd	a3,136(a3)
    80005366:	52dd                	li	t0,-9
    80005368:	5d347033          	.insn	4, 0x5d347033
    8000536c:	3a0a8c2b          	.insn	4, 0x3a0a8c2b
    80005370:	4043fd5b          	.insn	4, 0x4043fd5b
    80005374:	36bd5793          	.insn	4, 0x36bd5793
    80005378:	a131                	j	80005784 <input_data+0xb3c>
    8000537a:	3ab263ab          	.insn	4, 0x3ab263ab
    8000537e:	413d                	li	sp,15
    80005380:	058545bf 7eb78eb9 	.insn	8, 0x7eb78eb9058545bf
    80005388:	7ef8                	ld	a4,248(a3)
    8000538a:	42ad609b          	.insn	4, 0x42ad609b
    8000538e:	3698                	fld	fa4,40(a3)
    80005390:	0a6dc44f          	fnmadd.d	fs0,fs11,ft6,ft1,rmm
    80005394:	befe                	fsd	ft11,376(sp)
    80005396:	01a1                	add	gp,gp,8 # 3faa5266 <buflen.1+0x3faa5226>
    80005398:	306d                	.insn	2, 0x306d
    8000539a:	19f1                	add	s3,s3,-4 # ffffffffffff3ffc <_tbss_end+0xffffffff7ffeb338>
    8000539c:	4c2e                	lw	s8,200(sp)
    8000539e:	14f73deb          	.insn	4, 0x14f73deb
    800053a2:	63436d53          	.insn	4, 0x63436d53
    800053a6:	1239                	add	tp,tp,-18 # fffffffffffeefee <_tbss_end+0xffffffff7ffe632a>
    800053a8:	a26a                	fsd	fs10,256(sp)
    800053aa:	13b2                	sll	t2,t2,0x2c
    800053ac:	5d0d                	li	s10,-29
    800053ae:	2b89                	addw	s7,s7,2
    800053b0:	a80d                	j	800053e2 <input_data+0x79a>
    800053b2:	004b616b          	.insn	4, 0x004b616b
    800053b6:	ec893213          	sltiu	tp,s2,-312
    800053ba:	2dc4                	fld	fs1,152(a1)
    800053bc:	3ee4                	fld	fs1,248(a3)
    800053be:	fd240687          	.insn	4, 0xfd240687
    800053c2:	78dd                	lui	a7,0xffff7
    800053c4:	0f89                	add	t6,t6,2 # 23059280 <buflen.1+0x23059240>
    800053c6:	15ee                	sll	a1,a1,0x3b
    800053c8:	f891                	bnez	s1,800052dc <input_data+0x694>
    800053ca:	03337637          	lui	a2,0x3337
    800053ce:	718f4d13          	xor	s10,t5,1816
    800053d2:	2a12                	fld	fs4,256(sp)
    800053d4:	8514                	.insn	2, 0x8514
    800053d6:	f67d0d83          	lb	s11,-153(s10)
    800053da:	3fa4                	fld	fs1,120(a5)
    800053dc:	67a4                	ld	s1,72(a5)
    800053de:	7c24                	ld	s1,120(s0)
    800053e0:	38b93c73          	csrrc	s8,0x38b,s2
    800053e4:	0f8982b7          	lui	t0,0xf898
    800053e8:	c726                	sw	s1,140(sp)
    800053ea:	fc69423b          	.insn	4, 0xfc69423b
    800053ee:	d28770bf ea255235 	.insn	8, 0xea255235d28770bf
    800053f6:	0a7d                	add	s4,s4,31
    800053f8:	278e                	fld	fa5,192(sp)
    800053fa:	2374                	fld	fa3,192(a4)
    800053fc:	0ec2                	sll	t4,t4,0x10
    800053fe:	8b6a6f83          	lwu	t6,-1866(s4)
    80005402:	64ba                	ld	s1,392(sp)
    80005404:	a049                	j	80005486 <input_data+0x83e>
    80005406:	4cf2                	lw	s9,28(sp)
    80005408:	06c9                	add	a3,a3,18
    8000540a:	0e9a                	sll	t4,t4,0x6
    8000540c:	4d4c799b          	.insn	4, 0x4d4c799b
    80005410:	02a0                	add	s0,sp,328
    80005412:	73bb6bf3          	csrrs	s7,mhpmevent27h,22
    80005416:	6fb1                	lui	t6,0xc
    80005418:	1086                	sll	ra,ra,0x21
    8000541a:	7439                	lui	s0,0xfffee
    8000541c:	9e52                	add	t3,t3,s4
    8000541e:	71b6                	ld	gp,360(sp)
    80005420:	23494e2b          	.insn	4, 0x23494e2b
    80005424:	b850                	fsd	fa2,176(s0)
    80005426:	4e3a                	lw	t3,140(sp)
    80005428:	1641                	add	a2,a2,-16 # 3336ff0 <buflen.1+0x3336fb0>
    8000542a:	1e62                	sll	t3,t3,0x38
    8000542c:	e796                	sd	t0,456(sp)
    8000542e:	33d8                	fld	fa4,160(a5)
    80005430:	c4c2                	sw	a6,72(sp)
    80005432:	0439                	add	s0,s0,14 # fffffffffffee00e <_tbss_end+0xffffffff7ffe534a>
    80005434:	c9c9                	beqz	a1,800054c6 <input_data+0x87e>
    80005436:	1e00                	add	s0,sp,816
    80005438:	a0ff 6485 586b 5f8b 	.insn	14, 0xc7ab486aadb05f8b586b6485a0ff
    80005440:	adb0 486a c7ab 
    80005446:	95c44373          	.insn	4, 0x95c44373
    8000544a:	2dc9                	addw	s11,s11,18 # fffffffffffe9012 <_tbss_end+0xffffffff7ffe034e>
    8000544c:	c94a                	sw	s2,144(sp)
    8000544e:	234c                	fld	fa1,128(a4)
    80005450:	d44c                	sw	a1,44(s0)
    80005452:	66f8                	ld	a4,200(a3)
    80005454:	3893fc2f          	.insn	4, 0x3893fc2f
    80005458:	68f47697          	auipc	a3,0x68f47
    8000545c:	9565                	sra	a0,a0,0x39
    8000545e:	1d14                	add	a3,sp,688
    80005460:	9910                	.insn	2, 0x9910
    80005462:	804f603f 6a306076 	.insn	8, 0x6a306076804f603f
    8000546a:	9a0723e7          	.insn	4, 0x9a0723e7
    8000546e:	78e2                	ld	a7,56(sp)
    80005470:	ba5a                	fsd	fs6,304(sp)
    80005472:	0af2                	sll	s5,s5,0x1c
    80005474:	cf00                	sw	s0,24(a4)
    80005476:	5d0e                	lw	s10,224(sp)
    80005478:	3ac8d43b          	.insn	4, 0x3ac8d43b
    8000547c:	8a1a                	mv	s4,t1
    8000547e:	5aec                	lw	a1,116(a3)
    80005480:	3a49aebb          	.insn	4, 0x3a49aebb
    80005484:	1980                	add	s0,sp,240
    80005486:	19c9                	add	s3,s3,-14
    80005488:	5b13e84b          	fnmsub.d	fa6,ft7,fa7,fa1,unknown
    8000548c:	06f5b7c3          	.insn	4, 0x06f5b7c3
    80005490:	0afe                	sll	s5,s5,0x1f
    80005492:	3ae0                	fld	fs0,240(a3)
    80005494:	4ec4                	lw	s1,28(a3)
    80005496:	612c                	ld	a1,64(a0)
    80005498:	415f 055e 9628      	.insn	6, 0x9628055e415f
    8000549e:	06ce                	sll	a3,a3,0x13
    800054a0:	0db8                	add	a4,sp,728
    800054a2:	206c                	fld	fa1,192(s0)
    800054a4:	e815                	bnez	s0,800054d8 <input_data+0x890>
    800054a6:	280932f7          	.insn	4, 0x280932f7
    800054aa:	5552306b          	.insn	4, 0x5552306b
    800054ae:	0a87054b          	fnmsub.d	fa0,fa4,fs0,ft1,rne
    800054b2:	4124                	lw	s1,64(a0)
    800054b4:	acb4                	fsd	fa3,88(s1)
    800054b6:	1220                	add	s0,sp,296
    800054b8:	d140                	sw	s0,36(a0)
    800054ba:	59b4                	lw	a3,112(a1)
    800054bc:	1a2c                	add	a1,sp,312
    800054be:	3555                	addw	a0,a0,-11
    800054c0:	6e3d0eeb          	.insn	4, 0x6e3d0eeb
    800054c4:	beb6                	fsd	fa3,376(sp)
    800054c6:	5fd0                	lw	a2,60(a5)
    800054c8:	7fc4                	ld	s1,184(a5)
    800054ca:	3d8e                	fld	fs11,224(sp)
    800054cc:	1c2f74ab          	.insn	4, 0x1c2f74ab
    800054d0:	babe                	fsd	fa5,368(sp)
    800054d2:	5ef8                	lw	a4,124(a3)
    800054d4:	3d4262f7          	.insn	4, 0x3d4262f7
    800054d8:	1229                	add	tp,tp,-22 # ffffffffffffffea <_tbss_end+0xffffffff7fff7326>
    800054da:	d6074007          	.insn	4, 0xd6074007
    800054de:	e65262c3          	.insn	4, 0xe65262c3
    800054e2:	5add                	li	s5,-9
    800054e4:	1621                	add	a2,a2,-24
    800054e6:	1712                	sll	a4,a4,0x24
    800054e8:	06622783          	lw	a5,102(tp) # 66 <buflen.1+0x26>
    800054ec:	e928                	sd	a0,80(a0)
    800054ee:	3dde                	fld	fs11,496(sp)
    800054f0:	5026                	.insn	2, 0x5026
    800054f2:	a0ea2f97          	auipc	t6,0xa0ea2
    800054f6:	a4ac589b          	.insn	4, 0xa4ac589b
    800054fa:	6ff6                	ld	t6,344(sp)
    800054fc:	cf1d                	beqz	a4,8000553a <input_data+0x8f2>
    800054fe:	2c445ce7          	.insn	4, 0x2c445ce7
    80005502:	792d                	lui	s2,0xfffeb
    80005504:	fd61                	bnez	a0,800054dc <input_data+0x894>
    80005506:	163e                	sll	a2,a2,0x2f
    80005508:	0434                	add	a3,sp,520
    8000550a:	7f24                	ld	s1,120(a4)
    8000550c:	61c6                	ld	gp,80(sp)
    8000550e:	0f3a17d7          	vfredosum.vs	v15,v19,v20
    80005512:	4382                	lw	t2,0(sp)
    80005514:	ff5d                	bnez	a4,800054d2 <input_data+0x88a>
    80005516:	7524                	ld	s1,104(a0)
    80005518:	5c7c7ae7          	.insn	4, 0x5c7c7ae7
    8000551c:	be92                	fsd	ft4,376(sp)
    8000551e:	0035                	c.nop	13
    80005520:	37c94eb3          	.insn	4, 0x37c94eb3
    80005524:	d215                	beqz	a2,80005448 <input_data+0x800>
    80005526:	7b68                	ld	a0,240(a4)
    80005528:	9af5                	and	a3,a3,-3
    8000552a:	1dd8                	add	a4,sp,756
    8000552c:	7b61                	lui	s6,0xffff8
    8000552e:	1fc6                	sll	t6,t6,0x31
    80005530:	91b1                	srl	a1,a1,0x2c
    80005532:	3fb4                	fld	fa3,120(a5)
    80005534:	7cce                	ld	s9,240(sp)
    80005536:	3b8a                	fld	fs7,160(sp)
    80005538:	5969bfbf 2e70078a 	.insn	8, 0x2e70078a5969bfbf
    80005540:	ea69                	bnez	a2,80005612 <input_data+0x9ca>
    80005542:	c0af03f7          	.insn	4, 0xc0af03f7
    80005546:	42df 2c45 2cab      	.insn	6, 0x2cab2c4542df
    8000554c:	daf9                	beqz	a3,80005522 <input_data+0x8da>
    8000554e:	1df0                	add	a2,sp,764
    80005550:	201f73bb          	.insn	4, 0x201f73bb
    80005554:	c1b1                	beqz	a1,80005598 <input_data+0x950>
    80005556:	66270f7b          	.insn	4, 0x66270f7b
    8000555a:	2ce6                	fld	fs9,88(sp)
    8000555c:	3571                	addw	a0,a0,-4
    8000555e:	053d                	add	a0,a0,15
    80005560:	0c4c                	add	a1,sp,532
    80005562:	0cb12027          	fsw	fa1,192(sp)
    80005566:	f75463db          	.insn	4, 0xf75463db
    8000556a:	497d                	li	s2,31
    8000556c:	4ff0                	lw	a2,92(a5)
    8000556e:	190a                	sll	s2,s2,0x22
    80005570:	6941                	lui	s2,0x10
    80005572:	6474                	ld	a3,200(s0)
    80005574:	14a8aca7          	fsw	fa0,345(a7) # ffffffffffff7159 <_tbss_end+0xffffffff7ffee495>
    80005578:	5ffa6057          	.insn	4, 0x5ffa6057
    8000557c:	0230                	add	a2,sp,264
    8000557e:	5f38                	lw	a4,120(a4)
    80005580:	405d5a9b          	sraw	s5,s10,0x5
    80005584:	20f1                	addw	ra,ra,28 # 201c <buflen.1+0x1fdc>
    80005586:	384a                	fld	fa6,176(sp)
    80005588:	a53a                	fsd	fa4,136(sp)
    8000558a:	fe496987          	.insn	4, 0xfe496987
    8000558e:	bb2a2d97          	auipc	s11,0xbb2a2
    80005592:	26c969e7          	.insn	4, 0x26c969e7
    80005596:	7f1633ab          	.insn	4, 0x7f1633ab
    8000559a:	15ce                	sll	a1,a1,0x33
    8000559c:	e474                	sd	a3,200(s0)
    8000559e:	1221                	add	tp,tp,-24 # ffffffffffffffe8 <_tbss_end+0xffffffff7fff7324>
    800055a0:	2630                	fld	fa2,72(a2)
    800055a2:	148e                	sll	s1,s1,0x23
    800055a4:	67d5                	lui	a5,0x15
    800055a6:	511f dc38 567a      	.insn	6, 0x567adc38511f
    800055ac:	90ea                	add	ra,ra,s10
    800055ae:	2515                	addw	a0,a0,5
    800055b0:	042c2c93          	slti	s9,s8,66
    800055b4:	3fdd                	addw	t6,t6,-9 # 20ea74e9 <buflen.1+0x20ea74a9>
    800055b6:	f8f2643f 25ea19f1 	.insn	8, 0x25ea19f1f8f2643f
    800055be:	2901                	sext.w	s2,s2
    800055c0:	63be                	ld	t2,456(sp)
    800055c2:	1266                	sll	tp,tp,0x39
    800055c4:	eb98                	sd	a4,16(a5)
    800055c6:	5185                	li	gp,-31
    800055c8:	6d54fafb          	.insn	4, 0x6d54fafb
    800055cc:	73da                	ld	t2,432(sp)
    800055ce:	0f36                	sll	t5,t5,0xd
    800055d0:	4814                	lw	a3,16(s0)
    800055d2:	0b8e                	sll	s7,s7,0x3
    800055d4:	929f 6d4a 9983      	.insn	6, 0x99836d4a929f
    800055da:	3291                	addw	t0,t0,-28 # f897fe4 <buflen.1+0xf897fa4>
    800055dc:	8185                	srl	a1,a1,0x1
    800055de:	8d110913          	add	s2,sp,-1839
    800055e2:	be830dc7          	.insn	4, 0xbe830dc7
    800055e6:	6892                	ld	a7,256(sp)
    800055e8:	6d90fbd7          	vsetvli	s7,ra,1753
    800055ec:	31bc1683          	lh	a3,795(s8) # fffffffffffff31b <_tbss_end+0xffffffff7fff6657>
    800055f0:	1500                	add	s0,sp,672
    800055f2:	0db4                	add	a3,sp,728
    800055f4:	f0f9                	bnez	s1,800055ba <input_data+0x972>
    800055f6:	98ae7a53          	.insn	4, 0x98ae7a53
    800055fa:	142d                	add	s0,s0,-21
    800055fc:	49b6                	lw	s3,76(sp)
    800055fe:	049e                	sll	s1,s1,0x7
    80005600:	00c56a53          	fadd.s	fs4,fa0,fa2,unknown
    80005604:	2b34                	fld	fa3,80(a4)
    80005606:	800e0223          	sb	zero,-2044(t3)
    8000560a:	35f0621b          	.insn	4, 0x35f0621b
    8000560e:	597a                	lw	s2,188(sp)
    80005610:	34a2                	fld	fs1,40(sp)
    80005612:	1a26                	sll	s4,s4,0x29
    80005614:	592c584b          	fnmsub.s	fa6,fs8,fs2,fa1,unknown
    80005618:	19de                	sll	s3,s3,0x37
    8000561a:	16b218fb          	.insn	4, 0x16b218fb
    8000561e:	56c5                	li	a3,-15
    80005620:	c342                	sw	a6,132(sp)
    80005622:	acda499b          	.insn	4, 0xacda499b
    80005626:	4cb8                	lw	a4,88(s1)
    80005628:	0309                	add	t1,t1,2
    8000562a:	1c05                	add	s8,s8,-31
    8000562c:	71422f0f          	.insn	4, 0x71422f0f
    80005630:	6781                	vmsgeu.vx	v15,v0,zero,v0.t
    80005632:	2da44367          	.insn	4, 0x2da44367
    80005636:	69aa                	ld	s3,136(sp)
    80005638:	16be534b          	.insn	4, 0x16be534b
    8000563c:	5faffcaf          	.insn	4, 0x5faffcaf
    80005640:	f87d                	bnez	s0,80005636 <input_data+0x9ee>
    80005642:	1eb0                	add	a2,sp,888
    80005644:	af76                	fsd	ft9,408(sp)
    80005646:	359a3b43          	.insn	4, 0x359a3b43
    8000564a:	58f0598f          	.insn	4, 0x58f0598f
    8000564e:	418e                	lw	gp,192(sp)
    80005650:	7a9e                	ld	s5,480(sp)
    80005652:	60ff c207 4477 5d34 	.insn	22, 0x36ee181a065a84b7386a4a275a8a5d344477c20760ff
    8000565a:	5a8a 4a27 386a 84b7 
    80005662:	065a 181a 36ee 
    80005668:	8142                	mv	sp,a6
    8000566a:	0ad2                	sll	s5,s5,0x14
    8000566c:	6704                	ld	s1,8(a4)
    8000566e:	5de6                	lw	s11,120(sp)
    80005670:	667e9cb3          	.insn	4, 0x667e9cb3
    80005674:	5d161ea7          	.insn	4, 0x5d161ea7
    80005678:	a925                	j	80005ab0 <input_data+0xe68>
    8000567a:	ce147273          	csrrc	tp,0xce1,8
    8000567e:	5a02                	lw	s4,32(sp)
    80005680:	65ff 41b8 952d 4616 	.insn	22, 0x192a3f1e1b750b15d3602fd8b3664616952d41b865ff
    80005688:	b366 2fd8 d360 0b15 
    80005690:	1b75 3f1e 192a 
    80005696:	6655                	lui	a2,0x15
    80005698:	2134                	fld	fa3,64(a0)
    8000569a:	01e2                	sll	gp,gp,0x18
    8000569c:	a632                	fsd	fa2,264(sp)
    8000569e:	1b96                	sll	s7,s7,0x25
    800056a0:	6eff 4f9c b6a6 02cd 	.insn	22, 0xafe90d4388d1536d50f60aa9d09902cdb6a64f9c6eff
    800056a8:	d099 0aa9 50f6 536d 
    800056b0:	88d1 0d43 afe9 
    800056b6:	07a1                	add	a5,a5,8 # 15008 <buflen.1+0x14fc8>
    800056b8:	ef3e                	sd	a5,408(sp)
    800056ba:	953f65cf          	.insn	4, 0x953f65cf
    800056be:	803b370f          	.insn	4, 0x803b370f
    800056c2:	7612                	ld	a2,288(sp)
    800056c4:	ce4c                	sw	a1,28(a2)
    800056c6:	5445                	li	s0,-15
    800056c8:	52680fd7          	.insn	4, 0x52680fd7
    800056cc:	45e2                	lw	a1,24(sp)
    800056ce:	0c68                	add	a0,sp,540
    800056d0:	482e                	lw	a6,200(sp)
    800056d2:	ae2c70cb          	.insn	4, 0xae2c70cb
    800056d6:	ec2c7cab          	.insn	4, 0xec2c7cab
    800056da:	6ae1                	lui	s5,0x18
    800056dc:	e13c                	sd	a5,64(a0)
    800056de:	547e                	lw	s0,252(sp)
    800056e0:	a950                	fsd	fa2,144(a0)
    800056e2:	1ebe                	sll	t4,t4,0x2f
    800056e4:	7bc697fb          	.insn	4, 0x7bc697fb
    800056e8:	fdc5                	bnez	a1,800056a0 <input_data+0xa58>
    800056ea:	4d993b37          	lui	s6,0x4d993
    800056ee:	83b2432f          	.insn	4, 0x83b2432f
    800056f2:	0e9f 9873 0803      	.insn	6, 0x080398730e9f
    800056f8:	b732                	fsd	fa2,424(sp)
    800056fa:	47e6                	lw	a5,88(sp)
    800056fc:	b9ad                	j	80005376 <input_data+0x72e>
    800056fe:	501d                	c.li	zero,-25
    80005700:	3234                	fld	fa3,96(a2)
    80005702:	43e6                	lw	t2,88(sp)
    80005704:	a9e2                	fsd	fs8,208(sp)
    80005706:	26d5                	addw	a3,a3,21 # ffffffffe8f4c46d <_tbss_end+0xffffffff68f437a9>
    80005708:	c7f5                	beqz	a5,800057f4 <input_data+0xbac>
    8000570a:	0151                	add	sp,sp,20
    8000570c:	c33a                	sw	a4,132(sp)
    8000570e:	5b90                	lw	a2,48(a5)
    80005710:	8976                	mv	s2,t4
    80005712:	7fc0                	ld	s0,184(a5)
    80005714:	e0a8                	sd	a0,64(s1)
    80005716:	3471                	addw	s0,s0,-4
    80005718:	73e9750b          	.insn	4, 0x73e9750b
    8000571c:	25d6                	fld	fa1,336(sp)
    8000571e:	071c                	add	a5,sp,896
    80005720:	8c7a                	mv	s8,t5
    80005722:	3198                	fld	fa4,32(a1)
    80005724:	acbd                	j	800059a2 <input_data+0xd5a>
    80005726:	5d64                	lw	s1,124(a0)
    80005728:	b01d                	j	80004f4e <input_data+0x306>
    8000572a:	3438                	fld	fa4,104(s0)
    8000572c:	53c2                	lw	t2,48(sp)
    8000572e:	2728                	fld	fa0,72(a4)
    80005730:	90d4                	.insn	2, 0x90d4
    80005732:	626c0d83          	lb	s11,1574(s8)
    80005736:	37e8                	fld	fa0,232(a5)
    80005738:	3740                	fld	fs0,168(a4)
    8000573a:	47a5                	li	a5,9
    8000573c:	73877afb          	.insn	4, 0x73877afb
    80005740:	2c8c                	fld	fa1,24(s1)
    80005742:	780d                	lui	a6,0xfffe3
    80005744:	5c1f 4bf6 a764      	.insn	6, 0xa7644bf65c1f
    8000574a:	41b5                	li	gp,13
    8000574c:	9850                	.insn	2, 0x9850
    8000574e:	588e                	lw	a7,224(sp)
    80005750:	e798                	sd	a4,8(a5)
    80005752:	346c                	fld	fa1,232(s0)
    80005754:	660f2753          	.insn	4, 0x660f2753
    80005758:	0b60                	add	s0,sp,412
    8000575a:	26c6                	fld	fa3,80(sp)
    8000575c:	5aa8                	lw	a0,112(a3)
    8000575e:	3fb1                	addw	t6,t6,-20
    80005760:	4af1                	li	s5,28
    80005762:	4eab19eb          	.insn	4, 0x4eab19eb
    80005766:	119716cb          	fnmsub.s	fa3,fa4,fs9,ft2,rtz
    8000576a:	36d2                	fld	fa3,304(sp)
    8000576c:	b865                	j	80005024 <input_data+0x3dc>
    8000576e:	7889                	lui	a7,0xfffe2
    80005770:	4eaa874f          	.insn	4, 0x4eaa874f
    80005774:	731f 7f8d b247      	.insn	6, 0xb2477f8d731f
    8000577a:	2e04                	fld	fs1,24(a2)
    8000577c:	38e6                	fld	fa7,120(sp)
    8000577e:	3da0                	fld	fs0,120(a1)
    80005780:	8d86                	mv	s11,ra
    80005782:	42d0                	lw	a2,4(a3)
    80005784:	8655                	sra	a2,a2,0x15
    80005786:	b06e1447          	fmsub.s	fs0,ft8,ft6,fs6,rtz
    8000578a:	142657af          	.insn	4, 0x142657af
    8000578e:	6958                	ld	a4,144(a0)
    80005790:	127d                	add	tp,tp,-1 # ffffffffffffffff <_tbss_end+0xffffffff7fff733b>
    80005792:	02d4                	add	a3,sp,324
    80005794:	1808                	add	a0,sp,48
    80005796:	4e50                	lw	a2,28(a2)
    80005798:	ff59                	bnez	a4,80005736 <input_data+0xaee>
    8000579a:	17c9                	add	a5,a5,-14
    8000579c:	6a81                	vmsgeu.vx	v21,v0,zero,v0.t
    8000579e:	5732                	lw	a4,44(sp)
    800057a0:	280b98c7          	fmsub.s	fa7,fs7,ft0,ft5,rtz
    800057a4:	c8a5                	beqz	s1,80005814 <input_data+0xbcc>
    800057a6:	01e1                	add	gp,gp,24 # 80007460 <__global_pointer$+0x18>
    800057a8:	b6ca                	fsd	fs2,360(sp)
    800057aa:	0dba                	sll	s11,s11,0xe
    800057ac:	f698                	sd	a4,40(a3)
    800057ae:	0e4d                	add	t3,t3,19
    800057b0:	39df 2335 12f4      	.insn	6, 0x12f4233539df
    800057b6:	662e                	ld	a2,200(sp)
    800057b8:	dfc5                	beqz	a5,80005770 <input_data+0xb28>
    800057ba:	31a6                	fld	ft3,104(sp)
    800057bc:	bb4a                	fsd	fs2,432(sp)
    800057be:	17bc                	add	a5,sp,1000
    800057c0:	8905                	and	a0,a0,1
    800057c2:	1f1f bef4 000d      	.insn	6, 0x000dbef41f1f
    800057c8:	3e5303f7          	.insn	4, 0x3e5303f7
    800057cc:	4fe1                	li	t6,24
    800057ce:	5c1f 89af 0d87      	.insn	6, 0x0d8789af5c1f
    800057d4:	6fc0                	ld	s0,152(a5)
    800057d6:	0c6c                	add	a1,sp,540
    800057d8:	09c4                	add	s1,sp,212
    800057da:	598e                	lw	s3,224(sp)
    800057dc:	8c4e                	mv	s8,s3
    800057de:	600d                	c.lui	zero,0x3
    800057e0:	53ad                	li	t2,-21
    800057e2:	7345                	lui	t1,0xffff1
    800057e4:	5eb1deab          	.insn	4, 0x5eb1deab
    800057e8:	62a986eb          	.insn	4, 0x62a986eb
    800057ec:	778c                	ld	a1,40(a5)
    800057ee:	684e                	ld	a6,208(sp)
    800057f0:	9ede                	add	t4,t4,s7
    800057f2:	52a0                	lw	s0,96(a3)
    800057f4:	7574                	ld	a3,232(a0)
    800057f6:	37c2                	fld	fa5,48(sp)
    800057f8:	53d9                	li	t2,-10
    800057fa:	0a5c                	add	a5,sp,276
    800057fc:	7a22                	ld	s4,40(sp)
    800057fe:	29dd                	addw	s3,s3,23
    80005800:	108a                	sll	ra,ra,0x22
    80005802:	14c0                	add	s0,sp,612
    80005804:	04da198b          	.insn	4, 0x04da198b
    80005808:	342ec987          	.insn	4, 0x342ec987
    8000580c:	f6c6                	sd	a7,360(sp)
    8000580e:	0458                	add	a4,sp,516
    80005810:	c459                	beqz	s0,8000589e <input_data+0xc56>
    80005812:	7939                	lui	s2,0xfffee
    80005814:	1a90                	add	a2,sp,368
    80005816:	4d9f b410 03dc      	.insn	6, 0x03dcb4104d9f
    8000581c:	8b1a                	mv	s6,t1
    8000581e:	77d6                	ld	a5,368(sp)
    80005820:	2af9                	addw	s5,s5,30 # 1801e <buflen.1+0x17fde>
    80005822:	6279                	lui	tp,0x1e
    80005824:	55e0                	lw	s0,108(a1)
    80005826:	0378                	add	a4,sp,396
    80005828:	a3d2                	fsd	fs4,448(sp)
    8000582a:	5a9a6f8f          	.insn	4, 0x5a9a6f8f
    8000582e:	f8480b5b          	.insn	4, 0xf8480b5b
    80005832:	0e95                	add	t4,t4,5 # ffffffffffffb005 <_tbss_end+0xffffffff7fff2341>
    80005834:	c145                	beqz	a0,800058d4 <input_data+0xc8c>
    80005836:	3890                	fld	fa2,48(s1)
    80005838:	e741                	bnez	a4,800058c0 <input_data+0xc78>
    8000583a:	1314                	add	a3,sp,416
    8000583c:	e58d                	bnez	a1,80005866 <input_data+0xc1e>
    8000583e:	2b7a                	fld	fs6,408(sp)
    80005840:	7b38                	ld	a4,112(a4)
    80005842:	07f9                	add	a5,a5,30
    80005844:	aecc                	fsd	fa1,152(a3)
    80005846:	17442c23          	sw	s4,376(s0)
    8000584a:	12dd                	add	t0,t0,-9
    8000584c:	0e38                	add	a4,sp,792
    8000584e:	4705                	li	a4,1
    80005850:	6b6b5947          	fmsub.d	fs2,fs6,fs6,fa3,unknown
    80005854:	3bb4                	fld	fa3,112(a5)
    80005856:	2ed0                	fld	fa2,152(a3)
    80005858:	6c47c04b          	.insn	4, 0x6c47c04b
    8000585c:	0e12                	sll	t3,t3,0x4
    8000585e:	7a54                	ld	a3,176(a2)
    80005860:	3774479b          	.insn	4, 0x3774479b
    80005864:	7c82                	ld	s9,32(sp)
    80005866:	51f651e7          	.insn	4, 0x51f651e7
    8000586a:	121c                	add	a5,sp,288
    8000586c:	3d32                	fld	fs10,296(sp)
    8000586e:	32d5                	addw	t0,t0,-11
    80005870:	fbb4                	sd	a3,112(a5)
    80005872:	1b14                	add	a3,sp,432
    80005874:	1831                	add	a6,a6,-20 # fffffffffffe2fec <_tbss_end+0xffffffff7ffda328>
    80005876:	7f10                	ld	a2,56(a4)
    80005878:	1f5a                	sll	t5,t5,0x36
    8000587a:	68ba                	ld	a7,392(sp)
    8000587c:	adc6                	fsd	fa7,216(sp)
    8000587e:	2dd11ff3          	csrrw	t6,0x2dd,sp
    80005882:	6939                	lui	s2,0xe
    80005884:	2488                	fld	fa0,8(s1)
    80005886:	d9f32b53          	.insn	4, 0xd9f32b53
    8000588a:	bdbc481b          	.insn	4, 0xbdbc481b
    8000588e:	6ab9                	lui	s5,0xe
    80005890:	26e2                	fld	fa3,24(sp)
    80005892:	2eb2                	fld	ft9,264(sp)
    80005894:	7cd13583          	ld	a1,1997(sp)
    80005898:	9124                	.insn	2, 0x9124
    8000589a:	e0844ee7          	.insn	4, 0xe0844ee7
    8000589e:	326e                	fld	ft4,248(sp)
    800058a0:	f425                	bnez	s0,80005808 <input_data+0xbc0>
    800058a2:	3f81                	addw	t6,t6,-32
    800058a4:	221bb1f3          	csrrc	gp,0x221,s7
    800058a8:	680ae06b          	.insn	4, 0x680ae06b
    800058ac:	02ec                	add	a1,sp,332
    800058ae:	3c49                	addw	s8,s8,-14
    800058b0:	fa5f 7577 9f22      	.insn	6, 0x9f227577fa5f
    800058b6:	2c9d                	addw	s9,s9,7 # ffffffffffff7007 <_tbss_end+0xffffffff7ffee343>
    800058b8:	14739627          	.insn	4, 0x14739627
    800058bc:	0b2a                	sll	s6,s6,0xa
    800058be:	2b1d                	addw	s6,s6,7 # 4d993007 <buflen.1+0x4d992fc7>
    800058c0:	42b9                	li	t0,14
    800058c2:	3731                	addw	a4,a4,-20
    800058c4:	35ae                	fld	fa1,232(sp)
    800058c6:	35c0                	fld	fs0,168(a1)
    800058c8:	bcfc                	fsd	fa5,248(s1)
    800058ca:	16f966ef          	jal	a3,8009c238 <_tbss_end+0x93574>
    800058ce:	1ff0                	add	a2,sp,1020
    800058d0:	7b35                	lui	s6,0xfffed
    800058d2:	171a                	sll	a4,a4,0x26
    800058d4:	1baab177          	.insn	4, 0x1baab177
    800058d8:	91ea                	add	gp,gp,s10
    800058da:	45c4                	lw	s1,12(a1)
    800058dc:	39da                	fld	fs3,432(sp)
    800058de:	44cb4583          	lbu	a1,1100(s6) # fffffffffffed44c <_tbss_end+0xffffffff7ffe4788>
    800058e2:	eeb26bb7          	lui	s7,0xeeb26
    800058e6:	73c1                	lui	t2,0xffff0
    800058e8:	3aba90eb          	.insn	4, 0x3aba90eb
    800058ec:	518d9d7b          	.insn	4, 0x518d9d7b
    800058f0:	0924                	add	s1,sp,152
    800058f2:	64d2                	ld	s1,272(sp)
    800058f4:	861e                	mv	a2,t2
    800058f6:	62415d83          	lhu	s11,1572(sp)
    800058fa:	6fd5                	lui	t6,0x15
    800058fc:	0635                	add	a2,a2,13 # 1500d <buflen.1+0x14fcd>
    800058fe:	4a75                	li	s4,29
    80005900:	31f2                	fld	ft3,312(sp)
    80005902:	65f1                	lui	a1,0x1c
    80005904:	69213a4f          	fnmadd.s	fs4,ft2,fs2,fa3,rup
    80005908:	1266                	sll	tp,tp,0x39
    8000590a:	6751                	lui	a4,0x14
    8000590c:	ddb0                	sw	a2,120(a1)
    8000590e:	5612                	lw	a2,36(sp)
    80005910:	3bea                	fld	fs7,184(sp)
    80005912:	6122                	ld	sp,8(sp)
    80005914:	a826                	fsd	fs1,16(sp)
    80005916:	7d7c                	ld	a5,248(a0)
    80005918:	0d6a9e8b          	.insn	4, 0x0d6a9e8b
    8000591c:	05a2                	sll	a1,a1,0x8
    8000591e:	3594                	fld	fa3,40(a1)
    80005920:	bf5f 3378 4c62      	.insn	6, 0x4c623378bf5f
    80005926:	55f0                	lw	a2,108(a1)
    80005928:	7fc9                	lui	t6,0xffff2
    8000592a:	2090                	fld	fa2,0(s1)
    8000592c:	d4b4                	sw	a3,104(s1)
    8000592e:	287c75e3          	bgeu	s8,t2,800063b8 <input_data+0x1770>
    80005932:	104f7e27          	.insn	4, 0x104f7e27
    80005936:	48d2                	lw	a7,20(sp)
    80005938:	7eec                	ld	a1,248(a3)
    8000593a:	1178                	add	a4,sp,172
    8000593c:	bf85                	j	800058ac <input_data+0xc64>
    8000593e:	5f76                	lw	t5,124(sp)
    80005940:	791e                	ld	s2,480(sp)
    80005942:	5d78                	lw	a4,124(a0)
    80005944:	af9c                	fsd	fa5,24(a5)
    80005946:	54ec                	lw	a1,108(s1)
    80005948:	bad6                	fsd	fs5,368(sp)
    8000594a:	4ae2                	lw	s5,24(sp)
    8000594c:	4fc8                	lw	a0,28(a5)
    8000594e:	0e4c11cf          	.insn	4, 0x0e4c11cf
    80005952:	65ce                	ld	a1,208(sp)
    80005954:	3170694b          	fnmsub.s	fs2,ft0,fs7,ft6,unknown
    80005958:	6b95                	lui	s7,0x5
    8000595a:	3526                	fld	fa0,104(sp)
    8000595c:	76e02b87          	flw	fs7,1902(zero) # 76e <buflen.1+0x72e>
    80005960:	0354                	add	a3,sp,388
    80005962:	43ba                	lw	t2,140(sp)
    80005964:	8dc1                	or	a1,a1,s0
    80005966:	1630                	add	a2,sp,808
    80005968:	8bfd                	and	a5,a5,31
    8000596a:	0e8b5aa3          	.insn	4, 0x0e8b5aa3
    8000596e:	3a98                	fld	fa4,48(a3)
    80005970:	46fe6c83          	lwu	s9,1135(t3)
    80005974:	9bfd                	and	a5,a5,-1
    80005976:	288a                	fld	fa7,128(sp)
    80005978:	3401                	addw	s0,s0,-32
    8000597a:	307d                	.insn	2, 0x307d
    8000597c:	b7d5                	j	80005960 <input_data+0xd18>
    8000597e:	1790                	add	a2,sp,992
    80005980:	4380                	lw	s0,0(a5)
    80005982:	bfe56243          	.insn	4, 0xbfe56243
    80005986:	3d2c                	fld	fa1,120(a0)
    80005988:	0d94                	add	a3,sp,720
    8000598a:	ed447d33          	.insn	4, 0xed447d33
    8000598e:	7f461927          	.insn	4, 0x7f461927
    80005992:	1e58                	add	a4,sp,820
    80005994:	a3bc                	fsd	fa5,64(a5)
    80005996:	333c                	fld	fa5,96(a4)
    80005998:	ee36                	sd	a3,280(sp)
    8000599a:	796c                	ld	a1,240(a0)
    8000599c:	d758                	sw	a4,44(a4)
    8000599e:	3559                	addw	a0,a0,-10
    800059a0:	71bc                	ld	a5,96(a1)
    800059a2:	a6b01d77          	.insn	4, 0xa6b01d77
    800059a6:	673c                	ld	a5,72(a4)
    800059a8:	3f1e                	fld	ft10,480(sp)
    800059aa:	1532                	sll	a0,a0,0x2c
    800059ac:	1715                	add	a4,a4,-27 # 13fe5 <buflen.1+0x13fa5>
    800059ae:	7fa6                	ld	t6,104(sp)
    800059b0:	24f2                	fld	fs1,280(sp)
    800059b2:	40ce                	lw	ra,208(sp)
    800059b4:	aa91                	j	80005b08 <input_data+0xec0>
    800059b6:	229c                	fld	fa5,0(a3)
    800059b8:	0d777e03          	.insn	4, 0x0d777e03
    800059bc:	1801                	add	a6,a6,-32
    800059be:	5e3d                	li	t3,-17
    800059c0:	11fa                	sll	gp,gp,0x3e
    800059c2:	5a51                	li	s4,-12
    800059c4:	5944ca9b          	.insn	4, 0x5944ca9b
    800059c8:	c086                	sw	ra,64(sp)
    800059ca:	6606                	ld	a2,64(sp)
    800059cc:	4048                	lw	a0,4(s0)
    800059ce:	69c9                	lui	s3,0x12
    800059d0:	2b61                	addw	s6,s6,24
    800059d2:	6d7411fb          	.insn	4, 0x6d7411fb
    800059d6:	c43f43bb          	.insn	4, 0xc43f43bb
    800059da:	26ec                	fld	fa1,200(a3)
    800059dc:	c100                	sw	s0,0(a0)
    800059de:	067f d548 65e9 4431 	.insn	10, 0x4fed443165e9d548067f
    800059e6:	4fed 
    800059e8:	b562                	fsd	fs8,168(sp)
    800059ea:	5162                	lw	sp,56(sp)
    800059ec:	e886                	sd	ra,80(sp)
    800059ee:	44de                	lw	s1,212(sp)
    800059f0:	0524                	add	s1,sp,648
    800059f2:	47c2                	lw	a5,16(sp)
    800059f4:	e892                	sd	tp,80(sp)
    800059f6:	0b34                	add	a3,sp,408
    800059f8:	760e                	ld	a2,224(sp)
    800059fa:	0f45                	add	t5,t5,17 # a011 <buflen.1+0x9fd1>
    800059fc:	25bbf907          	vluxseg2ei64.v	v18,(s7),v27,v0.t
    80005a00:	0125630f          	.insn	4, 0x0125630f
    80005a04:	ec4e                	sd	s3,24(sp)
    80005a06:	6f28                	ld	a0,88(a4)
    80005a08:	d032                	sw	a2,32(sp)
    80005a0a:	442d                	li	s0,11
    80005a0c:	0e20a51b          	.insn	4, 0x0e20a51b
    80005a10:	e6c8                	sd	a0,136(a3)
    80005a12:	6851                	lui	a6,0x14
    80005a14:	4b8a                	lw	s7,128(sp)
    80005a16:	3312                	fld	ft6,288(sp)
    80005a18:	9c1c                	.insn	2, 0x9c1c
    80005a1a:	04c9                	add	s1,s1,18 # f012 <buflen.1+0xefd2>
    80005a1c:	6418748b          	.insn	4, 0x6418748b
    80005a20:	0a4e                	sll	s4,s4,0x13
    80005a22:	4af4                	lw	a3,84(a3)
    80005a24:	52da5463          	bge	s4,a3,80005f4c <input_data+0x1304>
    80005a28:	859f 5ecc 7333      	.insn	6, 0x73335ecc859f
    80005a2e:	3010                	fld	fa2,32(s0)
    80005a30:	4c14                	lw	a3,24(s0)
    80005a32:	35aa4f5b          	.insn	4, 0x35aa4f5b
    80005a36:	78de                	ld	a7,496(sp)
    80005a38:	b9e0                	fsd	fs0,240(a1)
    80005a3a:	ac02624f          	.insn	4, 0xac02624f
    80005a3e:	5ae172ef          	jal	t0,8001cfec <_tbss_end+0x14328>
    80005a42:	3d42                	fld	fs10,48(sp)
    80005a44:	4b8786af          	.insn	4, 0x4b8786af
    80005a48:	076267bf 05b51220 	.insn	8, 0x05b51220076267bf
    80005a50:	e546                	sd	a7,136(sp)
    80005a52:	3a367ad7          	vsetvli	s5,a2,931
    80005a56:	24ec                	fld	fa1,200(s1)
    80005a58:	9cdc                	.insn	2, 0x9cdc
    80005a5a:	6481                	vmsgeu.vx	v9,v0,zero,v0.t
    80005a5c:	9a26                	add	s4,s4,s1
    80005a5e:	a6bd6c4f          	.insn	4, 0xa6bd6c4f
    80005a62:	7e4a                	ld	t3,176(sp)
    80005a64:	5f2d8e87          	.insn	4, 0x5f2d8e87
    80005a68:	a94d                	j	80005f1a <input_data+0x12d2>
    80005a6a:	6b4c                	ld	a1,144(a4)
    80005a6c:	6591                	lui	a1,0x4
    80005a6e:	ec5c0caf          	.insn	4, 0xec5c0caf
    80005a72:	276a                	fld	fa4,152(sp)
    80005a74:	aca1                	j	80005ccc <input_data+0x1084>
    80005a76:	42f4                	lw	a3,68(a3)
    80005a78:	08b3d3db          	.insn	4, 0x08b3d3db
    80005a7c:	0231                	add	tp,tp,12 # 1e00c <buflen.1+0x1dfcc>
    80005a7e:	6b3238db          	.insn	4, 0x6b3238db
    80005a82:	699d                	lui	s3,0x7
    80005a84:	c88e                	sw	gp,80(sp)
    80005a86:	3764                	fld	fs1,232(a4)
    80005a88:	c8f2                	sw	t3,80(sp)
    80005a8a:	7fb1                	lui	t6,0xfffec
    80005a8c:	1541dfdb          	.insn	4, 0x1541dfdb
    80005a90:	e246                	sd	a7,256(sp)
    80005a92:	5ffe                	lw	t6,252(sp)
    80005a94:	b4d1                	j	80005558 <input_data+0x910>
    80005a96:	7745                	lui	a4,0xffff1
    80005a98:	15fcce2f          	.insn	4, 0x15fcce2f
    80005a9c:	3e1f 03b5 a229      	.insn	6, 0xa22903b53e1f
    80005aa2:	69d5                	lui	s3,0x15
    80005aa4:	fafd                	bnez	a3,80005a9a <input_data+0xe52>
    80005aa6:	3b26                	fld	fs6,104(sp)
    80005aa8:	6481                	vmsgeu.vx	v9,v0,zero,v0.t
    80005aaa:	f4324fa3          	.insn	4, 0xf4324fa3
    80005aae:	2982                	fld	fs3,0(sp)
    80005ab0:	b436                	fsd	fa3,40(sp)
    80005ab2:	13e5                	add	t2,t2,-7 # fffffffffffefff9 <_tbss_end+0xffffffff7ffe7335>
    80005ab4:	ab60                	fsd	fs0,208(a4)
    80005ab6:	22ea                	fld	ft5,152(sp)
    80005ab8:	a2f9                	j	80005c86 <input_data+0x103e>
    80005aba:	69d8                	ld	a4,144(a1)
    80005abc:	94ee                	add	s1,s1,s11
    80005abe:	3041                	vmsgeu.vx	v0,v0,zero,v0.t
    80005ac0:	058dfb67          	.insn	4, 0x058dfb67
    80005ac4:	35dc                	fld	fa5,168(a1)
    80005ac6:	2ba8                	fld	fa0,80(a5)
    80005ac8:	3434                	fld	fa3,104(s0)
    80005aca:	90f058ef          	jal	a7,7ff0b3d8 <buflen.1+0x7ff0b398>
    80005ace:	48d27313          	and	t1,tp,1165
    80005ad2:	0a60                	add	s0,sp,284
    80005ad4:	bdd6                	fsd	fs5,248(sp)
    80005ad6:	144a                	sll	s0,s0,0x32
    80005ad8:	8062                	c.mv	zero,s8
    80005ada:	1e46                	sll	t3,t3,0x31
    80005adc:	18e0                	add	s0,sp,124
    80005ade:	159f fdc5 5fcb      	.insn	6, 0x5fcbfdc5159f
    80005ae4:	7b46                	ld	s6,112(sp)
    80005ae6:	2df238d3          	.insn	4, 0x2df238d3
    80005aea:	5f5c                	lw	a5,60(a4)
    80005aec:	a1ce                	fsd	fs3,192(sp)
    80005aee:	18d2                	sll	a7,a7,0x34
    80005af0:	757d                	lui	a0,0xfffff
    80005af2:	2212                	fld	ft4,256(sp)
    80005af4:	50dfdaef          	jal	s5,80103800 <_tbss_end+0xfab3c>
    80005af8:	c2dc                	sw	a5,4(a3)
    80005afa:	0fec                	add	a1,sp,988
    80005afc:	0db6                	sll	s11,s11,0xd
    80005afe:	77ea                	ld	a5,184(sp)
    80005b00:	5db6107f 231c2fa9 	.insn	12, 0x78b0d08a231c2fa95db6107f
    80005b08:	78b0d08a 
    80005b0c:	9a25                	and	a2,a2,-23
    80005b0e:	6426                	ld	s0,72(sp)
    80005b10:	5b94                	lw	a3,48(a5)
    80005b12:	3688                	fld	fa0,40(a3)
    80005b14:	e6da                	sd	s6,328(sp)
    80005b16:	17c6                	sll	a5,a5,0x31
    80005b18:	b464                	fsd	fs1,232(s0)
    80005b1a:	2f70                	fld	fa2,216(a4)
    80005b1c:	d6f6                	sw	t4,108(sp)
    80005b1e:	6c644f6b          	.insn	4, 0x6c644f6b
    80005b22:	2909                	addw	s2,s2,2 # e002 <buflen.1+0xdfc2>
    80005b24:	25755203          	lhu	tp,599(a0) # fffffffffffff257 <_tbss_end+0xffffffff7fff6593>
    80005b28:	227f96f7          	.insn	4, 0x227f96f7
    80005b2c:	0736                	sll	a4,a4,0xd
    80005b2e:	7796                	ld	a5,352(sp)
    80005b30:	2dac                	fld	fa1,88(a1)
    80005b32:	4592                	lw	a1,4(sp)
    80005b34:	140a3777          	.insn	4, 0x140a3777
    80005b38:	f3c1                	bnez	a5,80005ab8 <input_data+0xe70>
    80005b3a:	61ce                	ld	gp,208(sp)
    80005b3c:	6e26                	ld	t3,72(sp)
    80005b3e:	6a02                	ld	s4,0(sp)
    80005b40:	f51e                	sd	t2,168(sp)
    80005b42:	6064                	ld	s1,192(s0)
    80005b44:	7c26                	ld	s8,104(sp)
    80005b46:	0b5f 939b 7556      	.insn	6, 0x7556939b0b5f
    80005b4c:	2a5f 7e88 5cd7      	.insn	6, 0x5cd77e882a5f
    80005b52:	589601db          	.insn	4, 0x589601db
    80005b56:	83c450a7          	.insn	4, 0x83c450a7
    80005b5a:	0021                	c.nop	8
    80005b5c:	5328610f          	.insn	4, 0x5328610f
    80005b60:	fa75                	bnez	a2,80005b54 <input_data+0xf0c>
    80005b62:	741d                	lui	s0,0xfffe7
    80005b64:	aaf4                	fsd	fa3,208(a3)
    80005b66:	041e                	sll	s0,s0,0x7
    80005b68:	3385                	addw	t2,t2,-31
    80005b6a:	9b627f8f          	.insn	4, 0x9b627f8f
    80005b6e:	0026                	c.slli	zero,0x9
    80005b70:	2ddd                	addw	s11,s11,23 # 3b2a75a5 <buflen.1+0x3b2a7565>
    80005b72:	67c2                	ld	a5,16(sp)
    80005b74:	183e                	sll	a6,a6,0x2f
    80005b76:	5f71                	li	t5,-4
    80005b78:	8286                	mv	t0,ra
    80005b7a:	47e0                	lw	s0,76(a5)
    80005b7c:	57fc                	lw	a5,108(a5)
    80005b7e:	3326                	fld	ft6,104(sp)
    80005b80:	e188                	sd	a0,0(a1)
    80005b82:	cea26ff3          	csrrs	t6,0xcea,4
    80005b86:	7548                	ld	a0,168(a0)
    80005b88:	29ad                	addw	s3,s3,11 # 1500b <buflen.1+0x14fcb>
    80005b8a:	f2a17c9b          	.insn	4, 0xf2a17c9b
    80005b8e:	6578                	ld	a4,200(a0)
    80005b90:	b685                	j	800056f0 <input_data+0xaa8>
    80005b92:	2514                	fld	fa3,8(a0)
    80005b94:	dae5                	beqz	a3,80005b84 <input_data+0xf3c>
    80005b96:	470e                	lw	a4,192(sp)
    80005b98:	88ae                	mv	a7,a1
    80005b9a:	414a                	lw	sp,144(sp)
    80005b9c:	7e1723f7          	.insn	4, 0x7e1723f7
    80005ba0:	4797b60f          	.insn	4, 0x4797b60f
    80005ba4:	22f9                	addw	t0,t0,30
    80005ba6:	43fe                	lw	t2,220(sp)
    80005ba8:	8234                	.insn	2, 0x8234
    80005baa:	7b647c4b          	fnmsub.d	fs8,fs0,fs6,fa5
    80005bae:	42cb4cf3          	.insn	4, 0x42cb4cf3
    80005bb2:	33f8                	fld	fa4,224(a5)
    80005bb4:	37b1                	addw	a5,a5,-20
    80005bb6:	337a                	fld	ft6,440(sp)
    80005bb8:	4a41b0ab          	.insn	4, 0x4a41b0ab
    80005bbc:	5511                	li	a0,-28
    80005bbe:	a39e5787          	.insn	4, 0xa39e5787
    80005bc2:	259c                	fld	fa5,8(a1)
    80005bc4:	4f90                	lw	a2,24(a5)
    80005bc6:	453c                	lw	a5,72(a0)
    80005bc8:	202edda7          	.insn	4, 0x202edda7
    80005bcc:	ee10                	sd	a2,24(a2)
    80005bce:	73d1                	lui	t2,0xffff4
    80005bd0:	2228                	fld	fa0,64(a2)
    80005bd2:	6ce0                	ld	s0,216(s1)
    80005bd4:	dcbd                	beqz	s1,80005b52 <input_data+0xf0a>
    80005bd6:	45f50f7b          	.insn	4, 0x45f50f7b
    80005bda:	108a                	sll	ra,ra,0x22
    80005bdc:	5899                	li	a7,-26
    80005bde:	7f99                	lui	t6,0xfffe6
    80005be0:	56e2                	lw	a3,56(sp)
    80005be2:	3a06                	fld	fs4,96(sp)
    80005be4:	42dd5013          	sra	zero,s10,0x2d
    80005be8:	5bc3d43b          	.insn	4, 0x5bc3d43b
    80005bec:	3271                	addw	tp,tp,-4 # fffffffffffffffc <_tbss_end+0xffffffff7fff7338>
    80005bee:	dcd04fb7          	lui	t6,0xdcd04
    80005bf2:	0b18                	add	a4,sp,400
    80005bf4:	bb55                	j	800059a8 <input_data+0xd60>
    80005bf6:	1cc8                	add	a0,sp,628
    80005bf8:	1c4d                	add	s8,s8,-13
    80005bfa:	56f8                	lw	a4,108(a3)
    80005bfc:	1f64                	add	s1,sp,956
    80005bfe:	46e372b7          	lui	t0,0x46e37
    80005c02:	174a                	sll	a4,a4,0x32
    80005c04:	247f 43f3 8110 1edc 	.insn	14, 0xd0ed692b29f11edc811043f3247f
    80005c0c:	29f1 692b d0ed 
    80005c12:	2b0c                	fld	fa1,16(a4)
    80005c14:	53807c37          	lui	s8,0x53807
    80005c18:	8f02                	jr	t5
    80005c1a:	4c0565b7          	lui	a1,0x4c056
    80005c1e:	1cfa                	sll	s9,s9,0x3e
    80005c20:	e641                	bnez	a2,80005ca8 <input_data+0x1060>
    80005c22:	5238                	lw	a4,96(a2)
    80005c24:	0c514963          	blt	sp,t0,80005cf6 <input_data+0x10ae>
    80005c28:	0030356f          	jal	a0,8000942a <_tbss_end+0x766>
    80005c2c:	81de                	mv	gp,s7
    80005c2e:	37e721af          	.insn	4, 0x37e721af
    80005c32:	3bd32907          	flw	fs2,957(t1) # ffffffffffff13bd <_tbss_end+0xffffffff7ffe86f9>
    80005c36:	48ee                	lw	a7,216(sp)
    80005c38:	7e7f282b          	.insn	4, 0x7e7f282b
    80005c3c:	e911                	bnez	a0,80005c50 <input_data+0x1008>
    80005c3e:	bc781e93          	.insn	4, 0xbc781e93
    80005c42:	f81f52e3          	bge	t5,ra,80005bc6 <input_data+0xf7e>
    80005c46:	1034                	add	a3,sp,40
    80005c48:	540c                	lw	a1,40(s0)
    80005c4a:	60b8                	ld	a4,64(s1)
    80005c4c:	4e448da7          	vsoxseg3ei8.v	v27,(s1),v4
    80005c50:	939c                	.insn	2, 0x939c
    80005c52:	7ada                	ld	s5,432(sp)
    80005c54:	8e8d                	sub	a3,a3,a1
    80005c56:	188c                	add	a1,sp,112
    80005c58:	efe9                	bnez	a5,80005d32 <input_data+0x10ea>
    80005c5a:	1a16                	sll	s4,s4,0x25
    80005c5c:	1e9ca763          	.insn	4, 0x1e9ca763
    80005c60:	671f 1235 2f27      	.insn	6, 0x2f271235671f
    80005c66:	661d                	lui	a2,0x7
    80005c68:	17155447          	.insn	4, 0x17155447
    80005c6c:	291f 7157 83a9      	.insn	6, 0x83a97157291f
    80005c72:	ccf5266f          	jal	a2,7ff58940 <buflen.1+0x7ff58900>
    80005c76:	496d                	li	s2,27
    80005c78:	63a5                	lui	t2,0x9
    80005c7a:	1542                	sll	a0,a0,0x30
    80005c7c:	a455                	j	80005f20 <input_data+0x12d8>
    80005c7e:	0dd6                	sll	s11,s11,0x15
    80005c80:	8322                	mv	t1,s0
    80005c82:	6190                	ld	a2,0(a1)
    80005c84:	8242                	mv	tp,a6
    80005c86:	ed641203          	lh	tp,-298(s0) # fffffffffffe6ed6 <_tbss_end+0xffffffff7ffde212>
    80005c8a:	7cd8                	ld	a4,184(s1)
    80005c8c:	a2b8                	fsd	fa4,64(a3)
    80005c8e:	6530                	ld	a2,72(a0)
    80005c90:	02a1                	add	t0,t0,8 # 46e37008 <buflen.1+0x46e36fc8>
    80005c92:	52e1                	li	t0,-8
    80005c94:	a814                	fsd	fa3,16(s0)
    80005c96:	6d49                	lui	s10,0x12
    80005c98:	1554                	add	a3,sp,676
    80005c9a:	47ba                	lw	a5,140(sp)
    80005c9c:	b802                	fsd	ft0,48(sp)
    80005c9e:	0309                	add	t1,t1,2
    80005ca0:	7e0c                	ld	a1,56(a2)
    80005ca2:	4f6a                	lw	t5,152(sp)
    80005ca4:	5a46b2c3          	fmadd.d	ft5,fa3,ft4,fa1,rup
    80005ca8:	69d9                	lui	s3,0x16
    80005caa:	3632                	fld	fa2,296(sp)
    80005cac:	adc9                	j	8000637e <input_data+0x1736>
    80005cae:	7221                	lui	tp,0xfffe8
    80005cb0:	0b52                	sll	s6,s6,0x14
    80005cb2:	05a3216b          	.insn	4, 0x05a3216b
    80005cb6:	3d91                	addw	s11,s11,-28
    80005cb8:	4881f2b7          	lui	t0,0x4881f
    80005cbc:	06c34b8b          	.insn	4, 0x06c34b8b
    80005cc0:	4f41                	li	t5,16
    80005cc2:	0fd74577          	.insn	4, 0x0fd74577
    80005cc6:	2fb8                	fld	fa4,88(a5)
    80005cc8:	227f 3f1a 5cc9 19c1 	.insn	14, 0x24497f10a60519c15cc93f1a227f
    80005cd0:	a605 7f10 2449 
    80005cd6:	4609                	li	a2,2
    80005cd8:	3495                	addw	s1,s1,-27
    80005cda:	5f89                	li	t6,-30
    80005cdc:	b74e                	fsd	fs3,424(sp)
    80005cde:	3462                	fld	fs0,56(sp)
    80005ce0:	1a9b193f 0f5c9eb7 	.insn	8, 0x0f5c9eb71a9b193f
    80005ce8:	21dc                	fld	fa5,128(a1)
    80005cea:	2fb9                	addw	t6,t6,14 # ffffffffdcd0400e <_tbss_end+0xffffffff5ccfb34a>
    80005cec:	2390                	fld	fa2,0(a5)
    80005cee:	52b9                	li	t0,-18
    80005cf0:	5dbc                	lw	a5,120(a1)
    80005cf2:	777e                	ld	a4,504(sp)
    80005cf4:	07e4                	add	s1,sp,972
    80005cf6:	f6013b8f          	.insn	4, 0xf6013b8f
    80005cfa:	5520                	lw	s0,104(a0)
    80005cfc:	2930                	fld	fa2,80(a0)
    80005cfe:	b2da0a7b          	.insn	4, 0xb2da0a7b
    80005d02:	0476                	sll	s0,s0,0x1d
    80005d04:	0af0                	add	a2,sp,348
    80005d06:	ef612593          	slti	a1,sp,-266
    80005d0a:	4469                	li	s0,26
    80005d0c:	e19d                	bnez	a1,80005d32 <input_data+0x10ea>
    80005d0e:	06b6                	sll	a3,a3,0xd
    80005d10:	1d74                	add	a3,sp,700
    80005d12:	3d4e                	fld	fs10,240(sp)
    80005d14:	2dc1                	addw	s11,s11,16
    80005d16:	70c4                	ld	s1,160(s1)
    80005d18:	7398                	ld	a4,32(a5)
    80005d1a:	7476                	ld	s0,376(sp)
    80005d1c:	12d4                	add	a3,sp,356
    80005d1e:	1cb4                	add	a3,sp,632
    80005d20:	1886                	sll	a7,a7,0x21
    80005d22:	1a04                	add	s1,sp,304
    80005d24:	5ea0                	lw	s0,120(a3)
    80005d26:	82a85f6f          	jal	t5,7ff8ad50 <buflen.1+0x7ff8ad10>
    80005d2a:	f449044f          	.insn	4, 0xf449044f
    80005d2e:	5e3d                	li	t3,-17
    80005d30:	1b717563          	bgeu	sp,s7,80005eda <input_data+0x1292>
    80005d34:	88e1                	and	s1,s1,24
    80005d36:	7185                	lui	gp,0xfffe1
    80005d38:	f2c1                	bnez	a3,80005cb8 <input_data+0x1070>
    80005d3a:	2edd                	addw	t4,t4,23
    80005d3c:	1fe2                	sll	t6,t6,0x38
    80005d3e:	1571                	add	a0,a0,-4
    80005d40:	c58d                	beqz	a1,80005d6a <input_data+0x1122>
    80005d42:	82bc7257          	.insn	4, 0x82bc7257
    80005d46:	003d                	c.nop	15
    80005d48:	5eb2                	lw	t4,44(sp)
    80005d4a:	641f 5118 4430      	.insn	6, 0x44305118641f
    80005d50:	4838                	lw	a4,80(s0)
    80005d52:	c6375727          	vsuxseg7ei16.v	v14,(a4),v3
    80005d56:	292d                	addw	s2,s2,11
    80005d58:	50ec                	lw	a1,100(s1)
    80005d5a:	b4405a5b          	.insn	4, 0xb4405a5b
    80005d5e:	15aa                	sll	a1,a1,0x2a
    80005d60:	f556                	sd	s5,168(sp)
    80005d62:	8743583b          	.insn	4, 0x8743583b
    80005d66:	d5303e3b          	.insn	4, 0xd5303e3b
    80005d6a:	a7e9795b          	.insn	4, 0xa7e9795b
    80005d6e:	0d08                	add	a0,sp,656
    80005d70:	e05e                	sd	s7,0(sp)
    80005d72:	3181                	addw	gp,gp,-32 # fffffffffffe0fe0 <_tbss_end+0xffffffff7ffd831c>
    80005d74:	d8e5                	beqz	s1,80005d64 <input_data+0x111c>
    80005d76:	3ad616c3          	fmadd.d	fa3,fa2,fa3,ft7,rtz
    80005d7a:	0675                	add	a2,a2,29 # 701d <buflen.1+0x6fdd>
    80005d7c:	f25c                	sd	a5,160(a2)
    80005d7e:	057f cc9f 0cfa b38c 	.insn	10, 0x5abcb38c0cfacc9f057f
    80005d86:	5abc 
    80005d88:	71b9                	lui	gp,0xfffee
    80005d8a:	8d403cdb          	.insn	4, 0x8d403cdb
    80005d8e:	53de                	lw	t2,244(sp)
    80005d90:	33226d3b          	.insn	4, 0x33226d3b
    80005d94:	ce81                	beqz	a3,80005dac <input_data+0x1164>
    80005d96:	7556                	ld	a0,368(sp)
    80005d98:	0bc1                	add	s7,s7,16 # 5010 <buflen.1+0x4fd0>
    80005d9a:	5700                	lw	s0,40(a4)
    80005d9c:	495f 502b 6ac2      	.insn	6, 0x6ac2502b495f
    80005da2:	2a4c                	fld	fa1,144(a2)
    80005da4:	5e7e                	lw	t3,252(sp)
    80005da6:	1f06                	sll	t5,t5,0x21
    80005da8:	8d0d                	sub	a0,a0,a1
    80005daa:	7a1a                	ld	s4,416(sp)
    80005dac:	ac82                	fsd	ft0,88(sp)
    80005dae:	696d                	lui	s2,0x1b
    80005db0:	3c6ee86b          	.insn	4, 0x3c6ee86b
    80005db4:	eb55                	bnez	a4,80005e68 <input_data+0x1220>
    80005db6:	54be65e7          	.insn	4, 0x54be65e7
    80005dba:	3d2d                	addw	s10,s10,-21 # 11feb <buflen.1+0x11fab>
    80005dbc:	8b7a                	mv	s6,t5
    80005dbe:	5222                	lw	tp,40(sp)
    80005dc0:	e2f0                	sd	a2,192(a3)
    80005dc2:	5cfd                	li	s9,-1
    80005dc4:	8ed1                	or	a3,a3,a2
    80005dc6:	085b2057          	vredor.vs	v0,v5,v22,v0.t
    80005dca:	5b74                	lw	a3,116(a4)
    80005dcc:	0239                	add	tp,tp,14 # fffffffffffe800e <_tbss_end+0xffffffff7ffdf34a>
    80005dce:	1f79                	add	t5,t5,-2
    80005dd0:	78276307          	.insn	4, 0x78276307
    80005dd4:	13640e9b          	addw	t4,s0,310
    80005dd8:	0be4                	add	s1,sp,476
    80005dda:	43cd                	li	t2,19
    80005ddc:	8c1c                	.insn	2, 0x8c1c
    80005dde:	1d7a704b          	.insn	4, 0x1d7a704b
    80005de2:	6f86                	ld	t6,64(sp)
    80005de4:	6351                	lui	t1,0x14
    80005de6:	2aac                	fld	fa1,80(a3)
    80005de8:	09fe3077          	.insn	4, 0x09fe3077
    80005dec:	1e4c                	add	a1,sp,820
    80005dee:	bae34d03          	lbu	s10,-1106(t1) # 13bae <buflen.1+0x13b6e>
    80005df2:	45df 5ebc 784d      	.insn	6, 0x784d5ebc45df
    80005df8:	744d6397          	auipc	t2,0x744d6
    80005dfc:	463a                	lw	a2,140(sp)
    80005dfe:	634e                	ld	t1,208(sp)
    80005e00:	a105                	j	80006220 <input_data+0x15d8>
    80005e02:	6d5d                	lui	s10,0x17
    80005e04:	32ee431b          	.insn	4, 0x32ee431b
    80005e08:	c920                	sw	s0,80(a0)
    80005e0a:	1268                	add	a0,sp,300
    80005e0c:	6e48                	ld	a0,152(a2)
    80005e0e:	1df4                	add	a3,sp,764
    80005e10:	b7c8                	fsd	fa0,168(a5)
    80005e12:	7d82                	ld	s11,32(sp)
    80005e14:	3d99                	addw	s11,s11,-26
    80005e16:	60d6                	ld	ra,336(sp)
    80005e18:	49c4                	lw	s1,20(a1)
    80005e1a:	1ea6                	sll	t4,t4,0x29
    80005e1c:	8a86                	mv	s5,ra
    80005e1e:	3a2d                	addw	s4,s4,-21
    80005e20:	0d8e43d3          	.insn	4, 0x0d8e43d3
    80005e24:	d5de                	sw	s7,232(sp)
    80005e26:	3661                	addw	a2,a2,-8
    80005e28:	4040                	lw	s0,4(s0)
    80005e2a:	2ed9                	addw	t4,t4,22
    80005e2c:	8f99                	sub	a5,a5,a4
    80005e2e:	1ae8                	add	a0,sp,380
    80005e30:	90c0                	vmsge.vx	v1,v0,ra,v0.t
    80005e32:	84c10ca3          	sb	a2,-1959(sp)
    80005e36:	7b4e                	ld	s6,240(sp)
    80005e38:	8f21                	xor	a4,a4,s0
    80005e3a:	06fd                	add	a3,a3,31
    80005e3c:	736f35b7          	lui	a1,0x736f3
    80005e40:	c4ff 0c8f c41b 7643 	.insn	18, 0xd94853fba9d03862092d7643c41b0c8fc4ff
    80005e48:	092d 3862 a9d0 53fb 
    80005e50:	d948 
    80005e52:	6202                	ld	tp,0(sp)
    80005e54:	43e409b7          	lui	s3,0x43e40
    80005e58:	2870b66f          	jal	a2,800118de <_tbss_end+0x8c1a>
    80005e5c:	4c3ceec7          	.insn	4, 0x4c3ceec7
    80005e60:	4dbe                	lw	s11,204(sp)
    80005e62:	2b26                	fld	fs6,72(sp)
    80005e64:	3f66                	fld	ft10,120(sp)
    80005e66:	0ba5                	add	s7,s7,9
    80005e68:	1fe2                	sll	t6,t6,0x38
    80005e6a:	5952                	lw	s2,52(sp)
    80005e6c:	d0de                	sw	s7,96(sp)
    80005e6e:	3b90                	fld	fa2,48(a5)
    80005e70:	d69d                	beqz	a3,80005d9e <input_data+0x1156>
    80005e72:	6a2e634b          	fnmsub.d	ft6,ft8,ft2,fa3,unknown
    80005e76:	6bb957d7          	.insn	4, 0x6bb957d7
    80005e7a:	5d11                	li	s10,-28
    80005e7c:	6d30                	ld	a2,88(a0)
    80005e7e:	0906                	sll	s2,s2,0x1
    80005e80:	daa0                	sw	s0,112(a3)
    80005e82:	52a12997          	auipc	s3,0x52a12
    80005e86:	60b9                	lui	ra,0xe
    80005e88:	b44a                	fsd	fs2,40(sp)
    80005e8a:	2439                	addw	s0,s0,14
    80005e8c:	6f58                	ld	a4,152(a4)
    80005e8e:	042a                	sll	s0,s0,0xa
    80005e90:	3cf2                	fld	fs9,312(sp)
    80005e92:	204c44af          	.insn	4, 0x204c44af
    80005e96:	3f66                	fld	ft10,120(sp)
    80005e98:	a394                	fsd	fa3,0(a5)
    80005e9a:	4fc1                	li	t6,16
    80005e9c:	472e                	lw	a4,200(sp)
    80005e9e:	034e                	sll	t1,t1,0x13
    80005ea0:	8cce                	mv	s9,s3
    80005ea2:	4c2d                	li	s8,11
    80005ea4:	31e3fa47          	fmsub.s	fs4,ft7,ft10,ft6
    80005ea8:	7220fd73          	csrrc	s10,0x722,1
    80005eac:	b8b0                	fsd	fa2,112(s1)
    80005eae:	3e8d                	addw	t4,t4,-29
    80005eb0:	54b6                	lw	s1,108(sp)
    80005eb2:	09a0                	add	s0,sp,216
    80005eb4:	deea                	sw	s10,124(sp)
    80005eb6:	04ca                	sll	s1,s1,0x12
    80005eb8:	625f 253c 47ff      	.insn	6, 0x47ff253c625f
    80005ebe:	346a                	fld	fs0,184(sp)
    80005ec0:	3f95e34b          	.insn	4, 0x3f95e34b
    80005ec4:	049e                	sll	s1,s1,0x7
    80005ec6:	51fc                	lw	a5,100(a1)
    80005ec8:	5d0e34db          	.insn	4, 0x5d0e34db
    80005ecc:	2382                	fld	ft7,0(sp)
    80005ece:	038a                	sll	t2,t2,0x2
    80005ed0:	399987cf          	fnmadd.s	fa5,fs3,fs9,ft7,rne
    80005ed4:	35d0                	fld	fa2,168(a1)
    80005ed6:	79d5                	lui	s3,0xffff5
    80005ed8:	2b82                	fld	fs7,0(sp)
    80005eda:	4638                	lw	a4,72(a2)
    80005edc:	4e25                	li	t3,9
    80005ede:	4520                	lw	s0,72(a0)
    80005ee0:	dc36                	sw	a3,56(sp)
    80005ee2:	115c                	add	a5,sp,164
    80005ee4:	0a50ba03          	ld	s4,165(ra) # e0a5 <buflen.1+0xe065>
    80005ee8:	b9a9                	j	80005b42 <input_data+0xefa>
    80005eea:	ebc45297          	auipc	t0,0xebc45
    80005eee:	26dd                	addw	a3,a3,23
    80005ef0:	56e2                	lw	a3,56(sp)
    80005ef2:	6b6d                	lui	s6,0x1b
    80005ef4:	7dfd                	lui	s11,0xfffff
    80005ef6:	5cb9                	li	s9,-18
    80005ef8:	18b0                	add	a2,sp,120
    80005efa:	2530                	fld	fa2,72(a0)
    80005efc:	b1a2                	fsd	fs0,224(sp)
    80005efe:	5e28                	lw	a0,120(a2)
    80005f00:	624efe03          	.insn	4, 0x624efe03
    80005f04:	10244d23          	.insn	4, 0x10244d23
    80005f08:	14df5beb          	.insn	4, 0x14df5beb
    80005f0c:	46d09d13          	.insn	4, 0x46d09d13
    80005f10:	3548b68b          	.insn	4, 0x3548b68b
    80005f14:	0dde                	sll	s11,s11,0x17
    80005f16:	1fda                	sll	t6,t6,0x36
    80005f18:	9926                	add	s2,s2,s1
    80005f1a:	3f00                	fld	fs0,56(a4)
    80005f1c:	323a                	fld	ft4,424(sp)
    80005f1e:	48c70dbf 133b7e3c 	.insn	8, 0x133b7e3c48c70dbf
    80005f26:	2e6c                	fld	fa1,216(a2)
    80005f28:	cfda                	sw	s6,220(sp)
    80005f2a:	a4ed0ef3          	.insn	4, 0xa4ed0ef3
    80005f2e:	063c                	add	a5,sp,776
    80005f30:	d49f 4f2b b592      	.insn	6, 0xb5924f2bd49f
    80005f36:	6f6a                	ld	t5,152(sp)
    80005f38:	6e24d8eb          	.insn	4, 0x6e24d8eb
    80005f3c:	6db5                	lui	s11,0xd
    80005f3e:	0f6b128b          	.insn	4, 0x0f6b128b
    80005f42:	1e30                	add	a2,sp,824
    80005f44:	845e                	mv	s0,s7
    80005f46:	491c6bc7          	fmsub.s	fs7,fs8,fa7,fs1,unknown
    80005f4a:	2435                	addw	s0,s0,13
    80005f4c:	ecf0                	sd	a2,216(s1)
    80005f4e:	5ce0                	lw	s0,124(s1)
    80005f50:	493e456f          	jal	a0,800eabe2 <_tbss_end+0xe1f1e>
    80005f54:	832c                	.insn	2, 0x832c
    80005f56:	d0102aef          	jal	s5,7ff08c56 <buflen.1+0x7ff08c16>
    80005f5a:	7501                	lui	a0,0xfffe0
    80005f5c:	de19                	beqz	a2,80005e7a <input_data+0x1232>
    80005f5e:	3c49                	addw	s8,s8,-14 # 53806ff2 <buflen.1+0x53806fb2>
    80005f60:	b8f5                	j	8000585c <input_data+0xc14>
    80005f62:	47d2                	lw	a5,20(sp)
    80005f64:	21bf03af          	.insn	4, 0x21bf03af
    80005f68:	3dfe                	fld	fs11,504(sp)
    80005f6a:	18fa                	sll	a7,a7,0x3e
    80005f6c:	7d20                	ld	s0,120(a0)
    80005f6e:	99062bf3          	csrrs	s7,0x990,a2
    80005f72:	ceef1f03          	lh	t5,-786(t5)
    80005f76:	f9ef67b7          	lui	a5,0xf9ef6
    80005f7a:	5ff3644b          	.insn	4, 0x5ff3644b
    80005f7e:	56be                	lw	a3,236(sp)
    80005f80:	69c4                	ld	s1,144(a1)
    80005f82:	7e4a                	ld	t3,176(sp)
    80005f84:	6fa2                	ld	t6,8(sp)
    80005f86:	52b62b7b          	.insn	4, 0x52b62b7b
    80005f8a:	5d51                	li	s10,-12
    80005f8c:	261f 2b0e 5867      	.insn	6, 0x58672b0e261f
    80005f92:	2c15                	addw	s8,s8,5
    80005f94:	34968f93          	add	t6,a3,841
    80005f98:	b46e                	fsd	fs11,40(sp)
    80005f9a:	3734                	fld	fa3,104(a4)
    80005f9c:	3b99408f          	.insn	4, 0x3b99408f
    80005fa0:	94d2                	add	s1,s1,s4
    80005fa2:	7a3f4e8f          	.insn	4, 0x7a3f4e8f
    80005fa6:	6ca90747          	.insn	4, 0x6ca90747
    80005faa:	615d                	add	sp,sp,432
    80005fac:	3372                	fld	ft6,312(sp)
    80005fae:	4bae                	lw	s7,200(sp)
    80005fb0:	6ad2                	ld	s5,272(sp)
    80005fb2:	f67f16a7          	.insn	4, 0xf67f16a7
    80005fb6:	3e38                	fld	fa4,120(a2)
    80005fb8:	27ac473b          	.insn	4, 0x27ac473b
    80005fbc:	3417d43b          	.insn	4, 0x3417d43b
    80005fc0:	74f2                	ld	s1,312(sp)
    80005fc2:	2aca                	fld	fs5,144(sp)
    80005fc4:	c95e                	sw	s7,144(sp)
    80005fc6:	eda17f4b          	.insn	4, 0xeda17f4b
    80005fca:	2d68                	fld	fa0,216(a0)
    80005fcc:	25c2                	fld	fa1,16(sp)
    80005fce:	5fa0                	lw	s0,120(a5)
    80005fd0:	e2fd                	bnez	a3,800060b6 <input_data+0x146e>
    80005fd2:	540d27bb          	.insn	4, 0x540d27bb
    80005fd6:	1e9c                	add	a5,sp,880
    80005fd8:	930e                	add	t1,t1,gp
    80005fda:	59a5                	li	s3,-23
    80005fdc:	9488                	.insn	2, 0x9488
    80005fde:	4349                	li	t1,18
    80005fe0:	6e11                	lui	t3,0x4
    80005fe2:	05ee                	sll	a1,a1,0x1b
    80005fe4:	deec                	sw	a1,124(a3)
    80005fe6:	2b16                	fld	fs6,320(sp)
    80005fe8:	1714                	add	a3,sp,928
    80005fea:	3e6d                	addw	t3,t3,-5 # 3ffb <buflen.1+0x3fbb>
    80005fec:	7518                	ld	a4,40(a0)
    80005fee:	20d0                	fld	fa2,128(s1)
    80005ff0:	345c                	fld	fa5,168(s0)
    80005ff2:	43c8408b          	.insn	4, 0x43c8408b
    80005ff6:	1144                	add	s1,sp,164
    80005ff8:	68ec                	ld	a1,208(s1)
    80005ffa:	0ce8                	add	a0,sp,604
    80005ffc:	c688                	sw	a0,8(a3)
    80005ffe:	4602                	lw	a2,0(sp)
    80006000:	5676                	lw	a2,124(sp)
    80006002:	3268                	fld	fa0,224(a2)
    80006004:	c924                	sw	s1,80(a0)
    80006006:	5ca1                	li	s9,-24
    80006008:	9562                	add	a0,a0,s8
    8000600a:	226a                	fld	ft4,152(sp)
    8000600c:	5b1f 2f1a d05b      	.insn	6, 0xd05b2f1a5b1f
    80006012:	2845                	addw	a6,a6,17 # 14011 <buflen.1+0x13fd1>
    80006014:	78f220af          	.insn	4, 0x78f220af
    80006018:	8960                	vmsge.vx	v18,v0,ra,v0.t
    8000601a:	099f a911 0da5      	.insn	6, 0x0da5a911099f
    80006020:	2c54a803          	lw	a6,709(s1)
    80006024:	9ad6                	add	s5,s5,s5
    80006026:	50a2                	lw	ra,40(sp)
    80006028:	3314                	fld	fa3,32(a4)
    8000602a:	7e90                	ld	a2,56(a3)
    8000602c:	a565                	j	800066d4 <input_data+0x1a8c>
    8000602e:	32cd                	addw	t0,t0,-13 # 6bc4aedd <buflen.1+0x6bc4ae9d>
    80006030:	2ba0                	fld	fs0,80(a5)
    80006032:	4cf4                	lw	a3,92(s1)
    80006034:	c174                	sw	a3,68(a0)
    80006036:	1abe                	sll	s5,s5,0x2f
    80006038:	4bc0                	lw	s0,20(a5)
    8000603a:	2af7746f          	jal	s0,8007dae8 <_tbss_end+0x74e24>
    8000603e:	9973370b          	.insn	4, 0x9973370b
    80006042:	3152                	fld	ft2,304(sp)
    80006044:	aba4                	fsd	fs1,80(a5)
    80006046:	431d                	li	t1,7
    80006048:	b420                	fsd	fs0,104(s0)
    8000604a:	0bcc                	add	a1,sp,468
    8000604c:	8f9a                	mv	t6,t1
    8000604e:	10c4                	add	s1,sp,100
    80006050:	45da2b4b          	.insn	4, 0x45da2b4b
    80006054:	7cb6                	ld	s9,360(sp)
    80006056:	ed702d97          	auipc	s11,0xed702
    8000605a:	2381                	sext.w	t2,t2
    8000605c:	2954                	fld	fa3,144(a0)
    8000605e:	7ef4                	ld	a3,248(a3)
    80006060:	1f9c                	add	a5,sp,1008
    80006062:	55a9                	li	a1,-22
    80006064:	5646a03f 2d08d921 	.insn	8, 0x2d08d9215646a03f
    8000606c:	a5cd                	j	8000674e <input_data+0x1b06>
    8000606e:	7f02                	ld	t5,32(sp)
    80006070:	fa38                	sd	a4,112(a2)
    80006072:	6d62                	ld	s10,24(sp)
    80006074:	754a                	ld	a0,176(sp)
    80006076:	89185c3f 35c46e96 	.insn	8, 0x35c46e9689185c3f
    8000607e:	398c                	fld	fa1,48(a1)
    80006080:	d6ad                	beqz	a3,80005fea <input_data+0x13a2>
    80006082:	2812                	fld	fa6,256(sp)
    80006084:	3aae                	fld	fs5,232(sp)
    80006086:	0ae2                	sll	s5,s5,0x18
    80006088:	8aa1                	and	a3,a3,8
    8000608a:	0ce6                	sll	s9,s9,0x19
    8000608c:	aeb6                	fsd	fa3,344(sp)
    8000608e:	4ef5                	li	t4,29
    80006090:	463a                	lw	a2,140(sp)
    80006092:	443a                	lw	s0,140(sp)
    80006094:	2e78                	fld	fa4,216(a2)
    80006096:	1b16                	sll	s6,s6,0x25
    80006098:	48bfb5ef          	jal	a1,80101d22 <_tbss_end+0xf905e>
    8000609c:	e4a2                	sd	s0,72(sp)
    8000609e:	5aa6                	lw	s5,104(sp)
    800060a0:	d36e                	sw	s11,164(sp)
    800060a2:	6b25                	lui	s6,0x9
    800060a4:	f286                	sd	ra,352(sp)
    800060a6:	5e79                	li	t3,-2
    800060a8:	2c50                	fld	fa2,152(s0)
    800060aa:	2f82                	fld	ft11,0(sp)
    800060ac:	9de8                	.insn	2, 0x9de8
    800060ae:	6c91                	lui	s9,0x4
    800060b0:	e55e                	sd	s7,136(sp)
    800060b2:	68357ed7          	vsetvli	t4,a0,1667
    800060b6:	3a04                	fld	fs1,48(a2)
    800060b8:	cef1                	beqz	a3,80006194 <input_data+0x154c>
    800060ba:	3b1e                	fld	fs6,480(sp)
    800060bc:	a34d                	j	8000665e <input_data+0x1a16>
    800060be:	2880                	fld	fs0,16(s1)
    800060c0:	74ec5c83          	lhu	s9,1870(s8)
    800060c4:	5531                	li	a0,-20
    800060c6:	7cd2                	ld	s9,304(sp)
    800060c8:	1753184b          	.insn	4, 0x1753184b
    800060cc:	8e1a                	mv	t3,t1
    800060ce:	5fa0                	lw	s0,120(a5)
    800060d0:	e330                	sd	a2,64(a4)
    800060d2:	2262                	fld	ft4,24(sp)
    800060d4:	436d                	li	t1,27
    800060d6:	6610                	ld	a2,8(a2)
    800060d8:	e22a                	sd	a0,256(sp)
    800060da:	1488                	add	a0,sp,608
    800060dc:	1664                	add	s1,sp,812
    800060de:	42ec                	lw	a1,68(a3)
    800060e0:	62e38bab          	.insn	4, 0x62e38bab
    800060e4:	2e2c                	fld	fa1,88(a2)
    800060e6:	4f35                	li	t5,13
    800060e8:	4258                	lw	a4,4(a2)
    800060ea:	02e8                	add	a0,sp,332
    800060ec:	c368                	sw	a0,68(a4)
    800060ee:	f5ee0ebf ae3b6d70 	.insn	8, 0xae3b6d70f5ee0ebf
    800060f6:	5d39                	li	s10,-18
    800060f8:	47ea                	lw	a5,152(sp)
    800060fa:	52a2                	lw	t0,40(sp)
    800060fc:	000d                	c.nop	3
    800060fe:	1cf5                	add	s9,s9,-3 # 3ffd <buflen.1+0x3fbd>
    80006100:	d6fc                	sw	a5,108(a3)
    80006102:	0234                	add	a3,sp,264
    80006104:	7742                	ld	a4,48(sp)
    80006106:	1540                	add	s0,sp,676
    80006108:	0326                	sll	t1,t1,0x9
    8000610a:	63de                	ld	t2,464(sp)
    8000610c:	19a2b58b          	.insn	4, 0x19a2b58b
    80006110:	5bd8                	lw	a4,52(a5)
    80006112:	182e74c7          	fmsub.s	fs1,ft8,ft2,ft3
    80006116:	6a60                	ld	s0,208(a2)
    80006118:	6d9de20f          	.insn	4, 0x6d9de20f
    8000611c:	ae28                	fsd	fa0,88(a2)
    8000611e:	5f21                	li	t5,-24
    80006120:	119f8227          	.insn	4, 0x119f8227
    80006124:	10d2                	sll	ra,ra,0x34
    80006126:	0b8f180b          	.insn	4, 0x0b8f180b
    8000612a:	7e0a                	ld	t3,160(sp)
    8000612c:	2220                	fld	fs0,64(a2)
    8000612e:	5a55                	li	s4,-11
    80006130:	2062                	fld	ft0,24(sp)
    80006132:	5be2                	lw	s7,56(sp)
    80006134:	56126e87          	.insn	4, 0x56126e87
    80006138:	0341                	add	t1,t1,16
    8000613a:	486d                	li	a6,27
    8000613c:	f0a0                	sd	s0,96(s1)
    8000613e:	f7b7649b          	.insn	4, 0xf7b7649b
    80006142:	5c26                	lw	s8,104(sp)
    80006144:	420c                	lw	a1,0(a2)
    80006146:	7190                	ld	a2,32(a1)
    80006148:	7fd8                	ld	a4,184(a5)
    8000614a:	207a                	fld	ft0,408(sp)
    8000614c:	26e9                	addw	a3,a3,26
    8000614e:	7b55                	lui	s6,0xffff5
    80006150:	c97d                	beqz	a0,80006246 <input_data+0x15fe>
    80006152:	64a6                	ld	s1,72(sp)
    80006154:	6075                	c.lui	zero,0x1d
    80006156:	544a                	lw	s0,176(sp)
    80006158:	13ccfe2f          	.insn	4, 0x13ccfe2f
    8000615c:	25aa979b          	.insn	4, 0x25aa979b
    80006160:	193b0a53          	fdiv.s	fs4,fs6,fs3,rne
    80006164:	4f730137          	lui	sp,0x4f730
    80006168:	3aed                	addw	s5,s5,-5 # dffb <buflen.1+0xdfbb>
    8000616a:	2085                	addw	ra,ra,1
    8000616c:	6408                	ld	a0,8(s0)
    8000616e:	127e                	sll	tp,tp,0x3f
    80006170:	6cd4                	ld	a3,152(s1)
    80006172:	eb5f3947          	fmsub.d	fs2,ft10,fs5,ft9,rup
    80006176:	5cd41633          	.insn	4, 0x5cd41633
    8000617a:	79c3733f 1df96604 	.insn	8, 0x1df9660479c3733f
    80006182:	03e500af          	.insn	4, 0x03e500af
    80006186:	094a                	sll	s2,s2,0x12
    80006188:	29c439a7          	fsd	ft8,659(s0)
    8000618c:	263e                	fld	fa2,456(sp)
    8000618e:	56df 2d0a 4efb      	.insn	6, 0x4efb2d0a56df
    80006194:	2f1a                	fld	ft10,384(sp)
    80006196:	0a42                	sll	s4,s4,0x10
    80006198:	bfb6                	fsd	fa3,504(sp)
    8000619a:	2799                	addw	a5,a5,6 # fffffffff9ef6006 <_tbss_end+0xffffffff79eed342>
    8000619c:	65a60287          	vluxseg4ei8.v	v5,(a2),v26,v0.t
    800061a0:	3942                	fld	fs2,48(sp)
    800061a2:	1675                	add	a2,a2,-3
    800061a4:	973c                	.insn	2, 0x973c
    800061a6:	57c5                	li	a5,-15
    800061a8:	2e08                	fld	fa0,24(a2)
    800061aa:	147c                	add	a5,sp,556
    800061ac:	9932                	add	s2,s2,a2
    800061ae:	51b0                	lw	a2,96(a1)
    800061b0:	1efe                	sll	t4,t4,0x3f
    800061b2:	0fd1                	add	t6,t6,20
    800061b4:	8a2c                	.insn	2, 0x8a2c
    800061b6:	7bf2                	ld	s7,312(sp)
    800061b8:	6522                	ld	a0,8(sp)
    800061ba:	6b7a                	ld	s6,408(sp)
    800061bc:	4855                	li	a6,21
    800061be:	1ef2                	sll	t4,t4,0x3c
    800061c0:	fea1                	bnez	a3,80006118 <input_data+0x14d0>
    800061c2:	5bb1                	li	s7,-20
    800061c4:	4038                	lw	a4,64(s0)
    800061c6:	7320                	ld	s0,96(a4)
    800061c8:	3a7a                	fld	fs4,440(sp)
    800061ca:	468a                	lw	a3,128(sp)
    800061cc:	58cb01ab          	.insn	4, 0x58cb01ab
    800061d0:	9709                	sra	a4,a4,0x22
    800061d2:	1d82                	sll	s11,s11,0x20
    800061d4:	2fbefe13          	and	t3,t4,763
    800061d8:	5874                	lw	a3,116(s0)
    800061da:	0a8e                	sll	s5,s5,0x3
    800061dc:	4d08aadb          	.insn	4, 0x4d08aadb
    800061e0:	8da5                	xor	a1,a1,s1
    800061e2:	505e                	.insn	2, 0x505e
    800061e4:	5c6b23e3          	.insn	4, 0x5c6b23e3
    800061e8:	d515                	beqz	a0,80006114 <input_data+0x14cc>
    800061ea:	2995                	addw	s3,s3,5 # ffffffffffff5005 <_tbss_end+0xffffffff7ffec341>
    800061ec:	ffd4                	sd	a3,184(a5)
    800061ee:	330e                	fld	ft6,224(sp)
    800061f0:	76c9de3b          	.insn	4, 0x76c9de3b
    800061f4:	db78                	sw	a4,116(a4)
    800061f6:	46e0                	lw	s0,76(a3)
    800061f8:	0d36494b          	.insn	4, 0x0d36494b
    800061fc:	0957f94f          	fnmadd.s	fs2,fa5,fs5,ft1
    80006200:	4c36                	lw	s8,76(sp)
    80006202:	024d                	add	tp,tp,19 # 13 <buf.2+0x13>
    80006204:	379a                	fld	fa5,416(sp)
    80006206:	d2d71667          	.insn	4, 0xd2d71667
    8000620a:	d9767be3          	bgeu	a2,s7,80005fa0 <input_data+0x1358>
    8000620e:	7d5c                	ld	a5,184(a0)
    80006210:	14624fa3          	.insn	4, 0x14624fa3
    80006214:	29a4b67b          	.insn	4, 0x29a4b67b
    80006218:	0ad6                	sll	s5,s5,0x15
    8000621a:	20a316b7          	lui	a3,0x20a31
    8000621e:	4798                	lw	a4,8(a5)
    80006220:	97d2                	add	a5,a5,s4
    80006222:	4c06                	lw	s8,64(sp)
    80006224:	394c                	fld	fa1,176(a0)
    80006226:	17bc                	add	a5,sp,1000
    80006228:	2fc79aeb          	.insn	4, 0x2fc79aeb
    8000622c:	cc41                	beqz	s0,800062c4 <input_data+0x167c>
    8000622e:	40d2                	lw	ra,20(sp)
    80006230:	dd86                	sw	ra,248(sp)
    80006232:	3276                	fld	ft4,376(sp)
    80006234:	a2ea                	fsd	fs10,320(sp)
    80006236:	6e30                	ld	a2,88(a2)
    80006238:	4cc2bb0b          	.insn	4, 0x4cc2bb0b
    8000623c:	537361cf          	fnmadd.d	ft3,ft6,fs7,fa0,unknown
    80006240:	5ed6                	lw	t4,116(sp)
    80006242:	5f92                	lw	t6,36(sp)
    80006244:	6fb9                	lui	t6,0xe
    80006246:	497e                	lw	s2,220(sp)
    80006248:	81e5                	srl	a1,a1,0x19
    8000624a:	6803304f          	fnmadd.s	ft0,ft6,ft0,fa3,rup
    8000624e:	fea4292b          	.insn	4, 0xfea4292b
    80006252:	b88a6ee3          	bltu	s4,s0,80005dee <input_data+0x11a6>
    80006256:	2cbd                	addw	s9,s9,15
    80006258:	91ec                	.insn	2, 0x91ec
    8000625a:	100b4bc7          	fmsub.s	fs7,fs6,ft0,ft2,rmm
    8000625e:	3348                	fld	fa0,160(a4)
    80006260:	a1b8                	fsd	fa4,64(a1)
    80006262:	32b546e3          	blt	a0,a1,80006d8e <scratch.0+0x146>
    80006266:	7214                	ld	a3,32(a2)
    80006268:	4d02                	lw	s10,0(sp)
    8000626a:	3869                	addw	a6,a6,-6
    8000626c:	f0ee                	sd	s11,96(sp)
    8000626e:	6c34                	ld	a3,88(s0)
    80006270:	0379                	add	t1,t1,30
    80006272:	2c52                	fld	fs8,272(sp)
    80006274:	df4c                	sw	a1,60(a4)
    80006276:	7165                	add	sp,sp,-400
    80006278:	58c2                	lw	a7,48(sp)
    8000627a:	4c11                	li	s8,4
    8000627c:	d711                	beqz	a4,80006188 <input_data+0x1540>
    8000627e:	dc48778b          	.insn	4, 0xdc48778b
    80006282:	253a                	fld	fa0,392(sp)
    80006284:	3b66                	fld	fs6,120(sp)
    80006286:	7dac                	ld	a1,120(a1)
    80006288:	dd6a                	sw	s10,184(sp)
    8000628a:	c9d6745b          	.insn	4, 0xc9d6745b
    8000628e:	397a                	fld	fs2,440(sp)
    80006290:	d378                	sw	a4,100(a4)
    80006292:	45cc                	lw	a1,12(a1)
    80006294:	7ec6e397          	auipc	t2,0x7ec6e
    80006298:	8964                	.insn	2, 0x8964
    8000629a:	306a                	fld	ft0,184(sp)
    8000629c:	895f 0679 56ec      	.insn	6, 0x56ec0679895f
    800062a2:	3a74                	fld	fa3,240(a2)
    800062a4:	bc82                	fsd	ft0,120(sp)
    800062a6:	2a95                	addw	s5,s5,5
    800062a8:	6413036f          	jal	t1,800370e8 <_tbss_end+0x2e424>
    800062ac:	e670                	sd	a2,200(a2)
    800062ae:	7359                	lui	t1,0xffff6
    800062b0:	0e1e124f          	.insn	4, 0x0e1e124f
    800062b4:	d285                	beqz	a3,800061d4 <input_data+0x158c>
    800062b6:	156e5bdb          	.insn	4, 0x156e5bdb
    800062ba:	3f8a                	fld	ft11,160(sp)
    800062bc:	7672                	ld	a2,312(sp)
    800062be:	5fd2                	lw	t6,52(sp)
    800062c0:	5fea                	lw	t6,184(sp)
    800062c2:	429272d7          	vsetvli	t0,tp,1065
    800062c6:	79cd38eb          	.insn	4, 0x79cd38eb
    800062ca:	675a                	ld	a4,400(sp)
    800062cc:	4595                	li	a1,5
    800062ce:	00d9                	add	ra,ra,22
    800062d0:	ad26                	fsd	fs1,152(sp)
    800062d2:	59ce                	lw	s3,240(sp)
    800062d4:	9e1e                	add	t3,t3,t2
    800062d6:	328d                	addw	t0,t0,-29
    800062d8:	d58c                	sw	a1,40(a1)
    800062da:	463a                	lw	a2,140(sp)
    800062dc:	490d                	li	s2,3
    800062de:	249c                	fld	fa5,8(s1)
    800062e0:	6ca0                	ld	s0,88(s1)
    800062e2:	5c312b9b          	.insn	4, 0x5c312b9b
    800062e6:	5a21                	li	s4,-24
    800062e8:	08ea                	sll	a7,a7,0x1a
    800062ea:	03c5                	add	t2,t2,17 # fec742a5 <_tbss_end+0x7ec6b5e1>
    800062ec:	737c                	ld	a5,224(a4)
    800062ee:	cfe139bf 099e6a54 	.insn	8, 0x099e6a54cfe139bf
    800062f6:	539c                	lw	a5,32(a5)
    800062f8:	a0ae                	fsd	fa1,64(sp)
    800062fa:	50c9                	li	ra,-14
    800062fc:	62e46d6f          	jal	s10,8004c92a <_tbss_end+0x43c66>
    80006300:	22c2                	fld	ft5,16(sp)
    80006302:	45f8                	lw	a4,76(a1)
    80006304:	0a4d                	add	s4,s4,19
    80006306:	3e2a                	fld	ft8,168(sp)
    80006308:	d214                	sw	a3,32(a2)
    8000630a:	4e9c                	lw	a5,24(a3)
    8000630c:	1402                	sll	s0,s0,0x20
    8000630e:	447e                	lw	s0,220(sp)
    80006310:	7c93425b          	.insn	4, 0x7c93425b
    80006314:	ddb4                	sw	a3,120(a1)
    80006316:	479f 0b53 0ee7      	.insn	6, 0x0ee70b53479f
    8000631c:	ffa0                	sd	s0,120(a5)
    8000631e:	3db1                	addw	s11,s11,-20 # 6d708042 <buflen.1+0x6d708002>
    80006320:	49a5                	li	s3,9
    80006322:	2835                	addw	a6,a6,13
    80006324:	f865                	bnez	s0,80006314 <input_data+0x16cc>
    80006326:	40fd                	li	ra,31
    80006328:	73d9c2c7          	fmsub.d	ft5,fs3,ft9,fa4,rmm
    8000632c:	74e5                	lui	s1,0xffff9
    8000632e:	37ac                	fld	fa1,104(a5)
    80006330:	7c6f2dab          	.insn	4, 0x7c6f2dab
    80006334:	64c0                	ld	s0,136(s1)
    80006336:	cec02c07          	flw	fs8,-788(zero) # fffffffffffffcec <_tbss_end+0xffffffff7fff7028>
    8000633a:	4dc9                	li	s11,18
    8000633c:	41a4                	lw	s1,64(a1)
    8000633e:	a371056f          	jal	a0,7ff16d74 <buflen.1+0x7ff16d34>
    80006342:	7cc865cf          	.insn	4, 0x7cc865cf
    80006346:	647c                	ld	a5,200(s0)
    80006348:	15bb2fe7          	.insn	4, 0x15bb2fe7
    8000634c:	6eea2803          	lw	a6,1774(s4)
    80006350:	4961                	li	s2,24
    80006352:	72e1                	lui	t0,0xffff8
    80006354:	360e2f13          	slti	t5,t3,864
    80006358:	40fed847          	fmsub.s	fa6,ft9,fa5,fs0,unknown
    8000635c:	99c5                	and	a1,a1,-15
    8000635e:	ae6e3533          	.insn	4, 0xae6e3533
    80006362:	60db7567          	.insn	4, 0x60db7567
    80006366:	98ff6fb3          	.insn	4, 0x98ff6fb3
    8000636a:	3741                	addw	a4,a4,-16 # ffffffffffff0ff0 <_tbss_end+0xffffffff7ffe832c>
    8000636c:	a5a0                	fsd	fs0,72(a1)
    8000636e:	4522                	lw	a0,8(sp)
    80006370:	70c8                	ld	a0,160(s1)
    80006372:	1f332b87          	flw	fs7,499(t1) # ffffffffffff61f3 <_tbss_end+0xffffffff7ffed52f>
    80006376:	14d1                	add	s1,s1,-12 # ffffffffffff8ff4 <_tbss_end+0xffffffff7fff0330>
    80006378:	12f40083          	lb	ra,303(s0)
    8000637c:	18cd                	add	a7,a7,-13 # fffffffffffe1ff3 <_tbss_end+0xffffffff7ffd932f>
    8000637e:	4e3b0d77          	.insn	4, 0x4e3b0d77
    80006382:	71531ccf          	fnmadd.s	fs9,ft6,fs5,fa4,rtz
    80006386:	938a3dbf f69e0e65 	.insn	8, 0xf69e0e65938a3dbf
    8000638e:	4c4a                	lw	s8,144(sp)
    80006390:	4a5ba023          	sw	t0,1184(s7)
    80006394:	be14                	fsd	fa3,56(a2)
    80006396:	6a980ebf 88496aea 	.insn	8, 0x88496aea6a980ebf
    8000639e:	2cd8                	fld	fa4,152(s1)
    800063a0:	112b5d0f          	.insn	4, 0x112b5d0f
    800063a4:	d676                	sw	t4,44(sp)
    800063a6:	7b96                	ld	s7,352(sp)
    800063a8:	7988de27          	.insn	4, 0x7988de27
    800063ac:	24d266c3          	.insn	4, 0x24d266c3
    800063b0:	59f1                	li	s3,-4
    800063b2:	19d5                	add	s3,s3,-11
    800063b4:	d75f 1dcb 8b75      	.insn	6, 0x8b751dcbd75f
    800063ba:	3e9d                	addw	t4,t4,-25
    800063bc:	13bf00c7          	fmsub.d	ft1,ft10,fs11,ft2,rne
    800063c0:	24ff 32be 345f 4d2e 	.insn	14, 0x3ef5663e9be54d2e345f32be24ff
    800063c8:	9be5 663e 3ef5 
    800063ce:	451f 742a 3d5a      	.insn	6, 0x3d5a742a451f
    800063d4:	5dae                	lw	s11,232(sp)
    800063d6:	78d8                	ld	a4,176(s1)
    800063d8:	628bd913          	.insn	4, 0x628bd913
    800063dc:	6fc00817          	auipc	a6,0x6fc00
    800063e0:	c139                	beqz	a0,80006426 <input_data+0x17de>
    800063e2:	9338498f          	.insn	4, 0x9338498f
    800063e6:	0f89                	add	t6,t6,2 # e002 <buflen.1+0xdfc2>
    800063e8:	3e27b777          	.insn	4, 0x3e27b777
    800063ec:	8780                	vmsge.vx	v15,v0,ra,v0.t
    800063ee:	5390                	lw	a2,32(a5)
    800063f0:	4d81                	li	s11,0
    800063f2:	2b84                	fld	fs1,16(a5)
    800063f4:	96cd                	sra	a3,a3,0x33
    800063f6:	6808                	ld	a0,16(s0)
    800063f8:	21b4                	fld	fa3,64(a1)
    800063fa:	5c6e                	lw	s8,248(sp)
    800063fc:	378e                	fld	fa5,224(sp)
    800063fe:	67435fd3          	.insn	4, 0x67435fd3
    80006402:	39c9                	addw	s3,s3,-14
    80006404:	0f7c                	add	a5,sp,924
    80006406:	2e6a                	fld	ft8,152(sp)
    80006408:	6e7e                	ld	t3,472(sp)
    8000640a:	6940                	ld	s0,144(a0)
    8000640c:	d24e                	sw	s3,36(sp)
    8000640e:	2b9d                	addw	s7,s7,7
    80006410:	6aa2                	ld	s5,8(sp)
    80006412:	5f5e                	lw	t5,244(sp)
    80006414:	8ffa                	mv	t6,t5
    80006416:	74b0                	ld	a2,104(s1)
    80006418:	000a8b27          	vse8.v	v22,(s5),v0.t
    8000641c:	6a3e                	ld	s4,456(sp)
    8000641e:	1a7c                	add	a5,sp,316
    80006420:	4c38983f 4969523d 	.insn	8, 0x4969523d4c38983f
    80006428:	04c5                	add	s1,s1,17
    8000642a:	239c                	fld	fa5,0(a5)
    8000642c:	0d2d                	add	s10,s10,11 # 1700b <buflen.1+0x16fcb>
    8000642e:	40ce                	lw	ra,208(sp)
    80006430:	0f637b73          	csrrc	s6,0xf6,6
    80006434:	da26                	sw	s1,52(sp)
    80006436:	3a007cc7          	fmsub.d	fs9,ft0,ft0,ft7
    8000643a:	5730                	lw	a2,104(a4)
    8000643c:	7b35733f 610f3a28 	.insn	8, 0x610f3a287b35733f
    80006444:	2d73d15b          	.insn	4, 0x2d73d15b
    80006448:	9f7d                	.insn	2, 0x9f7d
    8000644a:	5c0d472b          	.insn	4, 0x5c0d472b
    8000644e:	505e                	.insn	2, 0x505e
    80006450:	c854                	sw	a3,20(s0)
    80006452:	6c9d                	lui	s9,0x7
    80006454:	8e32                	mv	t3,a2
    80006456:	6cdf a0e2 4248      	.insn	6, 0x4248a0e26cdf
    8000645c:	5be8                	lw	a0,116(a5)
    8000645e:	7c80                	ld	s0,56(s1)
    80006460:	9914                	.insn	2, 0x9914
    80006462:	3095                	addw	ra,ra,-27
    80006464:	d7c8                	sw	a0,44(a5)
    80006466:	74b2                	ld	s1,296(sp)
    80006468:	4885                	li	a7,1
    8000646a:	40cd                	li	ra,19
    8000646c:	3491fb3f 73f00760 	.insn	8, 0x73f007603491fb3f
    80006474:	9932                	add	s2,s2,a2
    80006476:	62bc                	ld	a5,64(a3)
    80006478:	1f8b77b7          	lui	a5,0x1f8b7
    8000647c:	082b2a17          	auipc	s4,0x82b2
    80006480:	5071                	c.li	zero,-4
    80006482:	55cb1f23          	sh	t3,1374(s6) # ffffffffffff555e <_tbss_end+0xffffffff7ffec89a>
    80006486:	19a67017          	auipc	zero,0x19a67
    8000648a:	3280                	fld	fs0,32(a3)
    8000648c:	29b6                	fld	fs3,328(sp)
    8000648e:	32c4                	fld	fs1,160(a3)
    80006490:	99ac                	.insn	2, 0x99ac
    80006492:	50ad372b          	.insn	4, 0x50ad372b
    80006496:	5af33dd7          	.insn	4, 0x5af33dd7
    8000649a:	1b82                	sll	s7,s7,0x20
    8000649c:	2e64                	fld	fs1,216(a2)
    8000649e:	4f6e                	lw	t5,216(sp)
    800064a0:	1c49                	add	s8,s8,-14
    800064a2:	1f54                	add	a3,sp,948
    800064a4:	52d6793b          	.insn	4, 0x52d6793b
    800064a8:	8fd1                	or	a5,a5,a2
    800064aa:	433a                	lw	t1,140(sp)
    800064ac:	1b49                	add	s6,s6,-14
    800064ae:	4775                	li	a4,29
    800064b0:	3085                	addw	ra,ra,-31
    800064b2:	3339                	addw	t1,t1,-18
    800064b4:	4eda                	lw	t4,148(sp)
    800064b6:	2a21                	addw	s4,s4,8 # ffffffff882b8484 <_tbss_end+0xffffffff082af7c0>
    800064b8:	12d6                	sll	t0,t0,0x35
    800064ba:	1629                	add	a2,a2,-22
    800064bc:	da71                	beqz	a2,80006490 <input_data+0x1848>
    800064be:	08ad                	add	a7,a7,11
    800064c0:	9280                	vmsge.vx	v5,v0,ra,v0.t
    800064c2:	270d                	addw	a4,a4,3
    800064c4:	71490dbf 4f800661 	.insn	8, 0x4f80066171490dbf
    800064cc:	41aaf2ef          	jal	t0,800b58e6 <_tbss_end+0xacc22>
    800064d0:	dab4                	sw	a3,112(a3)
    800064d2:	4c38                	lw	a4,88(s0)
    800064d4:	7c9296e3          	bne	t0,s1,800074a0 <__global_pointer$+0x58>
    800064d8:	82a8                	.insn	2, 0x82a8
    800064da:	1f1d4497          	auipc	s1,0x1f1d4
    800064de:	00c9                	add	ra,ra,18
    800064e0:	c412                	sw	tp,8(sp)
    800064e2:	598a                	lw	s3,160(sp)
    800064e4:	a514                	fsd	fa3,8(a0)
    800064e6:	41be                	lw	gp,204(sp)
    800064e8:	5a5e                	lw	s4,244(sp)
    800064ea:	1472                	sll	s0,s0,0x3c
    800064ec:	c500                	sw	s0,8(a0)
    800064ee:	711f 79bb 601e      	.insn	6, 0x601e79bb711f
    800064f4:	0125                	add	sp,sp,9 # 4f730009 <buflen.1+0x4f72ffc9>
    800064f6:	481f 3ffd 67c2      	.insn	6, 0x67c23ffd481f
    800064fc:	52ca                	lw	t0,176(sp)
    800064fe:	61fd                	lui	gp,0x1f
    80006500:	c658                	sw	a4,12(a2)
    80006502:	3a42                	fld	fs4,48(sp)
    80006504:	8746                	mv	a4,a7
    80006506:	2ef5                	addw	t4,t4,29
    80006508:	b5b6                	fsd	fa3,232(sp)
    8000650a:	09bc                	add	a5,sp,216
    8000650c:	a17a                	fsd	ft10,128(sp)
    8000650e:	40d5                	li	ra,21
    80006510:	9f16                	add	t5,t5,t0
    80006512:	ef6e0bef          	jal	s7,7ffe6c08 <buflen.1+0x7ffe6bc8>
    80006516:	64d4                	ld	a3,136(s1)
    80006518:	d1f1                	beqz	a1,800064dc <input_data+0x1894>
    8000651a:	157e                	sll	a0,a0,0x3f
    8000651c:	9f9f 6a88 2442      	.insn	6, 0x24426a889f9f
    80006522:	021f 6af4 3108      	.insn	6, 0x31086af4021f
    80006528:	8282                	jr	t0
    8000652a:	6d54                	ld	a3,152(a0)
    8000652c:	a63a                	fsd	fa4,264(sp)
    8000652e:	51c9                	li	gp,-14
    80006530:	d17c                	sw	a5,100(a0)
    80006532:	493e3f67          	.insn	4, 0x493e3f67
    80006536:	3a06                	fld	fs4,96(sp)
    80006538:	2998986b          	.insn	4, 0x2998986b
    8000653c:	f9c1                	bnez	a1,800064cc <input_data+0x1884>
    8000653e:	379b0953          	.insn	4, 0x379b0953
    80006542:	f5910a17          	auipc	s4,0xf5910
    80006546:	0ac2                	sll	s5,s5,0x10
    80006548:	8648                	.insn	2, 0x8648
    8000654a:	06ad                	add	a3,a3,11 # 20a3100b <buflen.1+0x20a30fcb>
    8000654c:	079f193f 0e683a1d 	.insn	8, 0x0e683a1d079f193f
    80006554:	c005                	beqz	s0,80006574 <input_data+0x192c>
    80006556:	777c                	ld	a5,232(a4)
    80006558:	01635b5b          	.insn	4, 0x01635b5b
    8000655c:	770d9d97          	auipc	s11,0x770d9
    80006560:	6a49                	lui	s4,0x12
    80006562:	2be5                	addw	s7,s7,25
    80006564:	039c                	add	a5,sp,448
    80006566:	766e                	ld	a2,248(sp)
    80006568:	2534                	fld	fa3,72(a0)
    8000656a:	5d9e                	lw	s11,228(sp)
    8000656c:	8ae9                	and	a3,a3,26
    8000656e:	b9e37b3b          	.insn	4, 0xb9e37b3b
    80006572:	5b6b5737          	lui	a4,0x5b6b5
    80006576:	08da                	sll	a7,a7,0x16
    80006578:	81fd                	srl	a1,a1,0x1f
    8000657a:	24d8                	fld	fa4,136(s1)
    8000657c:	160e                	sll	a2,a2,0x23
    8000657e:	663d                	lui	a2,0xf
    80006580:	7b2b5f8b          	.insn	4, 0x7b2b5f8b
    80006584:	b8ee                	fsd	fs11,112(sp)
    80006586:	7e44                	ld	s1,184(a2)
    80006588:	cd60                	sw	s0,92(a0)
    8000658a:	0bd0                	add	a2,sp,468
    8000658c:	003e                	c.slli	zero,0xf
    8000658e:	6d6d                	lui	s10,0x1b
    80006590:	503866b3          	.insn	4, 0x503866b3
    80006594:	4d82                	lw	s11,0(sp)
    80006596:	f2147167          	.insn	4, 0xf2147167
    8000659a:	cad274eb          	.insn	4, 0xcad274eb
    8000659e:	4cf9                	li	s9,30
    800065a0:	4efa053b          	.insn	4, 0x4efa053b
    800065a4:	58ee                	lw	a7,248(sp)
    800065a6:	8a0b31e3          	.insn	4, 0x8a0b31e3
    800065aa:	25246e3f 70ab1dd3 	.insn	8, 0x70ab1dd325246e3f
    800065b2:	0f155f57          	.insn	4, 0x0f155f57
    800065b6:	65ae                	ld	a1,200(sp)
    800065b8:	9731                	sra	a4,a4,0x2c
    800065ba:	5f65                	li	t5,-7
    800065bc:	1692                	sll	a3,a3,0x24
    800065be:	170d                	add	a4,a4,-29 # 5b6b4fe3 <buflen.1+0x5b6b4fa3>
    800065c0:	8d0c                	.insn	2, 0x8d0c
    800065c2:	3d52                	fld	fs10,304(sp)
    800065c4:	e6d2                	sd	s4,328(sp)
    800065c6:	6320                	ld	s0,64(a4)
    800065c8:	4ed6bee3          	.insn	4, 0x4ed6bee3
    800065cc:	86a0                	vmsge.vx	v13,v0,ra,v0.t
    800065ce:	5864                	lw	s1,116(s0)
    800065d0:	411c6f63          	bltu	s8,a7,800069ee <input_data+0x1da6>
    800065d4:	c3dd                	beqz	a5,8000667a <input_data+0x1a32>
    800065d6:	6366                	ld	t1,88(sp)
    800065d8:	91ec                	.insn	2, 0x91ec
    800065da:	752c                	ld	a1,104(a0)
    800065dc:	e53c                	sd	a5,72(a0)
    800065de:	3f68                	fld	fa0,248(a4)
    800065e0:	67d54dcb          	.insn	4, 0x67d54dcb
    800065e4:	8de8                	.insn	2, 0x8de8
    800065e6:	11e4                	add	s1,sp,236
    800065e8:	0b3d                	add	s6,s6,15
    800065ea:	24fc                	fld	fa5,200(s1)
    800065ec:	d51d                	beqz	a0,8000651a <input_data+0x18d2>
    800065ee:	1e08                	add	a0,sp,816
    800065f0:	172d                	add	a4,a4,-21
    800065f2:	7cdd                	lui	s9,0xffff7
    800065f4:	3752e6c7          	.insn	4, 0x3752e6c7
    800065f8:	0f29                	add	t5,t5,10
    800065fa:	1091                	add	ra,ra,-28
    800065fc:	da45                	beqz	a2,800065ac <input_data+0x1964>
    800065fe:	8c9f63fb          	.insn	4, 0x8c9f63fb
    80006602:	d1cb4a73          	.insn	4, 0xd1cb4a73
    80006606:	55582fa7          	fsw	fs5,1375(a6) # efc0693b <_tbss_end+0x6fbfdc77>
    8000660a:	4656                	lw	a2,84(sp)
    8000660c:	02e12ea7          	fsw	fa4,61(sp)
    80006610:	6f3a5657          	vmflt.vf	v12,v19,fs4
    80006614:	53ca3e2f          	.insn	4, 0x53ca3e2f
    80006618:	c751                	beqz	a4,800066a4 <input_data+0x1a5c>
    8000661a:	7dc1                	lui	s11,0xffff0
    8000661c:	fee2                	sd	s8,376(sp)
    8000661e:	2e4b5f0b          	.insn	4, 0x2e4b5f0b
    80006622:	2299                	addw	t0,t0,6 # ffffffffffff8006 <_tbss_end+0xffffffff7ffef342>
    80006624:	86aa                	mv	a3,a0
    80006626:	6876                	ld	a6,344(sp)
    80006628:	fda0                	sd	s0,120(a1)
    8000662a:	712a4fd3          	.insn	4, 0x712a4fd3
    8000662e:	da6636f7          	.insn	4, 0xda6636f7
    80006632:	182653ab          	.insn	4, 0x182653ab
    80006636:	11da                	sll	gp,gp,0x36
    80006638:	259f 503a f848      	.insn	6, 0xf848503a259f
    8000663e:	4d60                	lw	s0,92(a0)
    80006640:	5068                	lw	a0,100(s0)
    80006642:	91897ee3          	bgeu	s2,s8,80005f5e <input_data+0x1316>
    80006646:	285d                	addw	a6,a6,23
    80006648:	318c39e7          	.insn	4, 0x318c39e7
    8000664c:	94b8                	.insn	2, 0x94b8
    8000664e:	2c2d                	addw	s8,s8,11
    80006650:	297efd5b          	.insn	4, 0x297efd5b
    80006654:	ceae                	sw	a1,92(sp)
    80006656:	175271f7          	.insn	4, 0x175271f7
    8000665a:	3c96                	fld	fs9,352(sp)
    8000665c:	c5f0                	sw	a2,76(a1)
    8000665e:	28a6                	fld	fa7,72(sp)
    80006660:	caae                	sw	a1,84(sp)
    80006662:	1518                	add	a4,sp,672
    80006664:	7078                	ld	a4,224(s0)
    80006666:	2159                	addw	sp,sp,22
    80006668:	98ac                	.insn	2, 0x98ac
    8000666a:	1eb8                	add	a4,sp,888
    8000666c:	0dc0                	add	s0,sp,724
    8000666e:	6e66                	ld	t3,88(sp)
    80006670:	184e1aef          	jal	s5,800e77f4 <_tbss_end+0xdeb30>
    80006674:	93fd                	srl	a5,a5,0x3f
    80006676:	82f53067          	.insn	4, 0x82f53067
    8000667a:	6ed8                	ld	a4,152(a3)
    8000667c:	07d4                	add	a3,sp,964
    8000667e:	4192                	lw	gp,4(sp)
    80006680:	9829                	and	s0,s0,-22
    80006682:	1db9                	add	s11,s11,-18 # fffffffffffeffee <_tbss_end+0xffffffff7ffe732a>
    80006684:	8add                	and	a3,a3,23
    80006686:	26f5                	addw	a3,a3,29
    80006688:	ac55                	j	8000693c <input_data+0x1cf4>
    8000668a:	37572da3          	sw	s5,891(a4)
    8000668e:	08fe                	sll	a7,a7,0x1f
    80006690:	4dd8                	lw	a4,28(a1)
    80006692:	1395                	add	t2,t2,-27
    80006694:	86b6                	mv	a3,a3
    80006696:	0498                	add	a4,sp,576
    80006698:	679c                	ld	a5,8(a5)
    8000669a:	69d1                	lui	s3,0x14
    8000669c:	ccb2                	sw	a2,88(sp)
    8000669e:	6d6e                	ld	s10,216(sp)
    800066a0:	2885                	addw	a7,a7,1
    800066a2:	2a1a                	fld	fs4,384(sp)
    800066a4:	49b0                	lw	a2,80(a1)
    800066a6:	49ed                	li	s3,27
    800066a8:	de75                	beqz	a2,800066a4 <input_data+0x1a5c>
    800066aa:	3209                	addw	tp,tp,-30 # ffffffffffffffe2 <_tbss_end+0xffffffff7fff731e>
    800066ac:	c572                	sw	t3,136(sp)
    800066ae:	95023ed3          	.insn	4, 0x95023ed3
    800066b2:	6ca9                	lui	s9,0xa
    800066b4:	29d70e33          	.insn	4, 0x29d70e33
    800066b8:	a428                	fsd	fa0,72(s0)
    800066ba:	04f0                	add	a2,sp,588
    800066bc:	e848                	sd	a0,144(s0)
    800066be:	26e2                	fld	fa3,24(sp)
    800066c0:	9944                	.insn	2, 0x9944
    800066c2:	339f f7b8 373f      	.insn	6, 0x373ff7b8339f
    800066c8:	6b08                	ld	a0,16(a4)
    800066ca:	4f09                	li	t5,2
    800066cc:	3f29                	addw	t5,t5,-22
    800066ce:	682e                	ld	a6,200(sp)
    800066d0:	60d8                	ld	a4,128(s1)
    800066d2:	7ebd45f7          	.insn	4, 0x7ebd45f7
    800066d6:	5ad6                	lw	s5,116(sp)
    800066d8:	6680                	ld	s0,8(a3)
    800066da:	1a72                	sll	s4,s4,0x3c
    800066dc:	d196                	sw	t0,224(sp)
    800066de:	31cc                	fld	fa1,160(a1)
    800066e0:	d704                	sw	s1,40(a4)
    800066e2:	0051                	c.nop	20
    800066e4:	69d2                	ld	s3,272(sp)
    800066e6:	7b48                	ld	a0,176(a4)
    800066e8:	83b4                	.insn	2, 0x83b4
    800066ea:	645e                	ld	s0,464(sp)
    800066ec:	80f5                	srl	s1,s1,0x1d
    800066ee:	7c05                	lui	s8,0xfffe1
    800066f0:	887a                	mv	a6,t5
    800066f2:	720d                	lui	tp,0xfffe3
    800066f4:	05d1                	add	a1,a1,20 # 736f3014 <buflen.1+0x736f2fd4>
    800066f6:	42d638b3          	.insn	4, 0x42d638b3
    800066fa:	6872                	ld	a6,280(sp)
    800066fc:	091f 0648 a6bb      	.insn	6, 0xa6bb0648091f
    80006702:	6a98                	ld	a4,16(a3)
    80006704:	6f2a                	ld	t5,136(sp)
    80006706:	6a89                	lui	s5,0x2
    80006708:	9b08                	.insn	2, 0x9b08
    8000670a:	5548                	lw	a0,44(a0)
    8000670c:	46f4                	lw	a3,76(a3)
    8000670e:	203e                	fld	ft0,456(sp)
    80006710:	3499a707          	flw	fa4,841(s3) # 14349 <buflen.1+0x14309>
    80006714:	de5d                	beqz	a2,800066d2 <input_data+0x1a8a>
    80006716:	292c                	fld	fa1,80(a0)
    80006718:	f2ea                	sd	s10,352(sp)
    8000671a:	0c11                	add	s8,s8,4 # fffffffffffe1004 <_tbss_end+0xffffffff7ffd8340>
    8000671c:	5f000727          	.insn	4, 0x5f000727
    80006720:	96fd                	sra	a3,a3,0x3f
    80006722:	1f98                	add	a4,sp,1008
    80006724:	0981                	add	s3,s3,0
    80006726:	1700                	add	s0,sp,928
    80006728:	3615d7bf 1695bf1f 	.insn	8, 0x1695bf1f3615d7bf
    80006730:	1b1ae0d3          	fdiv.d	ft1,fs5,fa7,unknown
    80006734:	cd00                	sw	s0,24(a0)
    80006736:	0efd                	add	t4,t4,31
    80006738:	5680bd3f 431ab1f5 	.insn	8, 0x431ab1f55680bd3f
    80006740:	d932                	sw	a2,176(sp)
    80006742:	0144                	add	s1,sp,132
    80006744:	6d64                	ld	s1,216(a0)
    80006746:	61ec                	ld	a1,192(a1)
    80006748:	2ff1affb          	.insn	4, 0x2ff1affb
    8000674c:	2399                	addw	t2,t2,6
    8000674e:	7a15                	lui	s4,0xfffe5
    80006750:	10ae                	sll	ra,ra,0x2b
    80006752:	36b0                	fld	fa2,104(a3)
    80006754:	e44c                	sd	a1,136(s0)
    80006756:	5a49                	li	s4,-14
    80006758:	8469                	sra	s0,s0,0x1a
    8000675a:	0850                	add	a2,sp,20
    8000675c:	5c12                	lw	s8,36(sp)
    8000675e:	02e24423          	.insn	4, 0x02e24423
    80006762:	ca7a06db          	.insn	4, 0xca7a06db
    80006766:	6722                	ld	a4,8(sp)
    80006768:	6133ac8b          	.insn	4, 0x6133ac8b
    8000676c:	03065ce3          	bge	a2,a6,80006fa4 <scratch.0+0x35c>
    80006770:	5d24                	lw	s1,120(a0)
    80006772:	6806                	ld	a6,64(sp)
    80006774:	4e4c9107          	.insn	4, 0x4e4c9107
    80006778:	7e40                	ld	s0,184(a2)
    8000677a:	4025                	c.li	zero,9
    8000677c:	4a88                	lw	a0,16(a3)
    8000677e:	6c7f b6ea 381d dbb7 	.insn	22, 0x2a0d35ba6d82ac1f2b0b54273014dbb7381db6ea6c7f
    80006786:	3014 5427 2b0b ac1f 
    8000678e:	6d82 35ba 2a0d 
    80006794:	ee66                	sd	s9,280(sp)
    80006796:	7c82                	ld	s9,32(sp)
    80006798:	932c                	.insn	2, 0x932c
    8000679a:	1e6d                	add	t3,t3,-5
    8000679c:	c325                	beqz	a4,800067fc <input_data+0x1bb4>
    8000679e:	0314                	add	a3,sp,384
    800067a0:	36c6                	fld	fa3,112(sp)
    800067a2:	3fa13543          	.insn	4, 0x3fa13543
    800067a6:	51e5                	li	gp,-7
    800067a8:	3eb0                	fld	fa2,120(a3)
    800067aa:	3c06                	fld	fs8,96(sp)
    800067ac:	5d55                	li	s10,-11
    800067ae:	28d4                	fld	fa3,144(s1)
    800067b0:	57b4b82b          	.insn	4, 0x57b4b82b
    800067b4:	6251                	lui	tp,0x14
    800067b6:	5cb4                	lw	a3,120(s1)
    800067b8:	6559                	lui	a0,0x16
    800067ba:	486c                	lw	a1,84(s0)
    800067bc:	a2b4                	fsd	fa3,64(a3)
    800067be:	54ed                	li	s1,-5
    800067c0:	272cdbc7          	.insn	4, 0x272cdbc7
    800067c4:	9892                	add	a7,a7,tp
    800067c6:	52f5                	li	t0,-3
    800067c8:	398d5073          	csrw	0x398,26
    800067cc:	240481ab          	.insn	4, 0x240481ab
    800067d0:	7db2                	ld	s11,296(sp)
    800067d2:	81a24c9b          	.insn	4, 0x81a24c9b
    800067d6:	145a                	sll	s0,s0,0x36
    800067d8:	0002                	c.slli64	zero
    800067da:	1189                	add	gp,gp,-30 # 1efe2 <buflen.1+0x1efa2>
    800067dc:	7b4a                	ld	s6,176(sp)
    800067de:	25be                	fld	fa1,456(sp)
    800067e0:	711c785b          	.insn	4, 0x711c785b
    800067e4:	74f4                	ld	a3,232(s1)
    800067e6:	7180                	ld	s0,32(a1)
    800067e8:	1d65                	add	s10,s10,-7 # 1aff9 <buflen.1+0x1afb9>
    800067ea:	3116                	fld	ft2,352(sp)
    800067ec:	b1aa                	fsd	fa0,224(sp)
    800067ee:	5e0d                	li	t3,-29
    800067f0:	d041                	beqz	s0,80006770 <input_data+0x1b28>
    800067f2:	7830                	ld	a2,112(s0)
    800067f4:	3c64                	fld	fs1,248(s0)
    800067f6:	6f09                	lui	t5,0x2
    800067f8:	226a2ea7          	fsw	ft6,573(s4) # fffffffffffe523d <_tbss_end+0xffffffff7ffdc579>
    800067fc:	3a76                	fld	fs4,376(sp)
    800067fe:	a14b3c5b          	.insn	4, 0xa14b3c5b
    80006802:	0ebc                	add	a5,sp,856
    80006804:	ff86                	sd	ra,504(sp)
    80006806:	746525ef          	jal	a1,80058f4c <_tbss_end+0x50288>
    8000680a:	7465                	lui	s0,0xffff9
    8000680c:	d780                	sw	s0,40(a5)
    8000680e:	564c                	lw	a1,44(a2)
    80006810:	47c4                	lw	s1,12(a5)
    80006812:	0670                	add	a2,sp,780
    80006814:	3c985217          	auipc	tp,0x3c985
    80006818:	7a0e7c57          	vsetvli	s8,t3,1952
    8000681c:	578e                	lw	a5,224(sp)
    8000681e:	3842                	fld	fa6,48(sp)
    80006820:	def5                	beqz	a3,8000681c <input_data+0x1bd4>
    80006822:	2ef0                	fld	fa2,216(a3)
    80006824:	7796                	ld	a5,352(sp)
    80006826:	00c2                	sll	ra,ra,0x10
    80006828:	127e                	sll	tp,tp,0x3f
    8000682a:	32e0                	fld	fs0,224(a3)
    8000682c:	0138                	add	a4,sp,136
    8000682e:	13e9                	add	t2,t2,-6
    80006830:	cf61                	beqz	a4,80006908 <input_data+0x1cc0>
    80006832:	0dea20fb          	.insn	4, 0x0dea20fb
    80006836:	daea40ef          	jal	7ffaade4 <buflen.1+0x7ffaada4>
    8000683a:	1dac                	add	a1,sp,760
    8000683c:	89e9                	and	a1,a1,26
    8000683e:	c6977987          	vluxseg7ei64.v	v19,(a4),v9
    80006842:	5582                	lw	a1,32(sp)
    80006844:	4ced7143          	.insn	4, 0x4ced7143
    80006848:	7e24                	ld	s1,120(a2)
    8000684a:	0486                	sll	s1,s1,0x1
    8000684c:	390b3b03          	ld	s6,912(s6)
    80006850:	7ef912b7          	lui	t0,0x7ef91
    80006854:	4b00                	lw	s0,16(a4)
    80006856:	f23d1c73          	csrrw	s8,0xf23,s10
    8000685a:	38ca                	fld	fa7,176(sp)
    8000685c:	071f 6487 fb86      	.insn	6, 0xfb866487071f
    80006862:	1b60                	add	s0,sp,444
    80006864:	ddc4                	sw	s1,60(a1)
    80006866:	2cd0                	fld	fa2,152(s1)
    80006868:	0a74                	add	a3,sp,284
    8000686a:	31d9                	addw	gp,gp,-10 # ffffffff8000743e <_tbss_end+0xfffffffeffffe77a>
    8000686c:	7171                	add	sp,sp,-176
    8000686e:	78df 5324 01b7      	.insn	6, 0x01b7532478df
    80006874:	c0ac                	sw	a1,64(s1)
    80006876:	133c                	add	a5,sp,424
    80006878:	177e                	sll	a4,a4,0x3f
    8000687a:	4f96                	lw	t6,68(sp)
    8000687c:	2eea494b          	.insn	4, 0x2eea494b
    80006880:	1870                	add	a2,sp,60
    80006882:	06c5                	add	a3,a3,17
    80006884:	db9c                	sw	a5,48(a5)
    80006886:	38ea                	fld	fa7,184(sp)
    80006888:	0276                	sll	tp,tp,0x1d
    8000688a:	4e81                	li	t4,0
    8000688c:	5bb8                	lw	a4,112(a5)
    8000688e:	a4f94d77          	.insn	4, 0xa4f94d77
    80006892:	77c2                	ld	a5,48(sp)
    80006894:	5c4d96b3          	.insn	4, 0x5c4d96b3
    80006898:	ec61                	bnez	s0,80006970 <input_data+0x1d28>
    8000689a:	5d497a2b          	.insn	4, 0x5d497a2b
    8000689e:	809e2ba7          	fsw	fs1,-2025(t3)
    800068a2:	6a35                	lui	s4,0xd
    800068a4:	4ee1                	li	t4,24
    800068a6:	7c9d                	lui	s9,0xfffe7
    800068a8:	fc5c                	sd	a5,184(s0)
    800068aa:	6dec3b3b          	.insn	4, 0x6dec3b3b
    800068ae:	74c8                	ld	a0,168(s1)
    800068b0:	94c6                	add	s1,s1,a7
    800068b2:	4fa9                	li	t6,10
    800068b4:	4190                	lw	a2,0(a1)
    800068b6:	2931                	addw	s2,s2,12 # 1b00c <buflen.1+0x1afcc>
    800068b8:	a664                	fsd	fs1,200(a2)
    800068ba:	681f b8f7 37c3      	.insn	6, 0x37c3b8f7681f
    800068c0:	1936                	sll	s2,s2,0x2d
    800068c2:	42f8                	lw	a4,68(a3)
    800068c4:	417f 0676 54c2 5626 	.insn	18, 0xa6ab075a34930a1dd345562654c20676417f
    800068cc:	d345 0a1d 3493 075a 
    800068d4:	a6ab 
    800068d6:	6182                	ld	gp,0(sp)
    800068d8:	fe11                	bnez	a2,800067f4 <input_data+0x1bac>
    800068da:	2828                	fld	fa0,80(s0)
    800068dc:	79c39977          	.insn	4, 0x79c39977
    800068e0:	2d2aea73          	csrrs	s4,0x2d2,21
    800068e4:	0b6e                	sll	s6,s6,0x1b
    800068e6:	1e8c                	add	a1,sp,880
    800068e8:	d1ee                	sw	s11,224(sp)
    800068ea:	0721                	add	a4,a4,8
    800068ec:	705c                	ld	a5,160(s0)
    800068ee:	91200377          	.insn	4, 0x91200377
    800068f2:	88a17c9b          	.insn	4, 0x88a17c9b
    800068f6:	1cfa                	sll	s9,s9,0x3e
    800068f8:	c63a                	sw	a4,12(sp)
    800068fa:	6089                	lui	ra,0x2
    800068fc:	19cee96b          	.insn	4, 0x19cee96b
    80006900:	a8ed                	j	800069fa <input_data+0x1db2>
    80006902:	42fc3557          	.insn	4, 0x42fc3557
    80006906:	169e                	sll	a3,a3,0x27
    80006908:	6f0e                	ld	t5,192(sp)
    8000690a:	70b5                	lui	ra,0xfffed
    8000690c:	ed6c                	sd	a1,216(a0)
    8000690e:	706e                	.insn	2, 0x706e
    80006910:	8f2e                	mv	t5,a1
    80006912:	6ec8                	ld	a0,152(a3)
    80006914:	39c73b7f 49572b3c 	.insn	16, 0x14f726d670b4af3749572b3c39c73b7f
    8000691c:	70b4af37 14f726d6 
    80006924:	7509                	lui	a0,0xfffe2
    80006926:	0ccc                	add	a1,sp,596
    80006928:	4f7e                	lw	t5,220(sp)
    8000692a:	c8955c63          	bge	a0,s1,80005dc2 <input_data+0x117a>
    8000692e:	30b0125b          	.insn	4, 0x30b0125b
    80006932:	0191                	add	gp,gp,4 # 8000744c <__global_pointer$+0x4>
    80006934:	040ea107          	flw	ft2,64(t4)
    80006938:	9a3e                	add	s4,s4,a5
    8000693a:	03435273          	csrrw	tp,0x34,6
    8000693e:	6816                	ld	a6,320(sp)
    80006940:	ad38                	fsd	fa4,88(a0)
    80006942:	40f9                	li	ra,30
    80006944:	a545                	j	80006fe4 <scratch.0+0x39c>
    80006946:	da0162d3          	.insn	4, 0xda0162d3
    8000694a:	7c11                	lui	s8,0xfffe4
    8000694c:	7015                	c.lui	zero,0xfffe5
    8000694e:	4216438f          	.insn	4, 0x4216438f
    80006952:	6ce86427          	vsoxseg4ei32.v	v8,(a6),v14,v0.t
    80006956:	50713e9b          	.insn	4, 0x50713e9b
    8000695a:	6ba6                	ld	s7,72(sp)
    8000695c:	8e36                	mv	t3,a3
    8000695e:	6621                	lui	a2,0x8
    80006960:	3d39                	addw	s10,s10,-18
    80006962:	1f09                	add	t5,t5,-30 # 1fe2 <buflen.1+0x1fa2>
    80006964:	9675                	sra	a2,a2,0x3d
    80006966:	fc0518e3          	bnez	a0,80006936 <input_data+0x1cee>
    8000696a:	50c4                	lw	s1,36(s1)
    8000696c:	648d                	lui	s1,0x3
    8000696e:	25a2                	fld	fa1,8(sp)
    80006970:	6f8c                	ld	a1,24(a5)
    80006972:	b10867db          	.insn	4, 0xb10867db
    80006976:	7bd6                	ld	s7,368(sp)
    80006978:	65dd924f          	.insn	4, 0x65dd924f
    8000697c:	23688f3b          	.insn	4, 0x23688f3b
    80006980:	b958                	fsd	fa4,176(a0)
    80006982:	37da                	fld	fa5,432(sp)
    80006984:	2c3cdaab          	.insn	4, 0x2c3cdaab
    80006988:	94e1                	sra	s1,s1,0x38
    8000698a:	7184                	ld	s1,32(a1)
    8000698c:	6341                	lui	t1,0x10
    8000698e:	c23634eb          	.insn	4, 0xc23634eb
    80006992:	b1bf4ccf          	fnmadd.s	fs9,ft10,fs11,fs6,rmm
    80006996:	194e                	sll	s2,s2,0x33
    80006998:	8add                	and	a3,a3,23
    8000699a:	5948                	lw	a0,52(a0)
    8000699c:	31766a3f 5282f6af 	.insn	8, 0x5282f6af31766a3f
    800069a4:	ab91                	j	80006ef8 <scratch.0+0x2b0>
    800069a6:	0ee8                	add	a0,sp,860
    800069a8:	0919                	add	s2,s2,6
    800069aa:	0bed                	add	s7,s7,27
    800069ac:	29599857          	vfsgnjx.vv	v16,v21,v19,v0.t
    800069b0:	8572                	mv	a0,t3
    800069b2:	5b04                	lw	s1,48(a4)
    800069b4:	0211                	add	tp,tp,4 # bc98b818 <_tbss_end+0x3c982b54>
    800069b6:	572c                	lw	a1,104(a4)
    800069b8:	d2ea                	sw	s10,100(sp)
    800069ba:	6495                	lui	s1,0x5
    800069bc:	be30                	fsd	fa2,120(a2)
    800069be:	b63144f3          	.insn	4, 0xb63144f3
    800069c2:	0e64                	add	s1,sp,796
    800069c4:	8a9e                	mv	s5,t2
    800069c6:	fd9646fb          	.insn	4, 0xfd9646fb
    800069ca:	4a86                	lw	s5,64(sp)
    800069cc:	d916                	sw	t0,176(sp)
    800069ce:	7b0a                	ld	s6,160(sp)
    800069d0:	9418                	.insn	2, 0x9418
    800069d2:	01a4                	add	s1,sp,200
    800069d4:	e7fa                	sd	t5,456(sp)
    800069d6:	7015                	c.lui	zero,0xfffe5
    800069d8:	a050                	fsd	fa2,128(s0)
    800069da:	03407643          	fmadd.d	fa2,ft0,fs4,ft0
    800069de:	063e                	sll	a2,a2,0xf
    800069e0:	85ea                	mv	a1,s10
    800069e2:	4eec                	lw	a1,92(a3)
    800069e4:	a95e                	fsd	fs7,144(sp)
    800069e6:	3aef40f3          	.insn	4, 0x3aef40f3
    800069ea:	e62853a3          	.insn	4, 0xe62853a3
    800069ee:	7316                	ld	t1,352(sp)
    800069f0:	2e160dbb          	.insn	4, 0x2e160dbb
    800069f4:	452708a7          	vsuxseg3ei8.v	v17,(a4),v18,v0.t
    800069f8:	9d30                	.insn	2, 0x9d30
    800069fa:	218e                	fld	ft3,192(sp)
    800069fc:	b11e                	fsd	ft7,160(sp)
    800069fe:	3f7c                	fld	fa5,248(a4)
    80006a00:	8a44                	.insn	2, 0x8a44
    80006a02:	19ad1def          	jal	s11,800d7b9c <_tbss_end+0xceed8>
    80006a06:	61e4                	ld	s1,192(a1)
    80006a08:	b8a4                	fsd	fs1,112(s1)
    80006a0a:	b5d94e17          	auipc	t3,0xb5d94
    80006a0e:	6728                	ld	a0,72(a4)
    80006a10:	73e6                	ld	t2,120(sp)
    80006a12:	57f4                	lw	a3,108(a5)
    80006a14:	5cb5                	li	s9,-19
    80006a16:	673824b3          	.insn	4, 0x673824b3
    80006a1a:	452c                	lw	a1,72(a0)
    80006a1c:	375ced43          	.insn	4, 0x375ced43
    80006a20:	2f3e                	fld	ft10,456(sp)
    80006a22:	0f22                	sll	t5,t5,0x8
    80006a24:	c5fc                	sw	a5,76(a1)
    80006a26:	6b3d                	lui	s6,0xf
    80006a28:	d05f 47da c656      	.insn	6, 0xc65647dad05f
    80006a2e:	189e                	sll	a7,a7,0x27
    80006a30:	2f60                	fld	fs0,216(a4)
    80006a32:	5eb9                	li	t4,-18
    80006a34:	69c06c73          	csrrs	s8,0x69c,0
    80006a38:	b6de                	fsd	fs7,360(sp)
    80006a3a:	029e                	sll	t0,t0,0x7
    80006a3c:	63bcc123          	.insn	4, 0x63bcc123
    80006a40:	c1b4                	sw	a3,64(a1)
    80006a42:	318b28bb          	.insn	4, 0x318b28bb
    80006a46:	99334b27          	.insn	4, 0x99334b27
    80006a4a:	7d19                	lui	s10,0xfffe6
    80006a4c:	2e0b77ef          	jal	a5,800bdd2c <_tbss_end+0xb5068>
    80006a50:	49777d6b          	.insn	4, 0x49777d6b
    80006a54:	d426                	sw	s1,40(sp)
    80006a56:	2d30                	fld	fa2,88(a0)
    80006a58:	318c2ea3          	sw	s8,797(s8) # fffffffffffe431d <_tbss_end+0xffffffff7ffdb659>
    80006a5c:	5faed877          	.insn	4, 0x5faed877
    80006a60:	f09c                	sd	a5,32(s1)
    80006a62:	00ad62fb          	.insn	4, 0x00ad62fb
    80006a66:	0174                	add	a3,sp,140
    80006a68:	6adf 5506 6f54      	.insn	6, 0x6f5455066adf
    80006a6e:	600e                	.insn	2, 0x600e
    80006a70:	c4ff 40b0 1040 00c4 	.insn	18, 0x3644345fc77a1b2bd25200c4104040b0c4ff
    80006a78:	d252 1b2b c77a 345f 
    80006a80:	3644 
    80006a82:	490671e7          	.insn	4, 0x490671e7
    80006a86:	526d                	li	tp,-5
    80006a88:	8909                	and	a0,a0,2
    80006a8a:	743c                	ld	a5,104(s0)
    80006a8c:	ffda                	sd	s6,504(sp)
    80006a8e:	389f 5411 35e6      	.insn	6, 0x35e65411389f
    80006a94:	91a6                	add	gp,gp,s1
    80006a96:	26402f2b          	.insn	4, 0x26402f2b
    80006a9a:	5e70                	lw	a2,124(a2)
    80006a9c:	d928                	sw	a0,112(a0)
    80006a9e:	0c85                	add	s9,s9,1 # fffffffffffe7001 <_tbss_end+0xffffffff7ffde33d>
    80006aa0:	422f2997          	auipc	s3,0x422f2
    80006aa4:	a9d0                	fsd	fa2,144(a1)
    80006aa6:	f68615bb          	.insn	4, 0xf68615bb
    80006aaa:	0335                	add	t1,t1,13 # 1000d <buflen.1+0xffcd>
    80006aac:	9db6                	add	s11,s11,a3
    80006aae:	84d02e07          	flw	ft8,-1971(zero) # fffffffffffff84d <_tbss_end+0xffffffff7fff6b89>
    80006ab2:	1c2d                	add	s8,s8,-21
    80006ab4:	19f2                	sll	s3,s3,0x3c
    80006ab6:	4396                	lw	t2,68(sp)
    80006ab8:	663ef68b          	.insn	4, 0x663ef68b
    80006abc:	657f 5624 b757 5bdb 	.insn	22, 0x4ae370d6584039f0708e08e42c115bdbb7575624657f
    80006ac4:	2c11 08e4 708e 39f0 
    80006acc:	5840 70d6 4ae3 
    80006ad2:	5fae58ab          	.insn	4, 0x5fae58ab
    80006ad6:	2632                	fld	fa2,264(sp)
    80006ad8:	c65d                	beqz	a2,80006b86 <input_data+0x1f3e>
    80006ada:	57a2                	lw	a5,40(sp)
    80006adc:	afc1                	j	800072ac <scratch.0+0x664>
    80006ade:	4361268b          	.insn	4, 0x4361268b
    80006ae2:	3aea                	fld	fs5,184(sp)
    80006ae4:	eae5                	bnez	a3,80006bd4 <input_data+0x1f8c>
    80006ae6:	29e8                	fld	fa0,208(a1)
    80006ae8:	9209                	srl	a2,a2,0x22
    80006aea:	687e                	ld	a6,472(sp)
    80006aec:	5c32                	lw	s8,44(sp)
    80006aee:	765e                	ld	a2,496(sp)
    80006af0:	28ae                	fld	fa7,200(sp)
    80006af2:	297c                	fld	fa5,208(a0)
    80006af4:	fa95                	bnez	a3,80006a28 <input_data+0x1de0>
    80006af6:	6a49                	lui	s4,0x12
    80006af8:	e729                	bnez	a4,80006b42 <input_data+0x1efa>
    80006afa:	4e82                	lw	t4,0(sp)
    80006afc:	4cb0                	lw	a2,88(s1)
    80006afe:	689e                	ld	a7,448(sp)
    80006b00:	b1ee                	fsd	fs11,224(sp)
    80006b02:	83ba1fb7          	lui	t6,0x83ba1
    80006b06:	3fbe                	fld	ft11,488(sp)
    80006b08:	0ee21ec7          	.insn	4, 0x0ee21ec7
    80006b0c:	1f407de7          	.insn	4, 0x1f407de7
    80006b10:	8c8c                	.insn	2, 0x8c8c
    80006b12:	2d2d                	addw	s10,s10,11 # fffffffffffe600b <_tbss_end+0xffffffff7ffdd347>
    80006b14:	97d6                	add	a5,a5,s5
    80006b16:	7db5                	lui	s11,0xfffed
    80006b18:	37ea                	fld	fa5,184(sp)
    80006b1a:	10d0240f          	.insn	4, 0x10d0240f
    80006b1e:	7585                	lui	a1,0xfffe1
    80006b20:	58ce                	lw	a7,240(sp)
    80006b22:	5eaa                	lw	t4,168(sp)
    80006b24:	4e8e                	lw	t4,192(sp)
    80006b26:	76c05b67          	.insn	4, 0x76c05b67
    80006b2a:	252c                	fld	fa1,72(a0)
    80006b2c:	53c8cb9b          	.insn	4, 0x53c8cb9b
    80006b30:	748d9613          	.insn	4, 0x748d9613
    80006b34:	7651                	lui	a2,0xffff4
    80006b36:	8c68408b          	.insn	4, 0x8c68408b
    80006b3a:	52ac                	lw	a1,96(a3)
    80006b3c:	86a9                	sra	a3,a3,0xa
    80006b3e:	341a                	fld	fs0,416(sp)
    80006b40:	d8ac                	sw	a1,112(s1)
    80006b42:	5030                	lw	a2,96(s0)
    80006b44:	45a55e33          	.insn	4, 0x45a55e33
    80006b48:	3159                	addw	sp,sp,-10
    80006b4a:	7782                	ld	a5,32(sp)
    80006b4c:	27b1                	addw	a5,a5,12 # 1f8b700c <buflen.1+0x1f8b6fcc>
    80006b4e:	43550df3          	.insn	4, 0x43550df3
    80006b52:	1c36                	sll	s8,s8,0x2d
    80006b54:	2ad8                	fld	fa4,144(a3)
    80006b56:	2709                	addw	a4,a4,2
    80006b58:	57cebc73          	csrrc	s8,0x57c,t4
    80006b5c:	ed02                	sd	zero,152(sp)
    80006b5e:	3b76                	fld	fs6,376(sp)
    80006b60:	2fcade4f          	.insn	4, 0x2fcade4f
    80006b64:	7a54488b          	.insn	4, 0x7a54488b
    80006b68:	e0a1                	bnez	s1,80006ba8 <input_data+0x1f60>
    80006b6a:	703e                	.insn	2, 0x703e
    80006b6c:	eae8                	sd	a0,208(a3)
    80006b6e:	0b10                	add	a2,sp,400
    80006b70:	52d9061b          	addw	a2,s2,1325
    80006b74:	ac6e                	fsd	fs11,24(sp)
    80006b76:	66d9                	lui	a3,0x16
    80006b78:	5b28                	lw	a0,112(a4)
    80006b7a:	34cd                	addw	s1,s1,-13 # 4ff3 <buflen.1+0x4fb3>
    80006b7c:	bd26                	fsd	fs1,184(sp)
    80006b7e:	3925                	addw	s2,s2,-23
    80006b80:	cbd4                	sw	a3,20(a5)
    80006b82:	7a70                	ld	a2,240(a2)
    80006b84:	b6cd                	j	80006766 <input_data+0x1b1e>
    80006b86:	fc8e039b          	addw	t2,t3,-56 # 35d9a9d2 <buflen.1+0x35d9a992>
    80006b8a:	5515                	li	a0,-27
    80006b8c:	45288ea3          	sb	s2,1117(a7)
    80006b90:	c129                	beqz	a0,80006bd2 <input_data+0x1f8a>
    80006b92:	a88b6cef          	jal	s9,7ffbce1a <buflen.1+0x7ffbcdda>
    80006b96:	53f8                	lw	a4,100(a5)
    80006b98:	1629                	add	a2,a2,-22 # ffffffffffff3fea <_tbss_end+0xffffffff7ffeb326>
    80006b9a:	6460                	ld	s0,200(s0)
    80006b9c:	b922                	fsd	fs0,176(sp)
    80006b9e:	03ad                	add	t2,t2,11
    80006ba0:	324f49f7          	.insn	4, 0x324f49f7
    80006ba4:	bdbd                	j	80006a22 <input_data+0x1dda>
    80006ba6:	f6433c4b          	.insn	4, 0xf6433c4b
    80006baa:	5aad                	li	s5,-21
    80006bac:	5f29                	li	t5,-22
    80006bae:	5e48                	lw	a0,60(a2)
    80006bb0:	2d7f 3618 1f55 7894 	.insn	14, 0x8204430fbce778941f5536182d7f
    80006bb8:	bce7 430f 8204 
    80006bbe:	4e34                	lw	a3,88(a2)
    80006bc0:	c149                	beqz	a0,80006c42 <input_data+0x1ffa>
    80006bc2:	fdf6576b          	.insn	4, 0xfdf6576b
    80006bc6:	734b39d3          	.insn	4, 0x734b39d3
    80006bca:	04d2                	sll	s1,s1,0x14
    80006bcc:	35e2                	fld	fa1,56(sp)
    80006bce:	5625                	li	a2,-23
    80006bd0:	a794                	fsd	fa3,8(a5)
    80006bd2:	13fe                	sll	t2,t2,0x3f
    80006bd4:	47e8                	lw	a0,76(a5)
    80006bd6:	1e6d                	add	t3,t3,-5
    80006bd8:	efda                	sd	s6,472(sp)
    80006bda:	0588                	add	a0,sp,704
    80006bdc:	b61d                	j	80006702 <input_data+0x1aba>
    80006bde:	6226                	ld	tp,72(sp)
    80006be0:	bb78                	fsd	fa4,240(a4)
    80006be2:	6266                	ld	tp,88(sp)
    80006be4:	5b668c23          	sb	s6,1464(a3) # 165b8 <buflen.1+0x16578>
    80006be8:	b0dc                	fsd	fa5,160(s1)
    80006bea:	0ffa                	sll	t6,t6,0x1e
    80006bec:	347e3b97          	auipc	s7,0x347e3
    80006bf0:	465d649b          	.insn	4, 0x465d649b
    80006bf4:	bc8d                	j	80006666 <input_data+0x1a1e>
    80006bf6:	6f59                	lui	t5,0x16
    80006bf8:	685d77c3          	fmadd.s	fa5,fs10,ft5,fa3
    80006bfc:	9740                	vmsge.vx	v14,v0,ra,v0.t
    80006bfe:	17ed                	add	a5,a5,-5
    80006c00:	2c8c                	fld	fa1,24(s1)
    80006c02:	2031                	.insn	2, 0x2031
    80006c04:	a141                	j	80007084 <scratch.0+0x43c>
    80006c06:	0f163cf7          	.insn	4, 0x0f163cf7
    80006c0a:	1b81                	add	s7,s7,-32 # b47e9bcc <_tbss_end+0x347e0f08>
    80006c0c:	48deb2b3          	.insn	4, 0x48deb2b3
    80006c10:	1b350fbf 05a5ef07 	.insn	8, 0x05a5ef071b350fbf
    80006c18:	44f2                	lw	s1,28(sp)
    80006c1a:	4961                	li	s2,24
    80006c1c:	3900                	fld	fs0,48(a0)
    80006c1e:	a4257fdb          	.insn	4, 0xa4257fdb
    80006c22:	7329                	lui	t1,0xfffea
    80006c24:	12e0                	add	s0,sp,364
    80006c26:	c44211eb          	.insn	4, 0xc44211eb
    80006c2a:	7a88                	ld	a0,48(a3)
    80006c2c:	c985                	beqz	a1,80006c5c <scratch.0+0x14>
    80006c2e:	3a76                	fld	fs4,376(sp)
    80006c30:	4e03cf67          	.insn	4, 0x4e03cf67
    80006c34:	e4c1                	bnez	s1,80006cbc <scratch.0+0x74>
    80006c36:	3c39                	addw	s8,s8,-18
    80006c38:	167d                	add	a2,a2,-1
    80006c3a:	5370                	lw	a2,100(a4)
    80006c3c:	36f5                	addw	a3,a3,-3
    80006c3e:	4896                	lw	a7,68(sp)
    80006c40:	66c0                	ld	s0,136(a3)
    80006c42:	37b6                	fld	fa5,360(sp)
    80006c44:	935e                	add	t1,t1,s7
    80006c46:	3460                	fld	fs0,232(s0)
