
rsort.riscv:     file format elf64-littleriscv


Disassembly of section .text.init:

0000000080000000 <_start>:
    80000000:	4081                	li	ra,0
    80000002:	4101                	li	sp,0
    80000004:	4181                	li	gp,0
    80000006:	4201                	li	tp,0
    80000008:	4281                	li	t0,0
    8000000a:	4301                	li	t1,0
    8000000c:	4381                	li	t2,0
    8000000e:	4401                	li	s0,0
    80000010:	4481                	li	s1,0
    80000012:	4501                	li	a0,0
    80000014:	4581                	li	a1,0
    80000016:	4601                	li	a2,0
    80000018:	4681                	li	a3,0
    8000001a:	4701                	li	a4,0
    8000001c:	4781                	li	a5,0
    8000001e:	4801                	li	a6,0
    80000020:	4881                	li	a7,0
    80000022:	4901                	li	s2,0
    80000024:	4981                	li	s3,0
    80000026:	4a01                	li	s4,0
    80000028:	4a81                	li	s5,0
    8000002a:	4b01                	li	s6,0
    8000002c:	4b81                	li	s7,0
    8000002e:	4c01                	li	s8,0
    80000030:	4c81                	li	s9,0
    80000032:	4d01                	li	s10,0
    80000034:	4d81                	li	s11,0
    80000036:	4e01                	li	t3,0
    80000038:	4e81                	li	t4,0
    8000003a:	4f01                	li	t5,0
    8000003c:	4f81                	li	t6,0
    8000003e:	62f9                	lui	t0,0x1e
    80000040:	6002829b          	addw	t0,t0,1536 # 1e600 <buflen.1+0x1e5c0>
    80000044:	3002a073          	csrs	mstatus,t0
    80000048:	4285                	li	t0,1
    8000004a:	02fe                	sll	t0,t0,0x1f
    8000004c:	0002d863          	bgez	t0,8000005c <_start+0x5c>
    80000050:	4505                	li	a0,1
    80000052:	00001297          	auipc	t0,0x1
    80000056:	faa2a723          	sw	a0,-82(t0) # 80001000 <tohost>
    8000005a:	bfdd                	j	80000050 <_start+0x50>
    8000005c:	00000297          	auipc	t0,0x0
    80000060:	09028293          	add	t0,t0,144 # 800000ec <_start+0xec>
    80000064:	30529073          	csrw	mtvec,t0
    80000068:	00301073          	fscsr	zero
    8000006c:	f0000053          	fmv.w.x	ft0,zero
    80000070:	f00000d3          	fmv.w.x	ft1,zero
    80000074:	f0000153          	fmv.w.x	ft2,zero
    80000078:	f00001d3          	fmv.w.x	ft3,zero
    8000007c:	f0000253          	fmv.w.x	ft4,zero
    80000080:	f00002d3          	fmv.w.x	ft5,zero
    80000084:	f0000353          	fmv.w.x	ft6,zero
    80000088:	f00003d3          	fmv.w.x	ft7,zero
    8000008c:	f0000453          	fmv.w.x	fs0,zero
    80000090:	f00004d3          	fmv.w.x	fs1,zero
    80000094:	f0000553          	fmv.w.x	fa0,zero
    80000098:	f00005d3          	fmv.w.x	fa1,zero
    8000009c:	f0000653          	fmv.w.x	fa2,zero
    800000a0:	f00006d3          	fmv.w.x	fa3,zero
    800000a4:	f0000753          	fmv.w.x	fa4,zero
    800000a8:	f00007d3          	fmv.w.x	fa5,zero
    800000ac:	f0000853          	fmv.w.x	fa6,zero
    800000b0:	f00008d3          	fmv.w.x	fa7,zero
    800000b4:	f0000953          	fmv.w.x	fs2,zero
    800000b8:	f00009d3          	fmv.w.x	fs3,zero
    800000bc:	f0000a53          	fmv.w.x	fs4,zero
    800000c0:	f0000ad3          	fmv.w.x	fs5,zero
    800000c4:	f0000b53          	fmv.w.x	fs6,zero
    800000c8:	f0000bd3          	fmv.w.x	fs7,zero
    800000cc:	f0000c53          	fmv.w.x	fs8,zero
    800000d0:	f0000cd3          	fmv.w.x	fs9,zero
    800000d4:	f0000d53          	fmv.w.x	fs10,zero
    800000d8:	f0000dd3          	fmv.w.x	fs11,zero
    800000dc:	f0000e53          	fmv.w.x	ft8,zero
    800000e0:	f0000ed3          	fmv.w.x	ft9,zero
    800000e4:	f0000f53          	fmv.w.x	ft10,zero
    800000e8:	f0000fd3          	fmv.w.x	ft11,zero
    800000ec:	00000297          	auipc	t0,0x0
    800000f0:	03c28293          	add	t0,t0,60 # 80000128 <trap_entry>
    800000f4:	30529073          	csrw	mtvec,t0
    800000f8:	00007197          	auipc	gp,0x7
    800000fc:	35018193          	add	gp,gp,848 # 80007448 <__global_pointer$>
    80000100:	00009217          	auipc	tp,0x9
    80000104:	bbf20213          	add	tp,tp,-1089 # 80008cbf <_end+0x3f>
    80000108:	fc027213          	and	tp,tp,-64
    8000010c:	f1402573          	csrr	a0,mhartid
    80000110:	4585                	li	a1,1
    80000112:	00b57063          	bgeu	a0,a1,80000112 <_start+0x112>
    80000116:	00150113          	add	sp,a0,1
    8000011a:	0146                	sll	sp,sp,0x11
    8000011c:	9112                	add	sp,sp,tp
    8000011e:	01151613          	sll	a2,a0,0x11
    80000122:	9232                	add	tp,tp,a2
    80000124:	75e0206f          	j	80002882 <_init>

0000000080000128 <trap_entry>:
    80000128:	716d                	add	sp,sp,-272
    8000012a:	e406                	sd	ra,8(sp)
    8000012c:	e80a                	sd	sp,16(sp)
    8000012e:	ec0e                	sd	gp,24(sp)
    80000130:	f012                	sd	tp,32(sp)
    80000132:	f416                	sd	t0,40(sp)
    80000134:	f81a                	sd	t1,48(sp)
    80000136:	fc1e                	sd	t2,56(sp)
    80000138:	e0a2                	sd	s0,64(sp)
    8000013a:	e4a6                	sd	s1,72(sp)
    8000013c:	e8aa                	sd	a0,80(sp)
    8000013e:	ecae                	sd	a1,88(sp)
    80000140:	f0b2                	sd	a2,96(sp)
    80000142:	f4b6                	sd	a3,104(sp)
    80000144:	f8ba                	sd	a4,112(sp)
    80000146:	fcbe                	sd	a5,120(sp)
    80000148:	e142                	sd	a6,128(sp)
    8000014a:	e546                	sd	a7,136(sp)
    8000014c:	e94a                	sd	s2,144(sp)
    8000014e:	ed4e                	sd	s3,152(sp)
    80000150:	f152                	sd	s4,160(sp)
    80000152:	f556                	sd	s5,168(sp)
    80000154:	f95a                	sd	s6,176(sp)
    80000156:	fd5e                	sd	s7,184(sp)
    80000158:	e1e2                	sd	s8,192(sp)
    8000015a:	e5e6                	sd	s9,200(sp)
    8000015c:	e9ea                	sd	s10,208(sp)
    8000015e:	edee                	sd	s11,216(sp)
    80000160:	f1f2                	sd	t3,224(sp)
    80000162:	f5f6                	sd	t4,232(sp)
    80000164:	f9fa                	sd	t5,240(sp)
    80000166:	fdfe                	sd	t6,248(sp)
    80000168:	34202573          	csrr	a0,mcause
    8000016c:	341025f3          	csrr	a1,mepc
    80000170:	860a                	mv	a2,sp
    80000172:	4d8020ef          	jal	8000264a <handle_trap>
    80000176:	34151073          	csrw	mepc,a0
    8000017a:	6289                	lui	t0,0x2
    8000017c:	8002829b          	addw	t0,t0,-2048 # 1800 <buflen.1+0x17c0>
    80000180:	3002a073          	csrs	mstatus,t0
    80000184:	60a2                	ld	ra,8(sp)
    80000186:	6142                	ld	sp,16(sp)
    80000188:	61e2                	ld	gp,24(sp)
    8000018a:	7202                	ld	tp,32(sp)
    8000018c:	72a2                	ld	t0,40(sp)
    8000018e:	7342                	ld	t1,48(sp)
    80000190:	73e2                	ld	t2,56(sp)
    80000192:	6406                	ld	s0,64(sp)
    80000194:	64a6                	ld	s1,72(sp)
    80000196:	6546                	ld	a0,80(sp)
    80000198:	65e6                	ld	a1,88(sp)
    8000019a:	7606                	ld	a2,96(sp)
    8000019c:	76a6                	ld	a3,104(sp)
    8000019e:	7746                	ld	a4,112(sp)
    800001a0:	77e6                	ld	a5,120(sp)
    800001a2:	680a                	ld	a6,128(sp)
    800001a4:	68aa                	ld	a7,136(sp)
    800001a6:	694a                	ld	s2,144(sp)
    800001a8:	69ea                	ld	s3,152(sp)
    800001aa:	7a0a                	ld	s4,160(sp)
    800001ac:	7aaa                	ld	s5,168(sp)
    800001ae:	7b4a                	ld	s6,176(sp)
    800001b0:	7bea                	ld	s7,184(sp)
    800001b2:	6c0e                	ld	s8,192(sp)
    800001b4:	6cae                	ld	s9,200(sp)
    800001b6:	6d4e                	ld	s10,208(sp)
    800001b8:	6dee                	ld	s11,216(sp)
    800001ba:	7e0e                	ld	t3,224(sp)
    800001bc:	7eae                	ld	t4,232(sp)
    800001be:	7f4e                	ld	t5,240(sp)
    800001c0:	7fee                	ld	t6,248(sp)
    800001c2:	6151                	add	sp,sp,272
    800001c4:	30200073          	mret
    800001c8:	0000                	unimp

Disassembly of section .text:

0000000080002000 <verify.constprop.0>:
    80002000:	87aa                	mv	a5,a0
    80002002:	00003717          	auipc	a4,0x3
    80002006:	c4670713          	add	a4,a4,-954 # 80004c48 <input_data>
    8000200a:	4501                	li	a0,0
    8000200c:	a809                	j	8000201e <verify.constprop.0+0x1e>
    8000200e:	0006051b          	sext.w	a0,a2
    80002012:	03169663          	bne	a3,a7,8000203e <verify.constprop.0+0x3e>
    80002016:	0721                	add	a4,a4,8
    80002018:	07a1                	add	a5,a5,8
    8000201a:	02030163          	beqz	t1,8000203c <verify.constprop.0+0x3c>
    8000201e:	430c                	lw	a1,0(a4)
    80002020:	0007a803          	lw	a6,0(a5)
    80002024:	4354                	lw	a3,4(a4)
    80002026:	0025061b          	addw	a2,a0,2
    8000202a:	0047a883          	lw	a7,4(a5)
    8000202e:	8006031b          	addw	t1,a2,-2048
    80002032:	2681                	sext.w	a3,a3
    80002034:	fcb80de3          	beq	a6,a1,8000200e <verify.constprop.0+0xe>
    80002038:	2505                	addw	a0,a0,1
    8000203a:	8082                	ret
    8000203c:	4501                	li	a0,0
    8000203e:	8082                	ret

0000000080002040 <sort>:
    80002040:	00251893          	sll	a7,a0,0x2
    80002044:	7159                	add	sp,sp,-112
    80002046:	6705                	lui	a4,0x1
    80002048:	ff388693          	add	a3,a7,-13
    8000204c:	ff088793          	add	a5,a7,-16
    80002050:	f4a2                	sd	s0,104(sp)
    80002052:	f0a6                	sd	s1,96(sp)
    80002054:	ecca                	sd	s2,88(sp)
    80002056:	e8ce                	sd	s3,80(sp)
    80002058:	e4d2                	sd	s4,72(sp)
    8000205a:	e0d6                	sd	s5,64(sp)
    8000205c:	fc5a                	sd	s6,56(sp)
    8000205e:	f85e                	sd	s7,48(sp)
    80002060:	f462                	sd	s8,40(sp)
    80002062:	f066                	sd	s9,32(sp)
    80002064:	ec6a                	sd	s10,24(sp)
    80002066:	e86e                	sd	s11,16(sp)
    80002068:	80070713          	add	a4,a4,-2048 # 800 <buflen.1+0x7c0>
    8000206c:	81010113          	add	sp,sp,-2032
    80002070:	9ac1                	and	a3,a3,-16
    80002072:	fff7c793          	not	a5,a5
    80002076:	8532                	mv	a0,a2
    80002078:	880a                	mv	a6,sp
    8000207a:	82ae                	mv	t0,a1
    8000207c:	ff488393          	add	t2,a7,-12
    80002080:	ffc88f93          	add	t6,a7,-4
    80002084:	01080f13          	add	t5,a6,16
    80002088:	4601                	li	a2,0
    8000208a:	9742                	add	a4,a4,a6
    8000208c:	01068e13          	add	t3,a3,16
    80002090:	ff07f313          	and	t1,a5,-16
    80002094:	02000e93          	li	t4,32
    80002098:	87c2                	mv	a5,a6
    8000209a:	0007b023          	sd	zero,0(a5)
    8000209e:	07a1                	add	a5,a5,8
    800020a0:	fee79de3          	bne	a5,a4,8000209a <sort+0x5a>
    800020a4:	007589b3          	add	s3,a1,t2
    800020a8:	1f35f263          	bgeu	a1,s3,8000228c <sort+0x24c>
    800020ac:	0006091b          	sext.w	s2,a2
    800020b0:	84ae                	mv	s1,a1
    800020b2:	0004aa03          	lw	s4,0(s1)
    800020b6:	40c0                	lw	s0,4(s1)
    800020b8:	4494                	lw	a3,8(s1)
    800020ba:	012a5a3b          	srlw	s4,s4,s2
    800020be:	0ffa7a13          	zext.b	s4,s4
    800020c2:	0a0e                	sll	s4,s4,0x3
    800020c4:	9a42                	add	s4,s4,a6
    800020c6:	000a3a83          	ld	s5,0(s4)
    800020ca:	0124543b          	srlw	s0,s0,s2
    800020ce:	0ff47413          	zext.b	s0,s0
    800020d2:	0a85                	add	s5,s5,1
    800020d4:	040e                	sll	s0,s0,0x3
    800020d6:	44dc                	lw	a5,12(s1)
    800020d8:	9442                	add	s0,s0,a6
    800020da:	015a3023          	sd	s5,0(s4)
    800020de:	00043a03          	ld	s4,0(s0)
    800020e2:	0126d6bb          	srlw	a3,a3,s2
    800020e6:	0ff6f693          	zext.b	a3,a3
    800020ea:	0a05                	add	s4,s4,1
    800020ec:	068e                	sll	a3,a3,0x3
    800020ee:	01443023          	sd	s4,0(s0)
    800020f2:	96c2                	add	a3,a3,a6
    800020f4:	6280                	ld	s0,0(a3)
    800020f6:	0127d7bb          	srlw	a5,a5,s2
    800020fa:	0ff7f793          	zext.b	a5,a5
    800020fe:	0405                	add	s0,s0,1
    80002100:	078e                	sll	a5,a5,0x3
    80002102:	e280                	sd	s0,0(a3)
    80002104:	97c2                	add	a5,a5,a6
    80002106:	6394                	ld	a3,0(a5)
    80002108:	04c1                	add	s1,s1,16
    8000210a:	0685                	add	a3,a3,1
    8000210c:	e394                	sd	a3,0(a5)
    8000210e:	fb34e2e3          	bltu	s1,s3,800020b2 <sort+0x72>
    80002112:	01c586b3          	add	a3,a1,t3
    80002116:	011584b3          	add	s1,a1,a7
    8000211a:	0006091b          	sext.w	s2,a2
    8000211e:	0096ff63          	bgeu	a3,s1,8000213c <sort+0xfc>
    80002122:	429c                	lw	a5,0(a3)
    80002124:	0691                	add	a3,a3,4
    80002126:	0127d7bb          	srlw	a5,a5,s2
    8000212a:	0ff7f793          	zext.b	a5,a5
    8000212e:	078e                	sll	a5,a5,0x3
    80002130:	97c2                	add	a5,a5,a6
    80002132:	6380                	ld	s0,0(a5)
    80002134:	0405                	add	s0,s0,1
    80002136:	e380                	sd	s0,0(a5)
    80002138:	fe96e5e3          	bltu	a3,s1,80002122 <sort+0xe2>
    8000213c:	00883403          	ld	s0,8(a6)
    80002140:	00083683          	ld	a3,0(a6)
    80002144:	87fa                	mv	a5,t5
    80002146:	9436                	add	s0,s0,a3
    80002148:	00883423          	sd	s0,8(a6)
    8000214c:	6394                	ld	a3,0(a5)
    8000214e:	6784                	ld	s1,8(a5)
    80002150:	07c1                	add	a5,a5,16
    80002152:	96a2                	add	a3,a3,s0
    80002154:	00968433          	add	s0,a3,s1
    80002158:	fed7b823          	sd	a3,-16(a5)
    8000215c:	fe87bc23          	sd	s0,-8(a5)
    80002160:	fee796e3          	bne	a5,a4,8000214c <sort+0x10c>
    80002164:	01f58a33          	add	s4,a1,t6
    80002168:	00c58a93          	add	s5,a1,12
    8000216c:	095a6f63          	bltu	s4,s5,8000220a <sort+0x1ca>
    80002170:	0006091b          	sext.w	s2,a2
    80002174:	84d2                	mv	s1,s4
    80002176:	0004ac83          	lw	s9,0(s1)
    8000217a:	ffc4ac03          	lw	s8,-4(s1)
    8000217e:	ff84ab03          	lw	s6,-8(s1)
    80002182:	012cd7bb          	srlw	a5,s9,s2
    80002186:	0ff7f793          	zext.b	a5,a5
    8000218a:	078e                	sll	a5,a5,0x3
    8000218c:	97c2                	add	a5,a5,a6
    8000218e:	0007bd03          	ld	s10,0(a5)
    80002192:	012c56bb          	srlw	a3,s8,s2
    80002196:	0ff6f693          	zext.b	a3,a3
    8000219a:	fffd0413          	add	s0,s10,-1
    8000219e:	068e                	sll	a3,a3,0x3
    800021a0:	ff44a983          	lw	s3,-12(s1)
    800021a4:	96c2                	add	a3,a3,a6
    800021a6:	e380                	sd	s0,0(a5)
    800021a8:	6280                	ld	s0,0(a3)
    800021aa:	012b5bbb          	srlw	s7,s6,s2
    800021ae:	0ffbfb93          	zext.b	s7,s7
    800021b2:	fff40793          	add	a5,s0,-1
    800021b6:	0b8e                	sll	s7,s7,0x3
    800021b8:	e29c                	sd	a5,0(a3)
    800021ba:	9bc2                	add	s7,s7,a6
    800021bc:	000bb683          	ld	a3,0(s7)
    800021c0:	0129d7bb          	srlw	a5,s3,s2
    800021c4:	0ff7f793          	zext.b	a5,a5
    800021c8:	fff68d93          	add	s11,a3,-1
    800021cc:	078e                	sll	a5,a5,0x3
    800021ce:	01bbb023          	sd	s11,0(s7)
    800021d2:	97c2                	add	a5,a5,a6
    800021d4:	0007bb83          	ld	s7,0(a5)
    800021d8:	0d0a                	sll	s10,s10,0x2
    800021da:	9d2a                	add	s10,s10,a0
    800021dc:	fffb8d93          	add	s11,s7,-1
    800021e0:	01b7b023          	sd	s11,0(a5)
    800021e4:	040a                	sll	s0,s0,0x2
    800021e6:	ff9d2e23          	sw	s9,-4(s10)
    800021ea:	942a                	add	s0,s0,a0
    800021ec:	068a                	sll	a3,a3,0x2
    800021ee:	ff842e23          	sw	s8,-4(s0)
    800021f2:	96aa                	add	a3,a3,a0
    800021f4:	002b9793          	sll	a5,s7,0x2
    800021f8:	ff66ae23          	sw	s6,-4(a3)
    800021fc:	97aa                	add	a5,a5,a0
    800021fe:	ff37ae23          	sw	s3,-4(a5)
    80002202:	14c1                	add	s1,s1,-16
    80002204:	f754f9e3          	bgeu	s1,s5,80002176 <sort+0x136>
    80002208:	9a1a                	add	s4,s4,t1
    8000220a:	0006091b          	sext.w	s2,a2
    8000220e:	02ba6563          	bltu	s4,a1,80002238 <sort+0x1f8>
    80002212:	000a2483          	lw	s1,0(s4)
    80002216:	1a71                	add	s4,s4,-4
    80002218:	0124d7bb          	srlw	a5,s1,s2
    8000221c:	0ff7f793          	zext.b	a5,a5
    80002220:	078e                	sll	a5,a5,0x3
    80002222:	97c2                	add	a5,a5,a6
    80002224:	6394                	ld	a3,0(a5)
    80002226:	16fd                	add	a3,a3,-1
    80002228:	00269413          	sll	s0,a3,0x2
    8000222c:	e394                	sd	a3,0(a5)
    8000222e:	008507b3          	add	a5,a0,s0
    80002232:	c384                	sw	s1,0(a5)
    80002234:	fcba7fe3          	bgeu	s4,a1,80002212 <sort+0x1d2>
    80002238:	0621                	add	a2,a2,8
    8000223a:	01d60663          	beq	a2,t4,80002246 <sort+0x206>
    8000223e:	87ae                	mv	a5,a1
    80002240:	85aa                	mv	a1,a0
    80002242:	853e                	mv	a0,a5
    80002244:	bd91                	j	80002098 <sort+0x58>
    80002246:	02a28363          	beq	t0,a0,8000226c <sort+0x22c>
    8000224a:	7f010113          	add	sp,sp,2032
    8000224e:	7426                	ld	s0,104(sp)
    80002250:	7486                	ld	s1,96(sp)
    80002252:	6966                	ld	s2,88(sp)
    80002254:	69c6                	ld	s3,80(sp)
    80002256:	6a26                	ld	s4,72(sp)
    80002258:	6a86                	ld	s5,64(sp)
    8000225a:	7b62                	ld	s6,56(sp)
    8000225c:	7bc2                	ld	s7,48(sp)
    8000225e:	7c22                	ld	s8,40(sp)
    80002260:	7c82                	ld	s9,32(sp)
    80002262:	6d62                	ld	s10,24(sp)
    80002264:	6dc2                	ld	s11,16(sp)
    80002266:	8646                	mv	a2,a7
    80002268:	6165                	add	sp,sp,112
    8000226a:	ab21                	j	80002782 <memcpy>
    8000226c:	7f010113          	add	sp,sp,2032
    80002270:	7426                	ld	s0,104(sp)
    80002272:	7486                	ld	s1,96(sp)
    80002274:	6966                	ld	s2,88(sp)
    80002276:	69c6                	ld	s3,80(sp)
    80002278:	6a26                	ld	s4,72(sp)
    8000227a:	6a86                	ld	s5,64(sp)
    8000227c:	7b62                	ld	s6,56(sp)
    8000227e:	7bc2                	ld	s7,48(sp)
    80002280:	7c22                	ld	s8,40(sp)
    80002282:	7c82                	ld	s9,32(sp)
    80002284:	6d62                	ld	s10,24(sp)
    80002286:	6dc2                	ld	s11,16(sp)
    80002288:	6165                	add	sp,sp,112
    8000228a:	8082                	ret
    8000228c:	86ae                	mv	a3,a1
    8000228e:	b561                	j	80002116 <sort+0xd6>

0000000080002290 <vprintfmt>:
    80002290:	7149                	add	sp,sp,-368
    80002292:	f2a2                	sd	s0,352(sp)
    80002294:	eea6                	sd	s1,344(sp)
    80002296:	eaca                	sd	s2,336(sp)
    80002298:	e2d2                	sd	s4,320(sp)
    8000229a:	fe56                	sd	s5,312(sp)
    8000229c:	fa5a                	sd	s6,304(sp)
    8000229e:	f65e                	sd	s7,296(sp)
    800022a0:	f686                	sd	ra,360(sp)
    800022a2:	e6ce                	sd	s3,328(sp)
    800022a4:	f262                	sd	s8,288(sp)
    800022a6:	ee66                	sd	s9,280(sp)
    800022a8:	e66e                	sd	s11,264(sp)
    800022aa:	892a                	mv	s2,a0
    800022ac:	84ae                	mv	s1,a1
    800022ae:	8432                	mv	s0,a2
    800022b0:	8bb6                	mv	s7,a3
    800022b2:	02500a13          	li	s4,37
    800022b6:	05500b13          	li	s6,85
    800022ba:	00001a97          	auipc	s5,0x1
    800022be:	832a8a93          	add	s5,s5,-1998 # 80002aec <main+0xd0>
    800022c2:	a029                	j	800022cc <vprintfmt+0x3c>
    800022c4:	cd1d                	beqz	a0,80002302 <vprintfmt+0x72>
    800022c6:	85a6                	mv	a1,s1
    800022c8:	0405                	add	s0,s0,1
    800022ca:	9902                	jalr	s2
    800022cc:	00044503          	lbu	a0,0(s0)
    800022d0:	ff451ae3          	bne	a0,s4,800022c4 <vprintfmt+0x34>
    800022d4:	00144683          	lbu	a3,1(s0)
    800022d8:	00140993          	add	s3,s0,1
    800022dc:	874e                	mv	a4,s3
    800022de:	02000c93          	li	s9,32
    800022e2:	5c7d                	li	s8,-1
    800022e4:	5dfd                	li	s11,-1
    800022e6:	4581                	li	a1,0
    800022e8:	fdd6879b          	addw	a5,a3,-35
    800022ec:	0ff7f793          	zext.b	a5,a5
    800022f0:	00170413          	add	s0,a4,1
    800022f4:	04fb6163          	bltu	s6,a5,80002336 <vprintfmt+0xa6>
    800022f8:	078a                	sll	a5,a5,0x2
    800022fa:	97d6                	add	a5,a5,s5
    800022fc:	439c                	lw	a5,0(a5)
    800022fe:	97d6                	add	a5,a5,s5
    80002300:	8782                	jr	a5
    80002302:	70b6                	ld	ra,360(sp)
    80002304:	7416                	ld	s0,352(sp)
    80002306:	64f6                	ld	s1,344(sp)
    80002308:	6956                	ld	s2,336(sp)
    8000230a:	69b6                	ld	s3,328(sp)
    8000230c:	6a16                	ld	s4,320(sp)
    8000230e:	7af2                	ld	s5,312(sp)
    80002310:	7b52                	ld	s6,304(sp)
    80002312:	7bb2                	ld	s7,296(sp)
    80002314:	7c12                	ld	s8,288(sp)
    80002316:	6cf2                	ld	s9,280(sp)
    80002318:	6db2                	ld	s11,264(sp)
    8000231a:	6175                	add	sp,sp,368
    8000231c:	8082                	ret
    8000231e:	8cb6                	mv	s9,a3
    80002320:	00174683          	lbu	a3,1(a4)
    80002324:	8722                	mv	a4,s0
    80002326:	00170413          	add	s0,a4,1
    8000232a:	fdd6879b          	addw	a5,a3,-35
    8000232e:	0ff7f793          	zext.b	a5,a5
    80002332:	fcfb73e3          	bgeu	s6,a5,800022f8 <vprintfmt+0x68>
    80002336:	85a6                	mv	a1,s1
    80002338:	02500513          	li	a0,37
    8000233c:	9902                	jalr	s2
    8000233e:	844e                	mv	s0,s3
    80002340:	b771                	j	800022cc <vprintfmt+0x3c>
    80002342:	fd068c1b          	addw	s8,a3,-48
    80002346:	00174683          	lbu	a3,1(a4)
    8000234a:	47a5                	li	a5,9
    8000234c:	fd06871b          	addw	a4,a3,-48
    80002350:	0006861b          	sext.w	a2,a3
    80002354:	20e7ef63          	bltu	a5,a4,80002572 <vprintfmt+0x2e2>
    80002358:	8722                	mv	a4,s0
    8000235a:	4825                	li	a6,9
    8000235c:	00174683          	lbu	a3,1(a4)
    80002360:	002c179b          	sllw	a5,s8,0x2
    80002364:	018787bb          	addw	a5,a5,s8
    80002368:	0017979b          	sllw	a5,a5,0x1
    8000236c:	9fb1                	addw	a5,a5,a2
    8000236e:	fd06851b          	addw	a0,a3,-48
    80002372:	0705                	add	a4,a4,1
    80002374:	fd078c1b          	addw	s8,a5,-48
    80002378:	0006861b          	sext.w	a2,a3
    8000237c:	fea870e3          	bgeu	a6,a0,8000235c <vprintfmt+0xcc>
    80002380:	f60dd4e3          	bgez	s11,800022e8 <vprintfmt+0x58>
    80002384:	8de2                	mv	s11,s8
    80002386:	5c7d                	li	s8,-1
    80002388:	b785                	j	800022e8 <vprintfmt+0x58>
    8000238a:	00174683          	lbu	a3,1(a4)
    8000238e:	8722                	mv	a4,s0
    80002390:	bfa1                	j	800022e8 <vprintfmt+0x58>
    80002392:	85a6                	mv	a1,s1
    80002394:	02500513          	li	a0,37
    80002398:	9902                	jalr	s2
    8000239a:	bf0d                	j	800022cc <vprintfmt+0x3c>
    8000239c:	000bac03          	lw	s8,0(s7)
    800023a0:	00174683          	lbu	a3,1(a4)
    800023a4:	0ba1                	add	s7,s7,8
    800023a6:	8722                	mv	a4,s0
    800023a8:	bfe1                	j	80002380 <vprintfmt+0xf0>
    800023aa:	85a6                	mv	a1,s1
    800023ac:	03000513          	li	a0,48
    800023b0:	ea6a                	sd	s10,272(sp)
    800023b2:	9902                	jalr	s2
    800023b4:	85a6                	mv	a1,s1
    800023b6:	07800513          	li	a0,120
    800023ba:	9902                	jalr	s2
    800023bc:	4641                	li	a2,16
    800023be:	008b8713          	add	a4,s7,8
    800023c2:	000bb783          	ld	a5,0(s7)
    800023c6:	8bba                	mv	s7,a4
    800023c8:	02c7f5b3          	remu	a1,a5,a2
    800023cc:	000c899b          	sext.w	s3,s9
    800023d0:	0054                	add	a3,sp,4
    800023d2:	4705                	li	a4,1
    800023d4:	c02e                	sw	a1,0(sp)
    800023d6:	16c7ea63          	bltu	a5,a2,8000254a <vprintfmt+0x2ba>
    800023da:	02c7d7b3          	divu	a5,a5,a2
    800023de:	0691                	add	a3,a3,4
    800023e0:	8c3a                	mv	s8,a4
    800023e2:	2705                	addw	a4,a4,1
    800023e4:	02c7f5b3          	remu	a1,a5,a2
    800023e8:	feb6ae23          	sw	a1,-4(a3)
    800023ec:	fec7f7e3          	bgeu	a5,a2,800023da <vprintfmt+0x14a>
    800023f0:	fffd8c9b          	addw	s9,s11,-1
    800023f4:	fff70d1b          	addw	s10,a4,-1
    800023f8:	01b75863          	bge	a4,s11,80002408 <vprintfmt+0x178>
    800023fc:	85a6                	mv	a1,s1
    800023fe:	854e                	mv	a0,s3
    80002400:	3cfd                	addw	s9,s9,-1
    80002402:	9902                	jalr	s2
    80002404:	ffac9ce3          	bne	s9,s10,800023fc <vprintfmt+0x16c>
    80002408:	0c0a                	sll	s8,s8,0x2
    8000240a:	018109b3          	add	s3,sp,s8
    8000240e:	ffc10c93          	add	s9,sp,-4
    80002412:	4c25                	li	s8,9
    80002414:	0009a783          	lw	a5,0(s3)
    80002418:	03000513          	li	a0,48
    8000241c:	00fc7463          	bgeu	s8,a5,80002424 <vprintfmt+0x194>
    80002420:	05700513          	li	a0,87
    80002424:	85a6                	mv	a1,s1
    80002426:	9d3d                	addw	a0,a0,a5
    80002428:	19f1                	add	s3,s3,-4
    8000242a:	9902                	jalr	s2
    8000242c:	ff9994e3          	bne	s3,s9,80002414 <vprintfmt+0x184>
    80002430:	6d52                	ld	s10,272(sp)
    80002432:	bd69                	j	800022cc <vprintfmt+0x3c>
    80002434:	ea6a                	sd	s10,272(sp)
    80002436:	4785                	li	a5,1
    80002438:	008b8c13          	add	s8,s7,8
    8000243c:	00b7c463          	blt	a5,a1,80002444 <vprintfmt+0x1b4>
    80002440:	10058763          	beqz	a1,8000254e <vprintfmt+0x2be>
    80002444:	000bb983          	ld	s3,0(s7)
    80002448:	1009cc63          	bltz	s3,80002560 <vprintfmt+0x2d0>
    8000244c:	87ce                	mv	a5,s3
    8000244e:	8be2                	mv	s7,s8
    80002450:	4629                	li	a2,10
    80002452:	bf9d                	j	800023c8 <vprintfmt+0x138>
    80002454:	00174683          	lbu	a3,1(a4)
    80002458:	2585                	addw	a1,a1,1
    8000245a:	8722                	mv	a4,s0
    8000245c:	b571                	j	800022e8 <vprintfmt+0x58>
    8000245e:	ea6a                	sd	s10,272(sp)
    80002460:	4641                	li	a2,16
    80002462:	4785                	li	a5,1
    80002464:	008b8713          	add	a4,s7,8
    80002468:	f4b7cde3          	blt	a5,a1,800023c2 <vprintfmt+0x132>
    8000246c:	f9b9                	bnez	a1,800023c2 <vprintfmt+0x132>
    8000246e:	000be783          	lwu	a5,0(s7)
    80002472:	8bba                	mv	s7,a4
    80002474:	bf91                	j	800023c8 <vprintfmt+0x138>
    80002476:	ea6a                	sd	s10,272(sp)
    80002478:	000bbd03          	ld	s10,0(s7)
    8000247c:	0ba1                	add	s7,s7,8
    8000247e:	040d0363          	beqz	s10,800024c4 <vprintfmt+0x234>
    80002482:	09b05e63          	blez	s11,8000251e <vprintfmt+0x28e>
    80002486:	02d00793          	li	a5,45
    8000248a:	04fc9f63          	bne	s9,a5,800024e8 <vprintfmt+0x258>
    8000248e:	000d4503          	lbu	a0,0(s10)
    80002492:	c105                	beqz	a0,800024b2 <vprintfmt+0x222>
    80002494:	59fd                	li	s3,-1
    80002496:	000c4563          	bltz	s8,800024a0 <vprintfmt+0x210>
    8000249a:	3c7d                	addw	s8,s8,-1
    8000249c:	013c0963          	beq	s8,s3,800024ae <vprintfmt+0x21e>
    800024a0:	85a6                	mv	a1,s1
    800024a2:	9902                	jalr	s2
    800024a4:	001d4503          	lbu	a0,1(s10)
    800024a8:	3dfd                	addw	s11,s11,-1
    800024aa:	0d05                	add	s10,s10,1
    800024ac:	f56d                	bnez	a0,80002496 <vprintfmt+0x206>
    800024ae:	f9b051e3          	blez	s11,80002430 <vprintfmt+0x1a0>
    800024b2:	85a6                	mv	a1,s1
    800024b4:	02000513          	li	a0,32
    800024b8:	3dfd                	addw	s11,s11,-1
    800024ba:	9902                	jalr	s2
    800024bc:	fe0d9be3          	bnez	s11,800024b2 <vprintfmt+0x222>
    800024c0:	6d52                	ld	s10,272(sp)
    800024c2:	b529                	j	800022cc <vprintfmt+0x3c>
    800024c4:	00000d17          	auipc	s10,0x0
    800024c8:	5dcd0d13          	add	s10,s10,1500 # 80002aa0 <main+0x84>
    800024cc:	02800513          	li	a0,40
    800024d0:	fdb052e3          	blez	s11,80002494 <vprintfmt+0x204>
    800024d4:	02d00793          	li	a5,45
    800024d8:	00000d17          	auipc	s10,0x0
    800024dc:	5c8d0d13          	add	s10,s10,1480 # 80002aa0 <main+0x84>
    800024e0:	02800513          	li	a0,40
    800024e4:	fafc88e3          	beq	s9,a5,80002494 <vprintfmt+0x204>
    800024e8:	000d861b          	sext.w	a2,s11
    800024ec:	87ea                	mv	a5,s10
    800024ee:	018d06b3          	add	a3,s10,s8
    800024f2:	000c1663          	bnez	s8,800024fe <vprintfmt+0x26e>
    800024f6:	a829                	j	80002510 <vprintfmt+0x280>
    800024f8:	0785                	add	a5,a5,1
    800024fa:	00d78563          	beq	a5,a3,80002504 <vprintfmt+0x274>
    800024fe:	0007c703          	lbu	a4,0(a5)
    80002502:	fb7d                	bnez	a4,800024f8 <vprintfmt+0x268>
    80002504:	41a787b3          	sub	a5,a5,s10
    80002508:	40f60dbb          	subw	s11,a2,a5
    8000250c:	01b05963          	blez	s11,8000251e <vprintfmt+0x28e>
    80002510:	2c81                	sext.w	s9,s9
    80002512:	85a6                	mv	a1,s1
    80002514:	8566                	mv	a0,s9
    80002516:	3dfd                	addw	s11,s11,-1
    80002518:	9902                	jalr	s2
    8000251a:	fe0d9ce3          	bnez	s11,80002512 <vprintfmt+0x282>
    8000251e:	000d4503          	lbu	a0,0(s10)
    80002522:	d519                	beqz	a0,80002430 <vprintfmt+0x1a0>
    80002524:	59fd                	li	s3,-1
    80002526:	bf85                	j	80002496 <vprintfmt+0x206>
    80002528:	fffdc793          	not	a5,s11
    8000252c:	97fd                	sra	a5,a5,0x3f
    8000252e:	00fdf7b3          	and	a5,s11,a5
    80002532:	00174683          	lbu	a3,1(a4)
    80002536:	00078d9b          	sext.w	s11,a5
    8000253a:	8722                	mv	a4,s0
    8000253c:	b375                	j	800022e8 <vprintfmt+0x58>
    8000253e:	000ba503          	lw	a0,0(s7)
    80002542:	85a6                	mv	a1,s1
    80002544:	0ba1                	add	s7,s7,8
    80002546:	9902                	jalr	s2
    80002548:	b351                	j	800022cc <vprintfmt+0x3c>
    8000254a:	4c01                	li	s8,0
    8000254c:	b555                	j	800023f0 <vprintfmt+0x160>
    8000254e:	000ba983          	lw	s3,0(s7)
    80002552:	bddd                	j	80002448 <vprintfmt+0x1b8>
    80002554:	ea6a                	sd	s10,272(sp)
    80002556:	4629                	li	a2,10
    80002558:	b729                	j	80002462 <vprintfmt+0x1d2>
    8000255a:	ea6a                	sd	s10,272(sp)
    8000255c:	4621                	li	a2,8
    8000255e:	b711                	j	80002462 <vprintfmt+0x1d2>
    80002560:	85a6                	mv	a1,s1
    80002562:	02d00513          	li	a0,45
    80002566:	9902                	jalr	s2
    80002568:	413007b3          	neg	a5,s3
    8000256c:	8be2                	mv	s7,s8
    8000256e:	4629                	li	a2,10
    80002570:	bda1                	j	800023c8 <vprintfmt+0x138>
    80002572:	8722                	mv	a4,s0
    80002574:	b531                	j	80002380 <vprintfmt+0xf0>

0000000080002576 <sprintf_putch.0>:
    80002576:	619c                	ld	a5,0(a1)
    80002578:	00a78023          	sb	a0,0(a5)
    8000257c:	619c                	ld	a5,0(a1)
    8000257e:	0785                	add	a5,a5,1
    80002580:	e19c                	sd	a5,0(a1)
    80002582:	8082                	ret

0000000080002584 <putchar>:
    80002584:	04022803          	lw	a6,64(tp) # 40 <buflen.1>
    80002588:	00020793          	mv	a5,tp
    8000258c:	97c2                	add	a5,a5,a6
    8000258e:	7159                	add	sp,sp,-112
    80002590:	0018069b          	addw	a3,a6,1
    80002594:	04d22023          	sw	a3,64(tp) # 40 <buflen.1>
    80002598:	00a78023          	sb	a0,0(a5)
    8000259c:	03f10713          	add	a4,sp,63
    800025a0:	47a9                	li	a5,10
    800025a2:	fc077713          	and	a4,a4,-64
    800025a6:	00f50963          	beq	a0,a5,800025b8 <putchar+0x34>
    800025aa:	04000793          	li	a5,64
    800025ae:	00f68563          	beq	a3,a5,800025b8 <putchar+0x34>
    800025b2:	4501                	li	a0,0
    800025b4:	6165                	add	sp,sp,112
    800025b6:	8082                	ret
    800025b8:	04000793          	li	a5,64
    800025bc:	e31c                	sd	a5,0(a4)
    800025be:	4785                	li	a5,1
    800025c0:	e71c                	sd	a5,8(a4)
    800025c2:	00020613          	mv	a2,tp
    800025c6:	eb10                	sd	a2,16(a4)
    800025c8:	ef14                	sd	a3,24(a4)
    800025ca:	0ff0000f          	fence
    800025ce:	fffff697          	auipc	a3,0xfffff
    800025d2:	a7268693          	add	a3,a3,-1422 # 80001040 <fromhost>
    800025d6:	fffff797          	auipc	a5,0xfffff
    800025da:	a2e7b523          	sd	a4,-1494(a5) # 80001000 <tohost>
    800025de:	629c                	ld	a5,0(a3)
    800025e0:	dffd                	beqz	a5,800025de <putchar+0x5a>
    800025e2:	fffff797          	auipc	a5,0xfffff
    800025e6:	a407bf23          	sd	zero,-1442(a5) # 80001040 <fromhost>
    800025ea:	0ff0000f          	fence
    800025ee:	04022023          	sw	zero,64(tp) # 40 <buflen.1>
    800025f2:	631c                	ld	a5,0(a4)
    800025f4:	4501                	li	a0,0
    800025f6:	6165                	add	sp,sp,112
    800025f8:	8082                	ret

00000000800025fa <setStats>:
    800025fa:	b0002773          	csrr	a4,mcycle
    800025fe:	00006797          	auipc	a5,0x6
    80002602:	64a78793          	add	a5,a5,1610 # 80008c48 <counters>
    80002606:	c511                	beqz	a0,80002612 <setStats+0x18>
    80002608:	e398                	sd	a4,0(a5)
    8000260a:	b0202773          	csrr	a4,minstret
    8000260e:	e798                	sd	a4,8(a5)
    80002610:	8082                	ret
    80002612:	6394                	ld	a3,0(a5)
    80002614:	00000617          	auipc	a2,0x0
    80002618:	49c60613          	add	a2,a2,1180 # 80002ab0 <main+0x94>
    8000261c:	eb90                	sd	a2,16(a5)
    8000261e:	8f15                	sub	a4,a4,a3
    80002620:	e398                	sd	a4,0(a5)
    80002622:	b0202773          	csrr	a4,minstret
    80002626:	6794                	ld	a3,8(a5)
    80002628:	00000617          	auipc	a2,0x0
    8000262c:	49060613          	add	a2,a2,1168 # 80002ab8 <main+0x9c>
    80002630:	ef90                	sd	a2,24(a5)
    80002632:	8f15                	sub	a4,a4,a3
    80002634:	e798                	sd	a4,8(a5)
    80002636:	8082                	ret

0000000080002638 <tohost_exit>:
    80002638:	00151793          	sll	a5,a0,0x1
    8000263c:	0017e793          	or	a5,a5,1
    80002640:	fffff717          	auipc	a4,0xfffff
    80002644:	9cf73023          	sd	a5,-1600(a4) # 80001000 <tohost>
    80002648:	a001                	j	80002648 <tohost_exit+0x10>

000000008000264a <handle_trap>:
    8000264a:	6785                	lui	a5,0x1
    8000264c:	a7378793          	add	a5,a5,-1421 # a73 <buflen.1+0xa33>
    80002650:	fffff717          	auipc	a4,0xfffff
    80002654:	9af73823          	sd	a5,-1616(a4) # 80001000 <tohost>
    80002658:	a001                	j	80002658 <handle_trap+0xe>

000000008000265a <exit>:
    8000265a:	1141                	add	sp,sp,-16
    8000265c:	e406                	sd	ra,8(sp)
    8000265e:	fdbff0ef          	jal	80002638 <tohost_exit>

0000000080002662 <abort>:
    80002662:	10d00793          	li	a5,269
    80002666:	fffff717          	auipc	a4,0xfffff
    8000266a:	98f73d23          	sd	a5,-1638(a4) # 80001000 <tohost>
    8000266e:	a001                	j	8000266e <abort+0xc>

0000000080002670 <printstr>:
    80002670:	00054783          	lbu	a5,0(a0)
    80002674:	7159                	add	sp,sp,-112
    80002676:	03f10693          	add	a3,sp,63
    8000267a:	fc06f693          	and	a3,a3,-64
    8000267e:	c3b9                	beqz	a5,800026c4 <printstr+0x54>
    80002680:	87aa                	mv	a5,a0
    80002682:	0017c703          	lbu	a4,1(a5)
    80002686:	0785                	add	a5,a5,1
    80002688:	ff6d                	bnez	a4,80002682 <printstr+0x12>
    8000268a:	8f89                	sub	a5,a5,a0
    8000268c:	04000713          	li	a4,64
    80002690:	e298                	sd	a4,0(a3)
    80002692:	4705                	li	a4,1
    80002694:	e698                	sd	a4,8(a3)
    80002696:	ea88                	sd	a0,16(a3)
    80002698:	ee9c                	sd	a5,24(a3)
    8000269a:	0ff0000f          	fence
    8000269e:	fffff717          	auipc	a4,0xfffff
    800026a2:	9a270713          	add	a4,a4,-1630 # 80001040 <fromhost>
    800026a6:	fffff797          	auipc	a5,0xfffff
    800026aa:	94d7bd23          	sd	a3,-1702(a5) # 80001000 <tohost>
    800026ae:	631c                	ld	a5,0(a4)
    800026b0:	dffd                	beqz	a5,800026ae <printstr+0x3e>
    800026b2:	fffff797          	auipc	a5,0xfffff
    800026b6:	9807b723          	sd	zero,-1650(a5) # 80001040 <fromhost>
    800026ba:	0ff0000f          	fence
    800026be:	629c                	ld	a5,0(a3)
    800026c0:	6165                	add	sp,sp,112
    800026c2:	8082                	ret
    800026c4:	4781                	li	a5,0
    800026c6:	b7d9                	j	8000268c <printstr+0x1c>

00000000800026c8 <thread_entry>:
    800026c8:	c111                	beqz	a0,800026cc <thread_entry+0x4>
    800026ca:	a001                	j	800026ca <thread_entry+0x2>
    800026cc:	8082                	ret

00000000800026ce <printhex>:
    800026ce:	7179                	add	sp,sp,-48
    800026d0:	87aa                	mv	a5,a0
    800026d2:	f406                	sd	ra,40(sp)
    800026d4:	0028                	add	a0,sp,8
    800026d6:	01710713          	add	a4,sp,23
    800026da:	4825                	li	a6,9
    800026dc:	a011                	j	800026e0 <printhex+0x12>
    800026de:	8736                	mv	a4,a3
    800026e0:	00f7f613          	and	a2,a5,15
    800026e4:	86b2                	mv	a3,a2
    800026e6:	03000593          	li	a1,48
    800026ea:	00c87463          	bgeu	a6,a2,800026f2 <printhex+0x24>
    800026ee:	05700593          	li	a1,87
    800026f2:	9ead                	addw	a3,a3,a1
    800026f4:	00d70023          	sb	a3,0(a4)
    800026f8:	8391                	srl	a5,a5,0x4
    800026fa:	fff70693          	add	a3,a4,-1
    800026fe:	fee510e3          	bne	a0,a4,800026de <printhex+0x10>
    80002702:	00010c23          	sb	zero,24(sp)
    80002706:	f6bff0ef          	jal	80002670 <printstr>
    8000270a:	70a2                	ld	ra,40(sp)
    8000270c:	6145                	add	sp,sp,48
    8000270e:	8082                	ret

0000000080002710 <printf>:
    80002710:	711d                	add	sp,sp,-96
    80002712:	02810313          	add	t1,sp,40
    80002716:	f42e                	sd	a1,40(sp)
    80002718:	f832                	sd	a2,48(sp)
    8000271a:	fc36                	sd	a3,56(sp)
    8000271c:	862a                	mv	a2,a0
    8000271e:	869a                	mv	a3,t1
    80002720:	00000517          	auipc	a0,0x0
    80002724:	e6450513          	add	a0,a0,-412 # 80002584 <putchar>
    80002728:	4581                	li	a1,0
    8000272a:	ec06                	sd	ra,24(sp)
    8000272c:	e0ba                	sd	a4,64(sp)
    8000272e:	e4be                	sd	a5,72(sp)
    80002730:	e8c2                	sd	a6,80(sp)
    80002732:	ecc6                	sd	a7,88(sp)
    80002734:	e41a                	sd	t1,8(sp)
    80002736:	b5bff0ef          	jal	80002290 <vprintfmt>
    8000273a:	60e2                	ld	ra,24(sp)
    8000273c:	4501                	li	a0,0
    8000273e:	6125                	add	sp,sp,96
    80002740:	8082                	ret

0000000080002742 <sprintf>:
    80002742:	711d                	add	sp,sp,-96
    80002744:	03010e13          	add	t3,sp,48
    80002748:	f022                	sd	s0,32(sp)
    8000274a:	e42a                	sd	a0,8(sp)
    8000274c:	842a                	mv	s0,a0
    8000274e:	f832                	sd	a2,48(sp)
    80002750:	fc36                	sd	a3,56(sp)
    80002752:	862e                	mv	a2,a1
    80002754:	00000517          	auipc	a0,0x0
    80002758:	e2250513          	add	a0,a0,-478 # 80002576 <sprintf_putch.0>
    8000275c:	002c                	add	a1,sp,8
    8000275e:	86f2                	mv	a3,t3
    80002760:	f406                	sd	ra,40(sp)
    80002762:	e4be                	sd	a5,72(sp)
    80002764:	e0ba                	sd	a4,64(sp)
    80002766:	e8c2                	sd	a6,80(sp)
    80002768:	ecc6                	sd	a7,88(sp)
    8000276a:	ec72                	sd	t3,24(sp)
    8000276c:	b25ff0ef          	jal	80002290 <vprintfmt>
    80002770:	67a2                	ld	a5,8(sp)
    80002772:	00078023          	sb	zero,0(a5)
    80002776:	6522                	ld	a0,8(sp)
    80002778:	70a2                	ld	ra,40(sp)
    8000277a:	9d01                	subw	a0,a0,s0
    8000277c:	7402                	ld	s0,32(sp)
    8000277e:	6125                	add	sp,sp,96
    80002780:	8082                	ret

0000000080002782 <memcpy>:
    80002782:	00c5e7b3          	or	a5,a1,a2
    80002786:	8fc9                	or	a5,a5,a0
    80002788:	8b9d                	and	a5,a5,7
    8000278a:	00c50833          	add	a6,a0,a2
    8000278e:	cf91                	beqz	a5,800027aa <memcpy+0x28>
    80002790:	962e                	add	a2,a2,a1
    80002792:	87aa                	mv	a5,a0
    80002794:	09057c63          	bgeu	a0,a6,8000282c <memcpy+0xaa>
    80002798:	0005c703          	lbu	a4,0(a1)
    8000279c:	0585                	add	a1,a1,1
    8000279e:	0785                	add	a5,a5,1
    800027a0:	fee78fa3          	sb	a4,-1(a5)
    800027a4:	fec59ae3          	bne	a1,a2,80002798 <memcpy+0x16>
    800027a8:	8082                	ret
    800027aa:	04050693          	add	a3,a0,64
    800027ae:	0906f063          	bgeu	a3,a6,8000282e <memcpy+0xac>
    800027b2:	87b6                	mv	a5,a3
    800027b4:	872e                	mv	a4,a1
    800027b6:	00073383          	ld	t2,0(a4)
    800027ba:	00873283          	ld	t0,8(a4)
    800027be:	01073f83          	ld	t6,16(a4)
    800027c2:	01873f03          	ld	t5,24(a4)
    800027c6:	02073e83          	ld	t4,32(a4)
    800027ca:	02873e03          	ld	t3,40(a4)
    800027ce:	03073303          	ld	t1,48(a4)
    800027d2:	03873883          	ld	a7,56(a4)
    800027d6:	04078793          	add	a5,a5,64
    800027da:	f877b023          	sd	t2,-128(a5)
    800027de:	f857b423          	sd	t0,-120(a5)
    800027e2:	f9f7b823          	sd	t6,-112(a5)
    800027e6:	f9e7bc23          	sd	t5,-104(a5)
    800027ea:	fbd7b023          	sd	t4,-96(a5)
    800027ee:	fbc7b423          	sd	t3,-88(a5)
    800027f2:	fa67b823          	sd	t1,-80(a5)
    800027f6:	fb17bc23          	sd	a7,-72(a5)
    800027fa:	04070713          	add	a4,a4,64
    800027fe:	fb07ece3          	bltu	a5,a6,800027b6 <memcpy+0x34>
    80002802:	fbf60613          	add	a2,a2,-65
    80002806:	fc067793          	and	a5,a2,-64
    8000280a:	04078793          	add	a5,a5,64
    8000280e:	fc067613          	and	a2,a2,-64
    80002812:	95be                	add	a1,a1,a5
    80002814:	00c687b3          	add	a5,a3,a2
    80002818:	f907f8e3          	bgeu	a5,a6,800027a8 <memcpy+0x26>
    8000281c:	6198                	ld	a4,0(a1)
    8000281e:	07a1                	add	a5,a5,8
    80002820:	05a1                	add	a1,a1,8
    80002822:	fee7bc23          	sd	a4,-8(a5)
    80002826:	ff07ebe3          	bltu	a5,a6,8000281c <memcpy+0x9a>
    8000282a:	8082                	ret
    8000282c:	8082                	ret
    8000282e:	87aa                	mv	a5,a0
    80002830:	b7e5                	j	80002818 <memcpy+0x96>

0000000080002832 <memset>:
    80002832:	00c567b3          	or	a5,a0,a2
    80002836:	8b9d                	and	a5,a5,7
    80002838:	962a                	add	a2,a2,a0
    8000283a:	cf81                	beqz	a5,80002852 <memset+0x20>
    8000283c:	0ff5f713          	zext.b	a4,a1
    80002840:	87aa                	mv	a5,a0
    80002842:	02c57f63          	bgeu	a0,a2,80002880 <memset+0x4e>
    80002846:	0785                	add	a5,a5,1
    80002848:	fee78fa3          	sb	a4,-1(a5)
    8000284c:	fec79de3          	bne	a5,a2,80002846 <memset+0x14>
    80002850:	8082                	ret
    80002852:	010107b7          	lui	a5,0x1010
    80002856:	10178793          	add	a5,a5,257 # 1010101 <buflen.1+0x10100c1>
    8000285a:	07c2                	sll	a5,a5,0x10
    8000285c:	10178793          	add	a5,a5,257
    80002860:	07c2                	sll	a5,a5,0x10
    80002862:	0ff5f713          	zext.b	a4,a1
    80002866:	10178793          	add	a5,a5,257
    8000286a:	02f70733          	mul	a4,a4,a5
    8000286e:	fec571e3          	bgeu	a0,a2,80002850 <memset+0x1e>
    80002872:	87aa                	mv	a5,a0
    80002874:	07a1                	add	a5,a5,8
    80002876:	fee7bc23          	sd	a4,-8(a5)
    8000287a:	fec7ede3          	bltu	a5,a2,80002874 <memset+0x42>
    8000287e:	8082                	ret
    80002880:	8082                	ret

0000000080002882 <_init>:
    80002882:	7171                	add	sp,sp,-176
    80002884:	00006797          	auipc	a5,0x6
    80002888:	3e478793          	add	a5,a5,996 # 80008c68 <_tdata_begin>
    8000288c:	e152                	sd	s4,128(sp)
    8000288e:	00006a17          	auipc	s4,0x6
    80002892:	3daa0a13          	add	s4,s4,986 # 80008c68 <_tdata_begin>
    80002896:	e54e                	sd	s3,136(sp)
    80002898:	40fa09b3          	sub	s3,s4,a5
    8000289c:	ed26                	sd	s1,152(sp)
    8000289e:	e94a                	sd	s2,144(sp)
    800028a0:	84aa                	mv	s1,a0
    800028a2:	892e                	mv	s2,a1
    800028a4:	8512                	mv	a0,tp
    800028a6:	85be                	mv	a1,a5
    800028a8:	864e                	mv	a2,s3
    800028aa:	f506                	sd	ra,168(sp)
    800028ac:	f122                	sd	s0,160(sp)
    800028ae:	fcd6                	sd	s5,120(sp)
    800028b0:	8a92                	mv	s5,tp
    800028b2:	ed1ff0ef          	jal	80002782 <memcpy>
    800028b6:	00006617          	auipc	a2,0x6
    800028ba:	40e60613          	add	a2,a2,1038 # 80008cc4 <_tbss_end>
    800028be:	41460633          	sub	a2,a2,s4
    800028c2:	4581                	li	a1,0
    800028c4:	013a8533          	add	a0,s5,s3
    800028c8:	f6bff0ef          	jal	80002832 <memset>
    800028cc:	85ca                	mv	a1,s2
    800028ce:	8526                	mv	a0,s1
    800028d0:	df9ff0ef          	jal	800026c8 <thread_entry>
    800028d4:	4581                	li	a1,0
    800028d6:	4501                	li	a0,0
    800028d8:	144000ef          	jal	80002a1c <main>
    800028dc:	00006917          	auipc	s2,0x6
    800028e0:	36c90913          	add	s2,s2,876 # 80008c48 <counters>
    800028e4:	00093683          	ld	a3,0(s2)
    800028e8:	03f10413          	add	s0,sp,63
    800028ec:	fc047413          	and	s0,s0,-64
    800028f0:	84aa                	mv	s1,a0
    800028f2:	ea85                	bnez	a3,80002922 <_init+0xa0>
    800028f4:	00893683          	ld	a3,8(s2)
    800028f8:	e681                	bnez	a3,80002900 <_init+0x7e>
    800028fa:	8526                	mv	a0,s1
    800028fc:	d3dff0ef          	jal	80002638 <tohost_exit>
    80002900:	89a2                	mv	s3,s0
    80002902:	01893603          	ld	a2,24(s2)
    80002906:	854e                	mv	a0,s3
    80002908:	00000597          	auipc	a1,0x0
    8000290c:	1d858593          	add	a1,a1,472 # 80002ae0 <main+0xc4>
    80002910:	e33ff0ef          	jal	80002742 <sprintf>
    80002914:	99aa                	add	s3,s3,a0
    80002916:	ff3402e3          	beq	s0,s3,800028fa <_init+0x78>
    8000291a:	8522                	mv	a0,s0
    8000291c:	d55ff0ef          	jal	80002670 <printstr>
    80002920:	bfe9                	j	800028fa <_init+0x78>
    80002922:	01093603          	ld	a2,16(s2)
    80002926:	00000597          	auipc	a1,0x0
    8000292a:	1ba58593          	add	a1,a1,442 # 80002ae0 <main+0xc4>
    8000292e:	8522                	mv	a0,s0
    80002930:	e13ff0ef          	jal	80002742 <sprintf>
    80002934:	00893683          	ld	a3,8(s2)
    80002938:	00a409b3          	add	s3,s0,a0
    8000293c:	dee9                	beqz	a3,80002916 <_init+0x94>
    8000293e:	b7d1                	j	80002902 <_init+0x80>

0000000080002940 <strlen>:
    80002940:	00054783          	lbu	a5,0(a0)
    80002944:	cb89                	beqz	a5,80002956 <strlen+0x16>
    80002946:	87aa                	mv	a5,a0
    80002948:	0017c703          	lbu	a4,1(a5)
    8000294c:	0785                	add	a5,a5,1
    8000294e:	ff6d                	bnez	a4,80002948 <strlen+0x8>
    80002950:	40a78533          	sub	a0,a5,a0
    80002954:	8082                	ret
    80002956:	4501                	li	a0,0
    80002958:	8082                	ret

000000008000295a <strnlen>:
    8000295a:	00b506b3          	add	a3,a0,a1
    8000295e:	87aa                	mv	a5,a0
    80002960:	e589                	bnez	a1,8000296a <strnlen+0x10>
    80002962:	a829                	j	8000297c <strnlen+0x22>
    80002964:	0785                	add	a5,a5,1
    80002966:	00f68863          	beq	a3,a5,80002976 <strnlen+0x1c>
    8000296a:	0007c703          	lbu	a4,0(a5)
    8000296e:	fb7d                	bnez	a4,80002964 <strnlen+0xa>
    80002970:	40a78533          	sub	a0,a5,a0
    80002974:	8082                	ret
    80002976:	40a68533          	sub	a0,a3,a0
    8000297a:	8082                	ret
    8000297c:	4501                	li	a0,0
    8000297e:	8082                	ret

0000000080002980 <strcmp>:
    80002980:	00054783          	lbu	a5,0(a0)
    80002984:	0585                	add	a1,a1,1
    80002986:	0505                	add	a0,a0,1
    80002988:	fff5c703          	lbu	a4,-1(a1)
    8000298c:	c799                	beqz	a5,8000299a <strcmp+0x1a>
    8000298e:	fee789e3          	beq	a5,a4,80002980 <strcmp>
    80002992:	0007851b          	sext.w	a0,a5
    80002996:	9d19                	subw	a0,a0,a4
    80002998:	8082                	ret
    8000299a:	4501                	li	a0,0
    8000299c:	bfed                	j	80002996 <strcmp+0x16>

000000008000299e <strcpy>:
    8000299e:	87aa                	mv	a5,a0
    800029a0:	0005c703          	lbu	a4,0(a1)
    800029a4:	0785                	add	a5,a5,1
    800029a6:	0585                	add	a1,a1,1
    800029a8:	fee78fa3          	sb	a4,-1(a5)
    800029ac:	fb75                	bnez	a4,800029a0 <strcpy+0x2>
    800029ae:	8082                	ret

00000000800029b0 <atol>:
    800029b0:	00054703          	lbu	a4,0(a0)
    800029b4:	02000693          	li	a3,32
    800029b8:	87aa                	mv	a5,a0
    800029ba:	00d71763          	bne	a4,a3,800029c8 <atol+0x18>
    800029be:	0017c703          	lbu	a4,1(a5)
    800029c2:	0785                	add	a5,a5,1
    800029c4:	fed70de3          	beq	a4,a3,800029be <atol+0xe>
    800029c8:	02d00693          	li	a3,45
    800029cc:	04d70163          	beq	a4,a3,80002a0e <atol+0x5e>
    800029d0:	02b00693          	li	a3,43
    800029d4:	02d70763          	beq	a4,a3,80002a02 <atol+0x52>
    800029d8:	0007c683          	lbu	a3,0(a5)
    800029dc:	4581                	li	a1,0
    800029de:	ce8d                	beqz	a3,80002a18 <atol+0x68>
    800029e0:	4501                	li	a0,0
    800029e2:	0785                	add	a5,a5,1
    800029e4:	00251713          	sll	a4,a0,0x2
    800029e8:	fd06861b          	addw	a2,a3,-48
    800029ec:	0007c683          	lbu	a3,0(a5)
    800029f0:	972a                	add	a4,a4,a0
    800029f2:	0706                	sll	a4,a4,0x1
    800029f4:	00e60533          	add	a0,a2,a4
    800029f8:	f6ed                	bnez	a3,800029e2 <atol+0x32>
    800029fa:	c185                	beqz	a1,80002a1a <atol+0x6a>
    800029fc:	40a00533          	neg	a0,a0
    80002a00:	8082                	ret
    80002a02:	0017c683          	lbu	a3,1(a5)
    80002a06:	0785                	add	a5,a5,1
    80002a08:	ca81                	beqz	a3,80002a18 <atol+0x68>
    80002a0a:	4581                	li	a1,0
    80002a0c:	bfd1                	j	800029e0 <atol+0x30>
    80002a0e:	0017c683          	lbu	a3,1(a5)
    80002a12:	4585                	li	a1,1
    80002a14:	0785                	add	a5,a5,1
    80002a16:	f6e9                	bnez	a3,800029e0 <atol+0x30>
    80002a18:	4501                	li	a0,0
    80002a1a:	8082                	ret

Disassembly of section .text.startup:

0000000080002a1c <main>:
    80002a1c:	6505                	lui	a0,0x1
    80002a1e:	1141                	add	sp,sp,-16
    80002a20:	80050513          	add	a0,a0,-2048 # 800 <buflen.1+0x7c0>
    80002a24:	00004617          	auipc	a2,0x4
    80002a28:	22460613          	add	a2,a2,548 # 80006c48 <scratch.0>
    80002a2c:	00000597          	auipc	a1,0x0
    80002a30:	21c58593          	add	a1,a1,540 # 80002c48 <verify_data>
    80002a34:	e406                	sd	ra,8(sp)
    80002a36:	e0aff0ef          	jal	80002040 <sort>
    80002a3a:	00002517          	auipc	a0,0x2
    80002a3e:	20e50513          	add	a0,a0,526 # 80004c48 <input_data>
    80002a42:	dbeff0ef          	jal	80002000 <verify.constprop.0>
    80002a46:	c509                	beqz	a0,80002a50 <main+0x34>
    80002a48:	60a2                	ld	ra,8(sp)
    80002a4a:	4505                	li	a0,1
    80002a4c:	0141                	add	sp,sp,16
    80002a4e:	8082                	ret
    80002a50:	4505                	li	a0,1
    80002a52:	ba9ff0ef          	jal	800025fa <setStats>
    80002a56:	6505                	lui	a0,0x1
    80002a58:	00004617          	auipc	a2,0x4
    80002a5c:	1f060613          	add	a2,a2,496 # 80006c48 <scratch.0>
    80002a60:	00002597          	auipc	a1,0x2
    80002a64:	1e858593          	add	a1,a1,488 # 80004c48 <input_data>
    80002a68:	80050513          	add	a0,a0,-2048 # 800 <buflen.1+0x7c0>
    80002a6c:	dd4ff0ef          	jal	80002040 <sort>
    80002a70:	4501                	li	a0,0
    80002a72:	b89ff0ef          	jal	800025fa <setStats>
    80002a76:	60a2                	ld	ra,8(sp)
    80002a78:	00000517          	auipc	a0,0x0
    80002a7c:	1d050513          	add	a0,a0,464 # 80002c48 <verify_data>
    80002a80:	0141                	add	sp,sp,16
    80002a82:	d7eff06f          	j	80002000 <verify.constprop.0>
    80002a86:	1141                	add	sp,sp,-16
    80002a88:	00000517          	auipc	a0,0x0
    80002a8c:	04050513          	add	a0,a0,64 # 80002ac8 <main+0xac>
    80002a90:	e406                	sd	ra,8(sp)
    80002a92:	bdfff0ef          	jal	80002670 <printstr>
    80002a96:	60a2                	ld	ra,8(sp)
    80002a98:	557d                	li	a0,-1
    80002a9a:	0141                	add	sp,sp,16
    80002a9c:	8082                	ret
