
towers.riscv:     file format elf64-littleriscv


Disassembly of section .text.init:

0000000080000000 <_start>:
    80000000:	4081                	li	ra,0
    80000002:	4101                	li	sp,0
    80000004:	4181                	li	gp,0
    80000006:	4201                	li	tp,0
    80000008:	4281                	li	t0,0
    8000000a:	4301                	li	t1,0
    8000000c:	4381                	li	t2,0
    8000000e:	4401                	li	s0,0
    80000010:	4481                	li	s1,0
    80000012:	4501                	li	a0,0
    80000014:	4581                	li	a1,0
    80000016:	4601                	li	a2,0
    80000018:	4681                	li	a3,0
    8000001a:	4701                	li	a4,0
    8000001c:	4781                	li	a5,0
    8000001e:	4801                	li	a6,0
    80000020:	4881                	li	a7,0
    80000022:	4901                	li	s2,0
    80000024:	4981                	li	s3,0
    80000026:	4a01                	li	s4,0
    80000028:	4a81                	li	s5,0
    8000002a:	4b01                	li	s6,0
    8000002c:	4b81                	li	s7,0
    8000002e:	4c01                	li	s8,0
    80000030:	4c81                	li	s9,0
    80000032:	4d01                	li	s10,0
    80000034:	4d81                	li	s11,0
    80000036:	4e01                	li	t3,0
    80000038:	4e81                	li	t4,0
    8000003a:	4f01                	li	t5,0
    8000003c:	4f81                	li	t6,0
    8000003e:	62f9                	lui	t0,0x1e
    80000040:	6002829b          	addw	t0,t0,1536 # 1e600 <buflen.1+0x1e5c0>
    80000044:	3002a073          	csrs	mstatus,t0
    80000048:	4285                	li	t0,1
    8000004a:	02fe                	sll	t0,t0,0x1f
    8000004c:	0002d863          	bgez	t0,8000005c <_start+0x5c>
    80000050:	4505                	li	a0,1
    80000052:	00001297          	auipc	t0,0x1
    80000056:	faa2a723          	sw	a0,-82(t0) # 80001000 <tohost>
    8000005a:	bfdd                	j	80000050 <_start+0x50>
    8000005c:	00000297          	auipc	t0,0x0
    80000060:	09028293          	add	t0,t0,144 # 800000ec <_start+0xec>
    80000064:	30529073          	csrw	mtvec,t0
    80000068:	00301073          	fscsr	zero
    8000006c:	f0000053          	fmv.w.x	ft0,zero
    80000070:	f00000d3          	fmv.w.x	ft1,zero
    80000074:	f0000153          	fmv.w.x	ft2,zero
    80000078:	f00001d3          	fmv.w.x	ft3,zero
    8000007c:	f0000253          	fmv.w.x	ft4,zero
    80000080:	f00002d3          	fmv.w.x	ft5,zero
    80000084:	f0000353          	fmv.w.x	ft6,zero
    80000088:	f00003d3          	fmv.w.x	ft7,zero
    8000008c:	f0000453          	fmv.w.x	fs0,zero
    80000090:	f00004d3          	fmv.w.x	fs1,zero
    80000094:	f0000553          	fmv.w.x	fa0,zero
    80000098:	f00005d3          	fmv.w.x	fa1,zero
    8000009c:	f0000653          	fmv.w.x	fa2,zero
    800000a0:	f00006d3          	fmv.w.x	fa3,zero
    800000a4:	f0000753          	fmv.w.x	fa4,zero
    800000a8:	f00007d3          	fmv.w.x	fa5,zero
    800000ac:	f0000853          	fmv.w.x	fa6,zero
    800000b0:	f00008d3          	fmv.w.x	fa7,zero
    800000b4:	f0000953          	fmv.w.x	fs2,zero
    800000b8:	f00009d3          	fmv.w.x	fs3,zero
    800000bc:	f0000a53          	fmv.w.x	fs4,zero
    800000c0:	f0000ad3          	fmv.w.x	fs5,zero
    800000c4:	f0000b53          	fmv.w.x	fs6,zero
    800000c8:	f0000bd3          	fmv.w.x	fs7,zero
    800000cc:	f0000c53          	fmv.w.x	fs8,zero
    800000d0:	f0000cd3          	fmv.w.x	fs9,zero
    800000d4:	f0000d53          	fmv.w.x	fs10,zero
    800000d8:	f0000dd3          	fmv.w.x	fs11,zero
    800000dc:	f0000e53          	fmv.w.x	ft8,zero
    800000e0:	f0000ed3          	fmv.w.x	ft9,zero
    800000e4:	f0000f53          	fmv.w.x	ft10,zero
    800000e8:	f0000fd3          	fmv.w.x	ft11,zero
    800000ec:	00000297          	auipc	t0,0x0
    800000f0:	03828293          	add	t0,t0,56 # 80000124 <trap_entry>
    800000f4:	30529073          	csrw	mtvec,t0
    800000f8:	00003197          	auipc	gp,0x3
    800000fc:	50418193          	add	gp,gp,1284 # 800035fc <__global_pointer$>
    80000100:	90318213          	add	tp,gp,-1789 # 80002eff <_end+0x3f>
    80000104:	fc027213          	and	tp,tp,-64
    80000108:	f1402573          	csrr	a0,mhartid
    8000010c:	4585                	li	a1,1
    8000010e:	00b57063          	bgeu	a0,a1,8000010e <_start+0x10e>
    80000112:	00150113          	add	sp,a0,1
    80000116:	0146                	sll	sp,sp,0x11
    80000118:	9112                	add	sp,sp,tp
    8000011a:	01151613          	sll	a2,a0,0x11
    8000011e:	9232                	add	tp,tp,a2
    80000120:	1230206f          	j	80002a42 <_init>

0000000080000124 <trap_entry>:
    80000124:	716d                	add	sp,sp,-272
    80000126:	e406                	sd	ra,8(sp)
    80000128:	e80a                	sd	sp,16(sp)
    8000012a:	ec0e                	sd	gp,24(sp)
    8000012c:	f012                	sd	tp,32(sp)
    8000012e:	f416                	sd	t0,40(sp)
    80000130:	f81a                	sd	t1,48(sp)
    80000132:	fc1e                	sd	t2,56(sp)
    80000134:	e0a2                	sd	s0,64(sp)
    80000136:	e4a6                	sd	s1,72(sp)
    80000138:	e8aa                	sd	a0,80(sp)
    8000013a:	ecae                	sd	a1,88(sp)
    8000013c:	f0b2                	sd	a2,96(sp)
    8000013e:	f4b6                	sd	a3,104(sp)
    80000140:	f8ba                	sd	a4,112(sp)
    80000142:	fcbe                	sd	a5,120(sp)
    80000144:	e142                	sd	a6,128(sp)
    80000146:	e546                	sd	a7,136(sp)
    80000148:	e94a                	sd	s2,144(sp)
    8000014a:	ed4e                	sd	s3,152(sp)
    8000014c:	f152                	sd	s4,160(sp)
    8000014e:	f556                	sd	s5,168(sp)
    80000150:	f95a                	sd	s6,176(sp)
    80000152:	fd5e                	sd	s7,184(sp)
    80000154:	e1e2                	sd	s8,192(sp)
    80000156:	e5e6                	sd	s9,200(sp)
    80000158:	e9ea                	sd	s10,208(sp)
    8000015a:	edee                	sd	s11,216(sp)
    8000015c:	f1f2                	sd	t3,224(sp)
    8000015e:	f5f6                	sd	t4,232(sp)
    80000160:	f9fa                	sd	t5,240(sp)
    80000162:	fdfe                	sd	t6,248(sp)
    80000164:	34202573          	csrr	a0,mcause
    80000168:	341025f3          	csrr	a1,mepc
    8000016c:	860a                	mv	a2,sp
    8000016e:	69c020ef          	jal	8000280a <handle_trap>
    80000172:	34151073          	csrw	mepc,a0
    80000176:	6289                	lui	t0,0x2
    80000178:	8002829b          	addw	t0,t0,-2048 # 1800 <buflen.1+0x17c0>
    8000017c:	3002a073          	csrs	mstatus,t0
    80000180:	60a2                	ld	ra,8(sp)
    80000182:	6142                	ld	sp,16(sp)
    80000184:	61e2                	ld	gp,24(sp)
    80000186:	7202                	ld	tp,32(sp)
    80000188:	72a2                	ld	t0,40(sp)
    8000018a:	7342                	ld	t1,48(sp)
    8000018c:	73e2                	ld	t2,56(sp)
    8000018e:	6406                	ld	s0,64(sp)
    80000190:	64a6                	ld	s1,72(sp)
    80000192:	6546                	ld	a0,80(sp)
    80000194:	65e6                	ld	a1,88(sp)
    80000196:	7606                	ld	a2,96(sp)
    80000198:	76a6                	ld	a3,104(sp)
    8000019a:	7746                	ld	a4,112(sp)
    8000019c:	77e6                	ld	a5,120(sp)
    8000019e:	680a                	ld	a6,128(sp)
    800001a0:	68aa                	ld	a7,136(sp)
    800001a2:	694a                	ld	s2,144(sp)
    800001a4:	69ea                	ld	s3,152(sp)
    800001a6:	7a0a                	ld	s4,160(sp)
    800001a8:	7aaa                	ld	s5,168(sp)
    800001aa:	7b4a                	ld	s6,176(sp)
    800001ac:	7bea                	ld	s7,184(sp)
    800001ae:	6c0e                	ld	s8,192(sp)
    800001b0:	6cae                	ld	s9,200(sp)
    800001b2:	6d4e                	ld	s10,208(sp)
    800001b4:	6dee                	ld	s11,216(sp)
    800001b6:	7e0e                	ld	t3,224(sp)
    800001b8:	7eae                	ld	t4,232(sp)
    800001ba:	7f4e                	ld	t5,240(sp)
    800001bc:	7fee                	ld	t6,248(sp)
    800001be:	6151                	add	sp,sp,272
    800001c0:	30200073          	mret
    800001c4:	0000                	unimp

Disassembly of section .text:

0000000080002000 <list_getSize>:
    80002000:	4108                	lw	a0,0(a0)
    80002002:	8082                	ret

0000000080002004 <list_init>:
    80002004:	00052023          	sw	zero,0(a0)
    80002008:	00053423          	sd	zero,8(a0)
    8000200c:	8082                	ret

000000008000200e <list_push>:
    8000200e:	00001697          	auipc	a3,0x1
    80002012:	df268693          	add	a3,a3,-526 # 80002e00 <g_nodeFreeList>
    80002016:	669c                	ld	a5,8(a3)
    80002018:	4118                	lw	a4,0(a0)
    8000201a:	6790                	ld	a2,8(a5)
    8000201c:	2705                	addw	a4,a4,1
    8000201e:	e690                	sd	a2,8(a3)
    80002020:	6514                	ld	a3,8(a0)
    80002022:	e794                	sd	a3,8(a5)
    80002024:	e51c                	sd	a5,8(a0)
    80002026:	c38c                	sw	a1,0(a5)
    80002028:	c118                	sw	a4,0(a0)
    8000202a:	8082                	ret

000000008000202c <list_pop>:
    8000202c:	6518                	ld	a4,8(a0)
    8000202e:	87aa                	mv	a5,a0
    80002030:	4114                	lw	a3,0(a0)
    80002032:	670c                	ld	a1,8(a4)
    80002034:	4308                	lw	a0,0(a4)
    80002036:	00001617          	auipc	a2,0x1
    8000203a:	dca60613          	add	a2,a2,-566 # 80002e00 <g_nodeFreeList>
    8000203e:	e78c                	sd	a1,8(a5)
    80002040:	660c                	ld	a1,8(a2)
    80002042:	36fd                	addw	a3,a3,-1
    80002044:	e70c                	sd	a1,8(a4)
    80002046:	e618                	sd	a4,8(a2)
    80002048:	c394                	sw	a3,0(a5)
    8000204a:	8082                	ret

000000008000204c <list_clear>:
    8000204c:	4118                	lw	a4,0(a0)
    8000204e:	02e05063          	blez	a4,8000206e <list_clear+0x22>
    80002052:	00001697          	auipc	a3,0x1
    80002056:	dae68693          	add	a3,a3,-594 # 80002e00 <g_nodeFreeList>
    8000205a:	651c                	ld	a5,8(a0)
    8000205c:	377d                	addw	a4,a4,-1
    8000205e:	6790                	ld	a2,8(a5)
    80002060:	e510                	sd	a2,8(a0)
    80002062:	6690                	ld	a2,8(a3)
    80002064:	e790                	sd	a2,8(a5)
    80002066:	e69c                	sd	a5,8(a3)
    80002068:	fb6d                	bnez	a4,8000205a <list_clear+0xe>
    8000206a:	00052023          	sw	zero,0(a0)
    8000206e:	8082                	ret

0000000080002070 <towers_init>:
    80002070:	c10c                	sw	a1,0(a0)
    80002072:	00052223          	sw	zero,4(a0)
    80002076:	00052423          	sw	zero,8(a0)
    8000207a:	00053823          	sd	zero,16(a0)
    8000207e:	00052c23          	sw	zero,24(a0)
    80002082:	02053023          	sd	zero,32(a0)
    80002086:	02052423          	sw	zero,40(a0)
    8000208a:	02053823          	sd	zero,48(a0)
    8000208e:	02b05a63          	blez	a1,800020c2 <towers_init+0x52>
    80002092:	00001817          	auipc	a6,0x1
    80002096:	d6e80813          	add	a6,a6,-658 # 80002e00 <g_nodeFreeList>
    8000209a:	00883783          	ld	a5,8(a6)
    8000209e:	0005871b          	sext.w	a4,a1
    800020a2:	4681                	li	a3,0
    800020a4:	a019                	j	800020aa <towers_init+0x3a>
    800020a6:	86be                	mv	a3,a5
    800020a8:	87b2                	mv	a5,a2
    800020aa:	6790                	ld	a2,8(a5)
    800020ac:	c398                	sw	a4,0(a5)
    800020ae:	e794                	sd	a3,8(a5)
    800020b0:	377d                	addw	a4,a4,-1
    800020b2:	fb75                	bnez	a4,800020a6 <towers_init+0x36>
    800020b4:	00c83423          	sd	a2,8(a6)
    800020b8:	e794                	sd	a3,8(a5)
    800020ba:	e91c                	sd	a5,16(a0)
    800020bc:	4705                	li	a4,1
    800020be:	c398                	sw	a4,0(a5)
    800020c0:	c50c                	sw	a1,8(a0)
    800020c2:	8082                	ret

00000000800020c4 <towers_clear>:
    800020c4:	4518                	lw	a4,8(a0)
    800020c6:	02e05763          	blez	a4,800020f4 <towers_clear+0x30>
    800020ca:	00001817          	auipc	a6,0x1
    800020ce:	d3680813          	add	a6,a6,-714 # 80002e00 <g_nodeFreeList>
    800020d2:	691c                	ld	a5,16(a0)
    800020d4:	00883683          	ld	a3,8(a6)
    800020d8:	a019                	j	800020de <towers_clear+0x1a>
    800020da:	87b2                	mv	a5,a2
    800020dc:	86ae                	mv	a3,a1
    800020de:	6790                	ld	a2,8(a5)
    800020e0:	377d                	addw	a4,a4,-1
    800020e2:	e794                	sd	a3,8(a5)
    800020e4:	85be                	mv	a1,a5
    800020e6:	fb75                	bnez	a4,800020da <towers_clear+0x16>
    800020e8:	e910                	sd	a2,16(a0)
    800020ea:	e794                	sd	a3,8(a5)
    800020ec:	00f83423          	sd	a5,8(a6)
    800020f0:	00052423          	sw	zero,8(a0)
    800020f4:	4d18                	lw	a4,24(a0)
    800020f6:	02e05763          	blez	a4,80002124 <towers_clear+0x60>
    800020fa:	00001817          	auipc	a6,0x1
    800020fe:	d0680813          	add	a6,a6,-762 # 80002e00 <g_nodeFreeList>
    80002102:	711c                	ld	a5,32(a0)
    80002104:	00883683          	ld	a3,8(a6)
    80002108:	a019                	j	8000210e <towers_clear+0x4a>
    8000210a:	87b2                	mv	a5,a2
    8000210c:	86ae                	mv	a3,a1
    8000210e:	6790                	ld	a2,8(a5)
    80002110:	377d                	addw	a4,a4,-1
    80002112:	e794                	sd	a3,8(a5)
    80002114:	85be                	mv	a1,a5
    80002116:	fb75                	bnez	a4,8000210a <towers_clear+0x46>
    80002118:	f110                	sd	a2,32(a0)
    8000211a:	e794                	sd	a3,8(a5)
    8000211c:	00f83423          	sd	a5,8(a6)
    80002120:	00052c23          	sw	zero,24(a0)
    80002124:	5518                	lw	a4,40(a0)
    80002126:	02e05263          	blez	a4,8000214a <towers_clear+0x86>
    8000212a:	00001817          	auipc	a6,0x1
    8000212e:	cd680813          	add	a6,a6,-810 # 80002e00 <g_nodeFreeList>
    80002132:	791c                	ld	a5,48(a0)
    80002134:	00883683          	ld	a3,8(a6)
    80002138:	a011                	j	8000213c <towers_clear+0x78>
    8000213a:	87b2                	mv	a5,a2
    8000213c:	6790                	ld	a2,8(a5)
    8000213e:	377d                	addw	a4,a4,-1
    80002140:	e794                	sd	a3,8(a5)
    80002142:	86be                	mv	a3,a5
    80002144:	fb7d                	bnez	a4,8000213a <towers_clear+0x76>
    80002146:	00f83423          	sd	a5,8(a6)
    8000214a:	410c                	lw	a1,0(a0)
    8000214c:	00052223          	sw	zero,4(a0)
    80002150:	00052423          	sw	zero,8(a0)
    80002154:	00053823          	sd	zero,16(a0)
    80002158:	00052c23          	sw	zero,24(a0)
    8000215c:	02053023          	sd	zero,32(a0)
    80002160:	02052423          	sw	zero,40(a0)
    80002164:	02053823          	sd	zero,48(a0)
    80002168:	02b05a63          	blez	a1,8000219c <towers_clear+0xd8>
    8000216c:	00001817          	auipc	a6,0x1
    80002170:	c9480813          	add	a6,a6,-876 # 80002e00 <g_nodeFreeList>
    80002174:	00883783          	ld	a5,8(a6)
    80002178:	0005871b          	sext.w	a4,a1
    8000217c:	4681                	li	a3,0
    8000217e:	a019                	j	80002184 <towers_clear+0xc0>
    80002180:	86be                	mv	a3,a5
    80002182:	87b2                	mv	a5,a2
    80002184:	6790                	ld	a2,8(a5)
    80002186:	c398                	sw	a4,0(a5)
    80002188:	e794                	sd	a3,8(a5)
    8000218a:	377d                	addw	a4,a4,-1
    8000218c:	fb75                	bnez	a4,80002180 <towers_clear+0xbc>
    8000218e:	00c83423          	sd	a2,8(a6)
    80002192:	e794                	sd	a3,8(a5)
    80002194:	e91c                	sd	a5,16(a0)
    80002196:	4705                	li	a4,1
    80002198:	c398                	sw	a4,0(a5)
    8000219a:	c50c                	sw	a1,8(a0)
    8000219c:	8082                	ret

000000008000219e <towers_solve_h>:
    8000219e:	7175                	add	sp,sp,-144
    800021a0:	f8ca                	sd	s2,112(sp)
    800021a2:	ecd6                	sd	s5,88(sp)
    800021a4:	e506                	sd	ra,136(sp)
    800021a6:	e0e2                	sd	s8,64(sp)
    800021a8:	e42e                	sd	a1,8(sp)
    800021aa:	4785                	li	a5,1
    800021ac:	e832                	sd	a2,16(sp)
    800021ae:	ec3a                	sd	a4,24(sp)
    800021b0:	892a                	mv	s2,a0
    800021b2:	00001a97          	auipc	s5,0x1
    800021b6:	c4ea8a93          	add	s5,s5,-946 # 80002e00 <g_nodeFreeList>
    800021ba:	22f58d63          	beq	a1,a5,800023f4 <towers_solve_h+0x256>
    800021be:	f0d2                	sd	s4,96(sp)
    800021c0:	e122                	sd	s0,128(sp)
    800021c2:	fca6                	sd	s1,120(sp)
    800021c4:	f4ce                	sd	s3,104(sp)
    800021c6:	e8da                	sd	s6,80(sp)
    800021c8:	e4de                	sd	s7,72(sp)
    800021ca:	fc66                	sd	s9,56(sp)
    800021cc:	f86a                	sd	s10,48(sp)
    800021ce:	f46e                	sd	s11,40(sp)
    800021d0:	8c36                	mv	s8,a3
    800021d2:	4a05                	li	s4,1
    800021d4:	67a2                	ld	a5,8(sp)
    800021d6:	37fd                	addw	a5,a5,-1
    800021d8:	e43e                	sd	a5,8(sp)
    800021da:	15478763          	beq	a5,s4,80002328 <towers_solve_h+0x18a>
    800021de:	67a2                	ld	a5,8(sp)
    800021e0:	6d62                	ld	s10,24(sp)
    800021e2:	6bc2                	ld	s7,16(sp)
    800021e4:	e03e                	sd	a5,0(sp)
    800021e6:	6782                	ld	a5,0(sp)
    800021e8:	37fd                	addw	a5,a5,-1
    800021ea:	e03e                	sd	a5,0(sp)
    800021ec:	0b478e63          	beq	a5,s4,800022a8 <towers_solve_h+0x10a>
    800021f0:	6b02                	ld	s6,0(sp)
    800021f2:	84e2                	mv	s1,s8
    800021f4:	89de                	mv	s3,s7
    800021f6:	3b7d                	addw	s6,s6,-1
    800021f8:	034b0a63          	beq	s6,s4,8000222c <towers_solve_h+0x8e>
    800021fc:	8cea                	mv	s9,s10
    800021fe:	844e                	mv	s0,s3
    80002200:	8dda                	mv	s11,s6
    80002202:	3dfd                	addw	s11,s11,-1
    80002204:	8766                	mv	a4,s9
    80002206:	86a6                	mv	a3,s1
    80002208:	8622                	mv	a2,s0
    8000220a:	85ee                	mv	a1,s11
    8000220c:	854a                	mv	a0,s2
    8000220e:	f91ff0ef          	jal	8000219e <towers_solve_h>
    80002212:	8726                	mv	a4,s1
    80002214:	86e6                	mv	a3,s9
    80002216:	8622                	mv	a2,s0
    80002218:	4585                	li	a1,1
    8000221a:	854a                	mv	a0,s2
    8000221c:	f83ff0ef          	jal	8000219e <towers_solve_h>
    80002220:	8722                	mv	a4,s0
    80002222:	014d8663          	beq	s11,s4,8000222e <towers_solve_h+0x90>
    80002226:	8466                	mv	s0,s9
    80002228:	8cba                	mv	s9,a4
    8000222a:	bfe1                	j	80002202 <towers_solve_h+0x64>
    8000222c:	8cce                	mv	s9,s3
    8000222e:	008cb703          	ld	a4,8(s9)
    80002232:	000ca603          	lw	a2,0(s9)
    80002236:	00492683          	lw	a3,4(s2)
    8000223a:	6708                	ld	a0,8(a4)
    8000223c:	430c                	lw	a1,0(a4)
    8000223e:	367d                	addw	a2,a2,-1
    80002240:	00acb423          	sd	a0,8(s9)
    80002244:	008ab503          	ld	a0,8(s5)
    80002248:	00cca023          	sw	a2,0(s9)
    8000224c:	4090                	lw	a2,0(s1)
    8000224e:	00aab423          	sd	a0,8(s5)
    80002252:	649c                	ld	a5,8(s1)
    80002254:	2605                	addw	a2,a2,1
    80002256:	0026851b          	addw	a0,a3,2
    8000225a:	e71c                	sd	a5,8(a4)
    8000225c:	e498                	sd	a4,8(s1)
    8000225e:	0089b783          	ld	a5,8(s3)
    80002262:	c30c                	sw	a1,0(a4)
    80002264:	c090                	sw	a2,0(s1)
    80002266:	678c                	ld	a1,8(a5)
    80002268:	0009a703          	lw	a4,0(s3)
    8000226c:	4390                	lw	a2,0(a5)
    8000226e:	00b9b423          	sd	a1,8(s3)
    80002272:	008ab583          	ld	a1,8(s5)
    80002276:	377d                	addw	a4,a4,-1
    80002278:	00e9a023          	sw	a4,0(s3)
    8000227c:	00bab423          	sd	a1,8(s5)
    80002280:	008d3583          	ld	a1,8(s10)
    80002284:	000d2703          	lw	a4,0(s10)
    80002288:	e78c                	sd	a1,8(a5)
    8000228a:	00fd3423          	sd	a5,8(s10)
    8000228e:	c390                	sw	a2,0(a5)
    80002290:	0017079b          	addw	a5,a4,1
    80002294:	00fd2023          	sw	a5,0(s10)
    80002298:	00a92223          	sw	a0,4(s2)
    8000229c:	014b0963          	beq	s6,s4,800022ae <towers_solve_h+0x110>
    800022a0:	87ce                	mv	a5,s3
    800022a2:	89a6                	mv	s3,s1
    800022a4:	84be                	mv	s1,a5
    800022a6:	bf81                	j	800021f6 <towers_solve_h+0x58>
    800022a8:	00492503          	lw	a0,4(s2)
    800022ac:	84de                	mv	s1,s7
    800022ae:	6498                	ld	a4,8(s1)
    800022b0:	409c                	lw	a5,0(s1)
    800022b2:	2509                	addw	a0,a0,2
    800022b4:	6714                	ld	a3,8(a4)
    800022b6:	4310                	lw	a2,0(a4)
    800022b8:	37fd                	addw	a5,a5,-1
    800022ba:	e494                	sd	a3,8(s1)
    800022bc:	008ab583          	ld	a1,8(s5)
    800022c0:	c09c                	sw	a5,0(s1)
    800022c2:	000d2683          	lw	a3,0(s10)
    800022c6:	00bab423          	sd	a1,8(s5)
    800022ca:	008d3783          	ld	a5,8(s10)
    800022ce:	2685                	addw	a3,a3,1
    800022d0:	0005059b          	sext.w	a1,a0
    800022d4:	e71c                	sd	a5,8(a4)
    800022d6:	00ed3423          	sd	a4,8(s10)
    800022da:	008bb783          	ld	a5,8(s7)
    800022de:	c310                	sw	a2,0(a4)
    800022e0:	00dd2023          	sw	a3,0(s10)
    800022e4:	6790                	ld	a2,8(a5)
    800022e6:	000ba703          	lw	a4,0(s7)
    800022ea:	4394                	lw	a3,0(a5)
    800022ec:	00cbb423          	sd	a2,8(s7)
    800022f0:	008ab603          	ld	a2,8(s5)
    800022f4:	377d                	addw	a4,a4,-1
    800022f6:	00eba023          	sw	a4,0(s7)
    800022fa:	00cab423          	sd	a2,8(s5)
    800022fe:	008c3603          	ld	a2,8(s8)
    80002302:	000c2703          	lw	a4,0(s8)
    80002306:	e790                	sd	a2,8(a5)
    80002308:	00fc3423          	sd	a5,8(s8)
    8000230c:	c394                	sw	a3,0(a5)
    8000230e:	0017079b          	addw	a5,a4,1
    80002312:	00fc2023          	sw	a5,0(s8)
    80002316:	6782                	ld	a5,0(sp)
    80002318:	00a92223          	sw	a0,4(s2)
    8000231c:	01478963          	beq	a5,s4,8000232e <towers_solve_h+0x190>
    80002320:	87de                	mv	a5,s7
    80002322:	8bea                	mv	s7,s10
    80002324:	8d3e                	mv	s10,a5
    80002326:	b5c1                	j	800021e6 <towers_solve_h+0x48>
    80002328:	00492583          	lw	a1,4(s2)
    8000232c:	6d42                	ld	s10,16(sp)
    8000232e:	008d3703          	ld	a4,8(s10)
    80002332:	000d2783          	lw	a5,0(s10)
    80002336:	6442                	ld	s0,16(sp)
    80002338:	6714                	ld	a3,8(a4)
    8000233a:	4308                	lw	a0,0(a4)
    8000233c:	37fd                	addw	a5,a5,-1
    8000233e:	00dd3423          	sd	a3,8(s10)
    80002342:	008ab603          	ld	a2,8(s5)
    80002346:	00fd2023          	sw	a5,0(s10)
    8000234a:	000c2683          	lw	a3,0(s8)
    8000234e:	00cab423          	sd	a2,8(s5)
    80002352:	008c3783          	ld	a5,8(s8)
    80002356:	2685                	addw	a3,a3,1
    80002358:	64e2                	ld	s1,24(sp)
    8000235a:	e71c                	sd	a5,8(a4)
    8000235c:	00ec3423          	sd	a4,8(s8)
    80002360:	641c                	ld	a5,8(s0)
    80002362:	c308                	sw	a0,0(a4)
    80002364:	00dc2023          	sw	a3,0(s8)
    80002368:	6788                	ld	a0,8(a5)
    8000236a:	4018                	lw	a4,0(s0)
    8000236c:	4394                	lw	a3,0(a5)
    8000236e:	e408                	sd	a0,8(s0)
    80002370:	008ab503          	ld	a0,8(s5)
    80002374:	377d                	addw	a4,a4,-1
    80002376:	c018                	sw	a4,0(s0)
    80002378:	00aab423          	sd	a0,8(s5)
    8000237c:	6488                	ld	a0,8(s1)
    8000237e:	4098                	lw	a4,0(s1)
    80002380:	2589                	addw	a1,a1,2
    80002382:	e788                	sd	a0,8(a5)
    80002384:	e49c                	sd	a5,8(s1)
    80002386:	c394                	sw	a3,0(a5)
    80002388:	0017079b          	addw	a5,a4,1
    8000238c:	c09c                	sw	a5,0(s1)
    8000238e:	67a2                	ld	a5,8(sp)
    80002390:	00b92223          	sw	a1,4(s2)
    80002394:	0005861b          	sext.w	a2,a1
    80002398:	01478563          	beq	a5,s4,800023a2 <towers_solve_h+0x204>
    8000239c:	e862                	sd	s8,16(sp)
    8000239e:	8c22                	mv	s8,s0
    800023a0:	bd15                	j	800021d4 <towers_solve_h+0x36>
    800023a2:	640a                	ld	s0,128(sp)
    800023a4:	74e6                	ld	s1,120(sp)
    800023a6:	79a6                	ld	s3,104(sp)
    800023a8:	7a06                	ld	s4,96(sp)
    800023aa:	6b46                	ld	s6,80(sp)
    800023ac:	6ba6                	ld	s7,72(sp)
    800023ae:	7ce2                	ld	s9,56(sp)
    800023b0:	7d42                	ld	s10,48(sp)
    800023b2:	7da2                	ld	s11,40(sp)
    800023b4:	008c3783          	ld	a5,8(s8)
    800023b8:	000c2703          	lw	a4,0(s8)
    800023bc:	6562                	ld	a0,24(sp)
    800023be:	678c                	ld	a1,8(a5)
    800023c0:	4394                	lw	a3,0(a5)
    800023c2:	377d                	addw	a4,a4,-1
    800023c4:	00bc3423          	sd	a1,8(s8)
    800023c8:	008ab583          	ld	a1,8(s5)
    800023cc:	00ec2023          	sw	a4,0(s8)
    800023d0:	4118                	lw	a4,0(a0)
    800023d2:	00bab423          	sd	a1,8(s5)
    800023d6:	650c                	ld	a1,8(a0)
    800023d8:	60aa                	ld	ra,136(sp)
    800023da:	2705                	addw	a4,a4,1
    800023dc:	e78c                	sd	a1,8(a5)
    800023de:	e51c                	sd	a5,8(a0)
    800023e0:	c394                	sw	a3,0(a5)
    800023e2:	c118                	sw	a4,0(a0)
    800023e4:	2605                	addw	a2,a2,1
    800023e6:	00c92223          	sw	a2,4(s2)
    800023ea:	6ae6                	ld	s5,88(sp)
    800023ec:	7946                	ld	s2,112(sp)
    800023ee:	6c06                	ld	s8,64(sp)
    800023f0:	6149                	add	sp,sp,144
    800023f2:	8082                	ret
    800023f4:	4150                	lw	a2,4(a0)
    800023f6:	6c42                	ld	s8,16(sp)
    800023f8:	bf75                	j	800023b4 <towers_solve_h+0x216>

00000000800023fa <towers_solve>:
    800023fa:	410c                	lw	a1,0(a0)
    800023fc:	02850713          	add	a4,a0,40
    80002400:	01850693          	add	a3,a0,24
    80002404:	00850613          	add	a2,a0,8
    80002408:	bb59                	j	8000219e <towers_solve_h>

000000008000240a <towers_verify>:
    8000240a:	451c                	lw	a5,8(a0)
    8000240c:	862a                	mv	a2,a0
    8000240e:	e78d                	bnez	a5,80002438 <towers_verify+0x2e>
    80002410:	4d08                	lw	a0,24(a0)
    80002412:	ed1d                	bnez	a0,80002450 <towers_verify+0x46>
    80002414:	420c                	lw	a1,0(a2)
    80002416:	561c                	lw	a5,40(a2)
    80002418:	00b79e63          	bne	a5,a1,80002434 <towers_verify+0x2a>
    8000241c:	7a1c                	ld	a5,48(a2)
    8000241e:	cf99                	beqz	a5,8000243c <towers_verify+0x32>
    80002420:	4701                	li	a4,0
    80002422:	a019                	j	80002428 <towers_verify+0x1e>
    80002424:	679c                	ld	a5,8(a5)
    80002426:	cb99                	beqz	a5,8000243c <towers_verify+0x32>
    80002428:	4394                	lw	a3,0(a5)
    8000242a:	2705                	addw	a4,a4,1
    8000242c:	fee68ce3          	beq	a3,a4,80002424 <towers_verify+0x1a>
    80002430:	4515                	li	a0,5
    80002432:	8082                	ret
    80002434:	4511                	li	a0,4
    80002436:	8082                	ret
    80002438:	4509                	li	a0,2
    8000243a:	8082                	ret
    8000243c:	4785                	li	a5,1
    8000243e:	4258                	lw	a4,4(a2)
    80002440:	00b797bb          	sllw	a5,a5,a1
    80002444:	37fd                	addw	a5,a5,-1
    80002446:	00f71363          	bne	a4,a5,8000244c <towers_verify+0x42>
    8000244a:	8082                	ret
    8000244c:	4519                	li	a0,6
    8000244e:	8082                	ret
    80002450:	450d                	li	a0,3
    80002452:	8082                	ret

0000000080002454 <vprintfmt>:
    80002454:	7149                	add	sp,sp,-368
    80002456:	f2a2                	sd	s0,352(sp)
    80002458:	eea6                	sd	s1,344(sp)
    8000245a:	eaca                	sd	s2,336(sp)
    8000245c:	e2d2                	sd	s4,320(sp)
    8000245e:	fe56                	sd	s5,312(sp)
    80002460:	fa5a                	sd	s6,304(sp)
    80002462:	f65e                	sd	s7,296(sp)
    80002464:	f686                	sd	ra,360(sp)
    80002466:	e6ce                	sd	s3,328(sp)
    80002468:	f262                	sd	s8,288(sp)
    8000246a:	ee66                	sd	s9,280(sp)
    8000246c:	e66e                	sd	s11,264(sp)
    8000246e:	892a                	mv	s2,a0
    80002470:	84ae                	mv	s1,a1
    80002472:	8432                	mv	s0,a2
    80002474:	8bb6                	mv	s7,a3
    80002476:	02500a13          	li	s4,37
    8000247a:	05500b13          	li	s6,85
    8000247e:	00001a97          	auipc	s5,0x1
    80002482:	826a8a93          	add	s5,s5,-2010 # 80002ca4 <main+0xd8>
    80002486:	a029                	j	80002490 <vprintfmt+0x3c>
    80002488:	cd1d                	beqz	a0,800024c6 <vprintfmt+0x72>
    8000248a:	85a6                	mv	a1,s1
    8000248c:	0405                	add	s0,s0,1
    8000248e:	9902                	jalr	s2
    80002490:	00044503          	lbu	a0,0(s0)
    80002494:	ff451ae3          	bne	a0,s4,80002488 <vprintfmt+0x34>
    80002498:	00144683          	lbu	a3,1(s0)
    8000249c:	00140993          	add	s3,s0,1
    800024a0:	874e                	mv	a4,s3
    800024a2:	02000c93          	li	s9,32
    800024a6:	5c7d                	li	s8,-1
    800024a8:	5dfd                	li	s11,-1
    800024aa:	4581                	li	a1,0
    800024ac:	fdd6879b          	addw	a5,a3,-35
    800024b0:	0ff7f793          	zext.b	a5,a5
    800024b4:	00170413          	add	s0,a4,1
    800024b8:	04fb6163          	bltu	s6,a5,800024fa <vprintfmt+0xa6>
    800024bc:	078a                	sll	a5,a5,0x2
    800024be:	97d6                	add	a5,a5,s5
    800024c0:	439c                	lw	a5,0(a5)
    800024c2:	97d6                	add	a5,a5,s5
    800024c4:	8782                	jr	a5
    800024c6:	70b6                	ld	ra,360(sp)
    800024c8:	7416                	ld	s0,352(sp)
    800024ca:	64f6                	ld	s1,344(sp)
    800024cc:	6956                	ld	s2,336(sp)
    800024ce:	69b6                	ld	s3,328(sp)
    800024d0:	6a16                	ld	s4,320(sp)
    800024d2:	7af2                	ld	s5,312(sp)
    800024d4:	7b52                	ld	s6,304(sp)
    800024d6:	7bb2                	ld	s7,296(sp)
    800024d8:	7c12                	ld	s8,288(sp)
    800024da:	6cf2                	ld	s9,280(sp)
    800024dc:	6db2                	ld	s11,264(sp)
    800024de:	6175                	add	sp,sp,368
    800024e0:	8082                	ret
    800024e2:	8cb6                	mv	s9,a3
    800024e4:	00174683          	lbu	a3,1(a4)
    800024e8:	8722                	mv	a4,s0
    800024ea:	00170413          	add	s0,a4,1
    800024ee:	fdd6879b          	addw	a5,a3,-35
    800024f2:	0ff7f793          	zext.b	a5,a5
    800024f6:	fcfb73e3          	bgeu	s6,a5,800024bc <vprintfmt+0x68>
    800024fa:	85a6                	mv	a1,s1
    800024fc:	02500513          	li	a0,37
    80002500:	9902                	jalr	s2
    80002502:	844e                	mv	s0,s3
    80002504:	b771                	j	80002490 <vprintfmt+0x3c>
    80002506:	fd068c1b          	addw	s8,a3,-48
    8000250a:	00174683          	lbu	a3,1(a4)
    8000250e:	47a5                	li	a5,9
    80002510:	fd06871b          	addw	a4,a3,-48
    80002514:	0006861b          	sext.w	a2,a3
    80002518:	20e7ef63          	bltu	a5,a4,80002736 <vprintfmt+0x2e2>
    8000251c:	8722                	mv	a4,s0
    8000251e:	4825                	li	a6,9
    80002520:	00174683          	lbu	a3,1(a4)
    80002524:	002c179b          	sllw	a5,s8,0x2
    80002528:	018787bb          	addw	a5,a5,s8
    8000252c:	0017979b          	sllw	a5,a5,0x1
    80002530:	9fb1                	addw	a5,a5,a2
    80002532:	fd06851b          	addw	a0,a3,-48
    80002536:	0705                	add	a4,a4,1
    80002538:	fd078c1b          	addw	s8,a5,-48
    8000253c:	0006861b          	sext.w	a2,a3
    80002540:	fea870e3          	bgeu	a6,a0,80002520 <vprintfmt+0xcc>
    80002544:	f60dd4e3          	bgez	s11,800024ac <vprintfmt+0x58>
    80002548:	8de2                	mv	s11,s8
    8000254a:	5c7d                	li	s8,-1
    8000254c:	b785                	j	800024ac <vprintfmt+0x58>
    8000254e:	00174683          	lbu	a3,1(a4)
    80002552:	8722                	mv	a4,s0
    80002554:	bfa1                	j	800024ac <vprintfmt+0x58>
    80002556:	85a6                	mv	a1,s1
    80002558:	02500513          	li	a0,37
    8000255c:	9902                	jalr	s2
    8000255e:	bf0d                	j	80002490 <vprintfmt+0x3c>
    80002560:	000bac03          	lw	s8,0(s7)
    80002564:	00174683          	lbu	a3,1(a4)
    80002568:	0ba1                	add	s7,s7,8
    8000256a:	8722                	mv	a4,s0
    8000256c:	bfe1                	j	80002544 <vprintfmt+0xf0>
    8000256e:	85a6                	mv	a1,s1
    80002570:	03000513          	li	a0,48
    80002574:	ea6a                	sd	s10,272(sp)
    80002576:	9902                	jalr	s2
    80002578:	85a6                	mv	a1,s1
    8000257a:	07800513          	li	a0,120
    8000257e:	9902                	jalr	s2
    80002580:	4641                	li	a2,16
    80002582:	008b8713          	add	a4,s7,8
    80002586:	000bb783          	ld	a5,0(s7)
    8000258a:	8bba                	mv	s7,a4
    8000258c:	02c7f5b3          	remu	a1,a5,a2
    80002590:	000c899b          	sext.w	s3,s9
    80002594:	0054                	add	a3,sp,4
    80002596:	4705                	li	a4,1
    80002598:	c02e                	sw	a1,0(sp)
    8000259a:	16c7ea63          	bltu	a5,a2,8000270e <vprintfmt+0x2ba>
    8000259e:	02c7d7b3          	divu	a5,a5,a2
    800025a2:	0691                	add	a3,a3,4
    800025a4:	8c3a                	mv	s8,a4
    800025a6:	2705                	addw	a4,a4,1
    800025a8:	02c7f5b3          	remu	a1,a5,a2
    800025ac:	feb6ae23          	sw	a1,-4(a3)
    800025b0:	fec7f7e3          	bgeu	a5,a2,8000259e <vprintfmt+0x14a>
    800025b4:	fffd8c9b          	addw	s9,s11,-1
    800025b8:	fff70d1b          	addw	s10,a4,-1
    800025bc:	01b75863          	bge	a4,s11,800025cc <vprintfmt+0x178>
    800025c0:	85a6                	mv	a1,s1
    800025c2:	854e                	mv	a0,s3
    800025c4:	3cfd                	addw	s9,s9,-1
    800025c6:	9902                	jalr	s2
    800025c8:	ffac9ce3          	bne	s9,s10,800025c0 <vprintfmt+0x16c>
    800025cc:	0c0a                	sll	s8,s8,0x2
    800025ce:	018109b3          	add	s3,sp,s8
    800025d2:	ffc10c93          	add	s9,sp,-4
    800025d6:	4c25                	li	s8,9
    800025d8:	0009a783          	lw	a5,0(s3)
    800025dc:	03000513          	li	a0,48
    800025e0:	00fc7463          	bgeu	s8,a5,800025e8 <vprintfmt+0x194>
    800025e4:	05700513          	li	a0,87
    800025e8:	85a6                	mv	a1,s1
    800025ea:	9d3d                	addw	a0,a0,a5
    800025ec:	19f1                	add	s3,s3,-4
    800025ee:	9902                	jalr	s2
    800025f0:	ff9994e3          	bne	s3,s9,800025d8 <vprintfmt+0x184>
    800025f4:	6d52                	ld	s10,272(sp)
    800025f6:	bd69                	j	80002490 <vprintfmt+0x3c>
    800025f8:	ea6a                	sd	s10,272(sp)
    800025fa:	4785                	li	a5,1
    800025fc:	008b8c13          	add	s8,s7,8
    80002600:	00b7c463          	blt	a5,a1,80002608 <vprintfmt+0x1b4>
    80002604:	10058763          	beqz	a1,80002712 <vprintfmt+0x2be>
    80002608:	000bb983          	ld	s3,0(s7)
    8000260c:	1009cc63          	bltz	s3,80002724 <vprintfmt+0x2d0>
    80002610:	87ce                	mv	a5,s3
    80002612:	8be2                	mv	s7,s8
    80002614:	4629                	li	a2,10
    80002616:	bf9d                	j	8000258c <vprintfmt+0x138>
    80002618:	00174683          	lbu	a3,1(a4)
    8000261c:	2585                	addw	a1,a1,1
    8000261e:	8722                	mv	a4,s0
    80002620:	b571                	j	800024ac <vprintfmt+0x58>
    80002622:	ea6a                	sd	s10,272(sp)
    80002624:	4641                	li	a2,16
    80002626:	4785                	li	a5,1
    80002628:	008b8713          	add	a4,s7,8
    8000262c:	f4b7cde3          	blt	a5,a1,80002586 <vprintfmt+0x132>
    80002630:	f9b9                	bnez	a1,80002586 <vprintfmt+0x132>
    80002632:	000be783          	lwu	a5,0(s7)
    80002636:	8bba                	mv	s7,a4
    80002638:	bf91                	j	8000258c <vprintfmt+0x138>
    8000263a:	ea6a                	sd	s10,272(sp)
    8000263c:	000bbd03          	ld	s10,0(s7)
    80002640:	0ba1                	add	s7,s7,8
    80002642:	040d0363          	beqz	s10,80002688 <vprintfmt+0x234>
    80002646:	09b05e63          	blez	s11,800026e2 <vprintfmt+0x28e>
    8000264a:	02d00793          	li	a5,45
    8000264e:	04fc9f63          	bne	s9,a5,800026ac <vprintfmt+0x258>
    80002652:	000d4503          	lbu	a0,0(s10)
    80002656:	c105                	beqz	a0,80002676 <vprintfmt+0x222>
    80002658:	59fd                	li	s3,-1
    8000265a:	000c4563          	bltz	s8,80002664 <vprintfmt+0x210>
    8000265e:	3c7d                	addw	s8,s8,-1
    80002660:	013c0963          	beq	s8,s3,80002672 <vprintfmt+0x21e>
    80002664:	85a6                	mv	a1,s1
    80002666:	9902                	jalr	s2
    80002668:	001d4503          	lbu	a0,1(s10)
    8000266c:	3dfd                	addw	s11,s11,-1
    8000266e:	0d05                	add	s10,s10,1
    80002670:	f56d                	bnez	a0,8000265a <vprintfmt+0x206>
    80002672:	f9b051e3          	blez	s11,800025f4 <vprintfmt+0x1a0>
    80002676:	85a6                	mv	a1,s1
    80002678:	02000513          	li	a0,32
    8000267c:	3dfd                	addw	s11,s11,-1
    8000267e:	9902                	jalr	s2
    80002680:	fe0d9be3          	bnez	s11,80002676 <vprintfmt+0x222>
    80002684:	6d52                	ld	s10,272(sp)
    80002686:	b529                	j	80002490 <vprintfmt+0x3c>
    80002688:	00000d17          	auipc	s10,0x0
    8000268c:	5d0d0d13          	add	s10,s10,1488 # 80002c58 <main+0x8c>
    80002690:	02800513          	li	a0,40
    80002694:	fdb052e3          	blez	s11,80002658 <vprintfmt+0x204>
    80002698:	02d00793          	li	a5,45
    8000269c:	00000d17          	auipc	s10,0x0
    800026a0:	5bcd0d13          	add	s10,s10,1468 # 80002c58 <main+0x8c>
    800026a4:	02800513          	li	a0,40
    800026a8:	fafc88e3          	beq	s9,a5,80002658 <vprintfmt+0x204>
    800026ac:	000d861b          	sext.w	a2,s11
    800026b0:	87ea                	mv	a5,s10
    800026b2:	018d06b3          	add	a3,s10,s8
    800026b6:	000c1663          	bnez	s8,800026c2 <vprintfmt+0x26e>
    800026ba:	a829                	j	800026d4 <vprintfmt+0x280>
    800026bc:	0785                	add	a5,a5,1
    800026be:	00d78563          	beq	a5,a3,800026c8 <vprintfmt+0x274>
    800026c2:	0007c703          	lbu	a4,0(a5)
    800026c6:	fb7d                	bnez	a4,800026bc <vprintfmt+0x268>
    800026c8:	41a787b3          	sub	a5,a5,s10
    800026cc:	40f60dbb          	subw	s11,a2,a5
    800026d0:	01b05963          	blez	s11,800026e2 <vprintfmt+0x28e>
    800026d4:	2c81                	sext.w	s9,s9
    800026d6:	85a6                	mv	a1,s1
    800026d8:	8566                	mv	a0,s9
    800026da:	3dfd                	addw	s11,s11,-1
    800026dc:	9902                	jalr	s2
    800026de:	fe0d9ce3          	bnez	s11,800026d6 <vprintfmt+0x282>
    800026e2:	000d4503          	lbu	a0,0(s10)
    800026e6:	d519                	beqz	a0,800025f4 <vprintfmt+0x1a0>
    800026e8:	59fd                	li	s3,-1
    800026ea:	bf85                	j	8000265a <vprintfmt+0x206>
    800026ec:	fffdc793          	not	a5,s11
    800026f0:	97fd                	sra	a5,a5,0x3f
    800026f2:	00fdf7b3          	and	a5,s11,a5
    800026f6:	00174683          	lbu	a3,1(a4)
    800026fa:	00078d9b          	sext.w	s11,a5
    800026fe:	8722                	mv	a4,s0
    80002700:	b375                	j	800024ac <vprintfmt+0x58>
    80002702:	000ba503          	lw	a0,0(s7)
    80002706:	85a6                	mv	a1,s1
    80002708:	0ba1                	add	s7,s7,8
    8000270a:	9902                	jalr	s2
    8000270c:	b351                	j	80002490 <vprintfmt+0x3c>
    8000270e:	4c01                	li	s8,0
    80002710:	b555                	j	800025b4 <vprintfmt+0x160>
    80002712:	000ba983          	lw	s3,0(s7)
    80002716:	bddd                	j	8000260c <vprintfmt+0x1b8>
    80002718:	ea6a                	sd	s10,272(sp)
    8000271a:	4629                	li	a2,10
    8000271c:	b729                	j	80002626 <vprintfmt+0x1d2>
    8000271e:	ea6a                	sd	s10,272(sp)
    80002720:	4621                	li	a2,8
    80002722:	b711                	j	80002626 <vprintfmt+0x1d2>
    80002724:	85a6                	mv	a1,s1
    80002726:	02d00513          	li	a0,45
    8000272a:	9902                	jalr	s2
    8000272c:	413007b3          	neg	a5,s3
    80002730:	8be2                	mv	s7,s8
    80002732:	4629                	li	a2,10
    80002734:	bda1                	j	8000258c <vprintfmt+0x138>
    80002736:	8722                	mv	a4,s0
    80002738:	b531                	j	80002544 <vprintfmt+0xf0>

000000008000273a <sprintf_putch.0>:
    8000273a:	619c                	ld	a5,0(a1)
    8000273c:	00a78023          	sb	a0,0(a5)
    80002740:	619c                	ld	a5,0(a1)
    80002742:	0785                	add	a5,a5,1
    80002744:	e19c                	sd	a5,0(a1)
    80002746:	8082                	ret

0000000080002748 <putchar>:
    80002748:	04022803          	lw	a6,64(tp) # 40 <buflen.1>
    8000274c:	00020793          	mv	a5,tp
    80002750:	97c2                	add	a5,a5,a6
    80002752:	7159                	add	sp,sp,-112
    80002754:	0018069b          	addw	a3,a6,1
    80002758:	04d22023          	sw	a3,64(tp) # 40 <buflen.1>
    8000275c:	00a78023          	sb	a0,0(a5)
    80002760:	03f10713          	add	a4,sp,63
    80002764:	47a9                	li	a5,10
    80002766:	fc077713          	and	a4,a4,-64
    8000276a:	00f50963          	beq	a0,a5,8000277c <putchar+0x34>
    8000276e:	04000793          	li	a5,64
    80002772:	00f68563          	beq	a3,a5,8000277c <putchar+0x34>
    80002776:	4501                	li	a0,0
    80002778:	6165                	add	sp,sp,112
    8000277a:	8082                	ret
    8000277c:	04000793          	li	a5,64
    80002780:	e31c                	sd	a5,0(a4)
    80002782:	4785                	li	a5,1
    80002784:	e71c                	sd	a5,8(a4)
    80002786:	00020613          	mv	a2,tp
    8000278a:	eb10                	sd	a2,16(a4)
    8000278c:	ef14                	sd	a3,24(a4)
    8000278e:	0ff0000f          	fence
    80002792:	fffff697          	auipc	a3,0xfffff
    80002796:	8ae68693          	add	a3,a3,-1874 # 80001040 <fromhost>
    8000279a:	fffff797          	auipc	a5,0xfffff
    8000279e:	86e7b323          	sd	a4,-1946(a5) # 80001000 <tohost>
    800027a2:	629c                	ld	a5,0(a3)
    800027a4:	dffd                	beqz	a5,800027a2 <putchar+0x5a>
    800027a6:	fffff797          	auipc	a5,0xfffff
    800027aa:	8807bd23          	sd	zero,-1894(a5) # 80001040 <fromhost>
    800027ae:	0ff0000f          	fence
    800027b2:	04022023          	sw	zero,64(tp) # 40 <buflen.1>
    800027b6:	631c                	ld	a5,0(a4)
    800027b8:	4501                	li	a0,0
    800027ba:	6165                	add	sp,sp,112
    800027bc:	8082                	ret

00000000800027be <setStats>:
    800027be:	b0002773          	csrr	a4,mcycle
    800027c2:	88418793          	add	a5,gp,-1916 # 80002e80 <counters>
    800027c6:	c511                	beqz	a0,800027d2 <setStats+0x14>
    800027c8:	e398                	sd	a4,0(a5)
    800027ca:	b0202773          	csrr	a4,minstret
    800027ce:	e798                	sd	a4,8(a5)
    800027d0:	8082                	ret
    800027d2:	6394                	ld	a3,0(a5)
    800027d4:	00000617          	auipc	a2,0x0
    800027d8:	49460613          	add	a2,a2,1172 # 80002c68 <main+0x9c>
    800027dc:	eb90                	sd	a2,16(a5)
    800027de:	8f15                	sub	a4,a4,a3
    800027e0:	e398                	sd	a4,0(a5)
    800027e2:	b0202773          	csrr	a4,minstret
    800027e6:	6794                	ld	a3,8(a5)
    800027e8:	00000617          	auipc	a2,0x0
    800027ec:	48860613          	add	a2,a2,1160 # 80002c70 <main+0xa4>
    800027f0:	ef90                	sd	a2,24(a5)
    800027f2:	8f15                	sub	a4,a4,a3
    800027f4:	e798                	sd	a4,8(a5)
    800027f6:	8082                	ret

00000000800027f8 <tohost_exit>:
    800027f8:	00151793          	sll	a5,a0,0x1
    800027fc:	0017e793          	or	a5,a5,1
    80002800:	fffff717          	auipc	a4,0xfffff
    80002804:	80f73023          	sd	a5,-2048(a4) # 80001000 <tohost>
    80002808:	a001                	j	80002808 <tohost_exit+0x10>

000000008000280a <handle_trap>:
    8000280a:	6785                	lui	a5,0x1
    8000280c:	a7378793          	add	a5,a5,-1421 # a73 <buflen.1+0xa33>
    80002810:	ffffe717          	auipc	a4,0xffffe
    80002814:	7ef73823          	sd	a5,2032(a4) # 80001000 <tohost>
    80002818:	a001                	j	80002818 <handle_trap+0xe>

000000008000281a <exit>:
    8000281a:	1141                	add	sp,sp,-16
    8000281c:	e406                	sd	ra,8(sp)
    8000281e:	fdbff0ef          	jal	800027f8 <tohost_exit>

0000000080002822 <abort>:
    80002822:	10d00793          	li	a5,269
    80002826:	ffffe717          	auipc	a4,0xffffe
    8000282a:	7cf73d23          	sd	a5,2010(a4) # 80001000 <tohost>
    8000282e:	a001                	j	8000282e <abort+0xc>

0000000080002830 <printstr>:
    80002830:	00054783          	lbu	a5,0(a0)
    80002834:	7159                	add	sp,sp,-112
    80002836:	03f10693          	add	a3,sp,63
    8000283a:	fc06f693          	and	a3,a3,-64
    8000283e:	c3b9                	beqz	a5,80002884 <printstr+0x54>
    80002840:	87aa                	mv	a5,a0
    80002842:	0017c703          	lbu	a4,1(a5)
    80002846:	0785                	add	a5,a5,1
    80002848:	ff6d                	bnez	a4,80002842 <printstr+0x12>
    8000284a:	8f89                	sub	a5,a5,a0
    8000284c:	04000713          	li	a4,64
    80002850:	e298                	sd	a4,0(a3)
    80002852:	4705                	li	a4,1
    80002854:	e698                	sd	a4,8(a3)
    80002856:	ea88                	sd	a0,16(a3)
    80002858:	ee9c                	sd	a5,24(a3)
    8000285a:	0ff0000f          	fence
    8000285e:	ffffe717          	auipc	a4,0xffffe
    80002862:	7e270713          	add	a4,a4,2018 # 80001040 <fromhost>
    80002866:	ffffe797          	auipc	a5,0xffffe
    8000286a:	78d7bd23          	sd	a3,1946(a5) # 80001000 <tohost>
    8000286e:	631c                	ld	a5,0(a4)
    80002870:	dffd                	beqz	a5,8000286e <printstr+0x3e>
    80002872:	ffffe797          	auipc	a5,0xffffe
    80002876:	7c07b723          	sd	zero,1998(a5) # 80001040 <fromhost>
    8000287a:	0ff0000f          	fence
    8000287e:	629c                	ld	a5,0(a3)
    80002880:	6165                	add	sp,sp,112
    80002882:	8082                	ret
    80002884:	4781                	li	a5,0
    80002886:	b7d9                	j	8000284c <printstr+0x1c>

0000000080002888 <thread_entry>:
    80002888:	c111                	beqz	a0,8000288c <thread_entry+0x4>
    8000288a:	a001                	j	8000288a <thread_entry+0x2>
    8000288c:	8082                	ret

000000008000288e <printhex>:
    8000288e:	7179                	add	sp,sp,-48
    80002890:	87aa                	mv	a5,a0
    80002892:	f406                	sd	ra,40(sp)
    80002894:	0028                	add	a0,sp,8
    80002896:	01710713          	add	a4,sp,23
    8000289a:	4825                	li	a6,9
    8000289c:	a011                	j	800028a0 <printhex+0x12>
    8000289e:	8736                	mv	a4,a3
    800028a0:	00f7f613          	and	a2,a5,15
    800028a4:	86b2                	mv	a3,a2
    800028a6:	03000593          	li	a1,48
    800028aa:	00c87463          	bgeu	a6,a2,800028b2 <printhex+0x24>
    800028ae:	05700593          	li	a1,87
    800028b2:	9ead                	addw	a3,a3,a1
    800028b4:	00d70023          	sb	a3,0(a4)
    800028b8:	8391                	srl	a5,a5,0x4
    800028ba:	fff70693          	add	a3,a4,-1
    800028be:	fee510e3          	bne	a0,a4,8000289e <printhex+0x10>
    800028c2:	00010c23          	sb	zero,24(sp)
    800028c6:	f6bff0ef          	jal	80002830 <printstr>
    800028ca:	70a2                	ld	ra,40(sp)
    800028cc:	6145                	add	sp,sp,48
    800028ce:	8082                	ret

00000000800028d0 <printf>:
    800028d0:	711d                	add	sp,sp,-96
    800028d2:	02810313          	add	t1,sp,40
    800028d6:	f42e                	sd	a1,40(sp)
    800028d8:	f832                	sd	a2,48(sp)
    800028da:	fc36                	sd	a3,56(sp)
    800028dc:	862a                	mv	a2,a0
    800028de:	869a                	mv	a3,t1
    800028e0:	00000517          	auipc	a0,0x0
    800028e4:	e6850513          	add	a0,a0,-408 # 80002748 <putchar>
    800028e8:	4581                	li	a1,0
    800028ea:	ec06                	sd	ra,24(sp)
    800028ec:	e0ba                	sd	a4,64(sp)
    800028ee:	e4be                	sd	a5,72(sp)
    800028f0:	e8c2                	sd	a6,80(sp)
    800028f2:	ecc6                	sd	a7,88(sp)
    800028f4:	e41a                	sd	t1,8(sp)
    800028f6:	b5fff0ef          	jal	80002454 <vprintfmt>
    800028fa:	60e2                	ld	ra,24(sp)
    800028fc:	4501                	li	a0,0
    800028fe:	6125                	add	sp,sp,96
    80002900:	8082                	ret

0000000080002902 <sprintf>:
    80002902:	711d                	add	sp,sp,-96
    80002904:	03010e13          	add	t3,sp,48
    80002908:	f022                	sd	s0,32(sp)
    8000290a:	e42a                	sd	a0,8(sp)
    8000290c:	842a                	mv	s0,a0
    8000290e:	f832                	sd	a2,48(sp)
    80002910:	fc36                	sd	a3,56(sp)
    80002912:	862e                	mv	a2,a1
    80002914:	00000517          	auipc	a0,0x0
    80002918:	e2650513          	add	a0,a0,-474 # 8000273a <sprintf_putch.0>
    8000291c:	002c                	add	a1,sp,8
    8000291e:	86f2                	mv	a3,t3
    80002920:	f406                	sd	ra,40(sp)
    80002922:	e4be                	sd	a5,72(sp)
    80002924:	e0ba                	sd	a4,64(sp)
    80002926:	e8c2                	sd	a6,80(sp)
    80002928:	ecc6                	sd	a7,88(sp)
    8000292a:	ec72                	sd	t3,24(sp)
    8000292c:	b29ff0ef          	jal	80002454 <vprintfmt>
    80002930:	67a2                	ld	a5,8(sp)
    80002932:	00078023          	sb	zero,0(a5)
    80002936:	6522                	ld	a0,8(sp)
    80002938:	70a2                	ld	ra,40(sp)
    8000293a:	9d01                	subw	a0,a0,s0
    8000293c:	7402                	ld	s0,32(sp)
    8000293e:	6125                	add	sp,sp,96
    80002940:	8082                	ret

0000000080002942 <memcpy>:
    80002942:	00c5e7b3          	or	a5,a1,a2
    80002946:	8fc9                	or	a5,a5,a0
    80002948:	8b9d                	and	a5,a5,7
    8000294a:	00c50833          	add	a6,a0,a2
    8000294e:	cf91                	beqz	a5,8000296a <memcpy+0x28>
    80002950:	962e                	add	a2,a2,a1
    80002952:	87aa                	mv	a5,a0
    80002954:	09057c63          	bgeu	a0,a6,800029ec <memcpy+0xaa>
    80002958:	0005c703          	lbu	a4,0(a1)
    8000295c:	0585                	add	a1,a1,1
    8000295e:	0785                	add	a5,a5,1
    80002960:	fee78fa3          	sb	a4,-1(a5)
    80002964:	fec59ae3          	bne	a1,a2,80002958 <memcpy+0x16>
    80002968:	8082                	ret
    8000296a:	04050693          	add	a3,a0,64
    8000296e:	0906f063          	bgeu	a3,a6,800029ee <memcpy+0xac>
    80002972:	87b6                	mv	a5,a3
    80002974:	872e                	mv	a4,a1
    80002976:	00073383          	ld	t2,0(a4)
    8000297a:	00873283          	ld	t0,8(a4)
    8000297e:	01073f83          	ld	t6,16(a4)
    80002982:	01873f03          	ld	t5,24(a4)
    80002986:	02073e83          	ld	t4,32(a4)
    8000298a:	02873e03          	ld	t3,40(a4)
    8000298e:	03073303          	ld	t1,48(a4)
    80002992:	03873883          	ld	a7,56(a4)
    80002996:	04078793          	add	a5,a5,64
    8000299a:	f877b023          	sd	t2,-128(a5)
    8000299e:	f857b423          	sd	t0,-120(a5)
    800029a2:	f9f7b823          	sd	t6,-112(a5)
    800029a6:	f9e7bc23          	sd	t5,-104(a5)
    800029aa:	fbd7b023          	sd	t4,-96(a5)
    800029ae:	fbc7b423          	sd	t3,-88(a5)
    800029b2:	fa67b823          	sd	t1,-80(a5)
    800029b6:	fb17bc23          	sd	a7,-72(a5)
    800029ba:	04070713          	add	a4,a4,64
    800029be:	fb07ece3          	bltu	a5,a6,80002976 <memcpy+0x34>
    800029c2:	fbf60613          	add	a2,a2,-65
    800029c6:	fc067793          	and	a5,a2,-64
    800029ca:	04078793          	add	a5,a5,64
    800029ce:	fc067613          	and	a2,a2,-64
    800029d2:	95be                	add	a1,a1,a5
    800029d4:	00c687b3          	add	a5,a3,a2
    800029d8:	f907f8e3          	bgeu	a5,a6,80002968 <memcpy+0x26>
    800029dc:	6198                	ld	a4,0(a1)
    800029de:	07a1                	add	a5,a5,8
    800029e0:	05a1                	add	a1,a1,8
    800029e2:	fee7bc23          	sd	a4,-8(a5)
    800029e6:	ff07ebe3          	bltu	a5,a6,800029dc <memcpy+0x9a>
    800029ea:	8082                	ret
    800029ec:	8082                	ret
    800029ee:	87aa                	mv	a5,a0
    800029f0:	b7e5                	j	800029d8 <memcpy+0x96>

00000000800029f2 <memset>:
    800029f2:	00c567b3          	or	a5,a0,a2
    800029f6:	8b9d                	and	a5,a5,7
    800029f8:	962a                	add	a2,a2,a0
    800029fa:	cf81                	beqz	a5,80002a12 <memset+0x20>
    800029fc:	0ff5f713          	zext.b	a4,a1
    80002a00:	87aa                	mv	a5,a0
    80002a02:	02c57f63          	bgeu	a0,a2,80002a40 <memset+0x4e>
    80002a06:	0785                	add	a5,a5,1
    80002a08:	fee78fa3          	sb	a4,-1(a5)
    80002a0c:	fec79de3          	bne	a5,a2,80002a06 <memset+0x14>
    80002a10:	8082                	ret
    80002a12:	010107b7          	lui	a5,0x1010
    80002a16:	10178793          	add	a5,a5,257 # 1010101 <buflen.1+0x10100c1>
    80002a1a:	07c2                	sll	a5,a5,0x10
    80002a1c:	10178793          	add	a5,a5,257
    80002a20:	07c2                	sll	a5,a5,0x10
    80002a22:	0ff5f713          	zext.b	a4,a1
    80002a26:	10178793          	add	a5,a5,257
    80002a2a:	02f70733          	mul	a4,a4,a5
    80002a2e:	fec571e3          	bgeu	a0,a2,80002a10 <memset+0x1e>
    80002a32:	87aa                	mv	a5,a0
    80002a34:	07a1                	add	a5,a5,8
    80002a36:	fee7bc23          	sd	a4,-8(a5)
    80002a3a:	fec7ede3          	bltu	a5,a2,80002a34 <memset+0x42>
    80002a3e:	8082                	ret
    80002a40:	8082                	ret

0000000080002a42 <_init>:
    80002a42:	7171                	add	sp,sp,-176
    80002a44:	8a418793          	add	a5,gp,-1884 # 80002ea0 <_tdata_begin>
    80002a48:	e152                	sd	s4,128(sp)
    80002a4a:	8a418a13          	add	s4,gp,-1884 # 80002ea0 <_tdata_begin>
    80002a4e:	e54e                	sd	s3,136(sp)
    80002a50:	40fa09b3          	sub	s3,s4,a5
    80002a54:	ed26                	sd	s1,152(sp)
    80002a56:	e94a                	sd	s2,144(sp)
    80002a58:	84aa                	mv	s1,a0
    80002a5a:	892e                	mv	s2,a1
    80002a5c:	8512                	mv	a0,tp
    80002a5e:	85be                	mv	a1,a5
    80002a60:	864e                	mv	a2,s3
    80002a62:	f506                	sd	ra,168(sp)
    80002a64:	f122                	sd	s0,160(sp)
    80002a66:	fcd6                	sd	s5,120(sp)
    80002a68:	8a92                	mv	s5,tp
    80002a6a:	ed9ff0ef          	jal	80002942 <memcpy>
    80002a6e:	90818613          	add	a2,gp,-1784 # 80002f04 <_tbss_end>
    80002a72:	41460633          	sub	a2,a2,s4
    80002a76:	4581                	li	a1,0
    80002a78:	013a8533          	add	a0,s5,s3
    80002a7c:	f77ff0ef          	jal	800029f2 <memset>
    80002a80:	85ca                	mv	a1,s2
    80002a82:	8526                	mv	a0,s1
    80002a84:	e05ff0ef          	jal	80002888 <thread_entry>
    80002a88:	4581                	li	a1,0
    80002a8a:	4501                	li	a0,0
    80002a8c:	140000ef          	jal	80002bcc <main>
    80002a90:	88418913          	add	s2,gp,-1916 # 80002e80 <counters>
    80002a94:	00093683          	ld	a3,0(s2)
    80002a98:	03f10413          	add	s0,sp,63
    80002a9c:	fc047413          	and	s0,s0,-64
    80002aa0:	84aa                	mv	s1,a0
    80002aa2:	ea85                	bnez	a3,80002ad2 <_init+0x90>
    80002aa4:	00893683          	ld	a3,8(s2)
    80002aa8:	e681                	bnez	a3,80002ab0 <_init+0x6e>
    80002aaa:	8526                	mv	a0,s1
    80002aac:	d4dff0ef          	jal	800027f8 <tohost_exit>
    80002ab0:	89a2                	mv	s3,s0
    80002ab2:	01893603          	ld	a2,24(s2)
    80002ab6:	854e                	mv	a0,s3
    80002ab8:	00000597          	auipc	a1,0x0
    80002abc:	1e058593          	add	a1,a1,480 # 80002c98 <main+0xcc>
    80002ac0:	e43ff0ef          	jal	80002902 <sprintf>
    80002ac4:	99aa                	add	s3,s3,a0
    80002ac6:	ff3402e3          	beq	s0,s3,80002aaa <_init+0x68>
    80002aca:	8522                	mv	a0,s0
    80002acc:	d65ff0ef          	jal	80002830 <printstr>
    80002ad0:	bfe9                	j	80002aaa <_init+0x68>
    80002ad2:	01093603          	ld	a2,16(s2)
    80002ad6:	00000597          	auipc	a1,0x0
    80002ada:	1c258593          	add	a1,a1,450 # 80002c98 <main+0xcc>
    80002ade:	8522                	mv	a0,s0
    80002ae0:	e23ff0ef          	jal	80002902 <sprintf>
    80002ae4:	00893683          	ld	a3,8(s2)
    80002ae8:	00a409b3          	add	s3,s0,a0
    80002aec:	dee9                	beqz	a3,80002ac6 <_init+0x84>
    80002aee:	b7d1                	j	80002ab2 <_init+0x70>

0000000080002af0 <strlen>:
    80002af0:	00054783          	lbu	a5,0(a0)
    80002af4:	cb89                	beqz	a5,80002b06 <strlen+0x16>
    80002af6:	87aa                	mv	a5,a0
    80002af8:	0017c703          	lbu	a4,1(a5)
    80002afc:	0785                	add	a5,a5,1
    80002afe:	ff6d                	bnez	a4,80002af8 <strlen+0x8>
    80002b00:	40a78533          	sub	a0,a5,a0
    80002b04:	8082                	ret
    80002b06:	4501                	li	a0,0
    80002b08:	8082                	ret

0000000080002b0a <strnlen>:
    80002b0a:	00b506b3          	add	a3,a0,a1
    80002b0e:	87aa                	mv	a5,a0
    80002b10:	e589                	bnez	a1,80002b1a <strnlen+0x10>
    80002b12:	a829                	j	80002b2c <strnlen+0x22>
    80002b14:	0785                	add	a5,a5,1
    80002b16:	00f68863          	beq	a3,a5,80002b26 <strnlen+0x1c>
    80002b1a:	0007c703          	lbu	a4,0(a5)
    80002b1e:	fb7d                	bnez	a4,80002b14 <strnlen+0xa>
    80002b20:	40a78533          	sub	a0,a5,a0
    80002b24:	8082                	ret
    80002b26:	40a68533          	sub	a0,a3,a0
    80002b2a:	8082                	ret
    80002b2c:	4501                	li	a0,0
    80002b2e:	8082                	ret

0000000080002b30 <strcmp>:
    80002b30:	00054783          	lbu	a5,0(a0)
    80002b34:	0585                	add	a1,a1,1
    80002b36:	0505                	add	a0,a0,1
    80002b38:	fff5c703          	lbu	a4,-1(a1)
    80002b3c:	c799                	beqz	a5,80002b4a <strcmp+0x1a>
    80002b3e:	fee789e3          	beq	a5,a4,80002b30 <strcmp>
    80002b42:	0007851b          	sext.w	a0,a5
    80002b46:	9d19                	subw	a0,a0,a4
    80002b48:	8082                	ret
    80002b4a:	4501                	li	a0,0
    80002b4c:	bfed                	j	80002b46 <strcmp+0x16>

0000000080002b4e <strcpy>:
    80002b4e:	87aa                	mv	a5,a0
    80002b50:	0005c703          	lbu	a4,0(a1)
    80002b54:	0785                	add	a5,a5,1
    80002b56:	0585                	add	a1,a1,1
    80002b58:	fee78fa3          	sb	a4,-1(a5)
    80002b5c:	fb75                	bnez	a4,80002b50 <strcpy+0x2>
    80002b5e:	8082                	ret

0000000080002b60 <atol>:
    80002b60:	00054703          	lbu	a4,0(a0)
    80002b64:	02000693          	li	a3,32
    80002b68:	87aa                	mv	a5,a0
    80002b6a:	00d71763          	bne	a4,a3,80002b78 <atol+0x18>
    80002b6e:	0017c703          	lbu	a4,1(a5)
    80002b72:	0785                	add	a5,a5,1
    80002b74:	fed70de3          	beq	a4,a3,80002b6e <atol+0xe>
    80002b78:	02d00693          	li	a3,45
    80002b7c:	04d70163          	beq	a4,a3,80002bbe <atol+0x5e>
    80002b80:	02b00693          	li	a3,43
    80002b84:	02d70763          	beq	a4,a3,80002bb2 <atol+0x52>
    80002b88:	0007c683          	lbu	a3,0(a5)
    80002b8c:	4581                	li	a1,0
    80002b8e:	ce8d                	beqz	a3,80002bc8 <atol+0x68>
    80002b90:	4501                	li	a0,0
    80002b92:	0785                	add	a5,a5,1
    80002b94:	00251713          	sll	a4,a0,0x2
    80002b98:	fd06861b          	addw	a2,a3,-48
    80002b9c:	0007c683          	lbu	a3,0(a5)
    80002ba0:	972a                	add	a4,a4,a0
    80002ba2:	0706                	sll	a4,a4,0x1
    80002ba4:	00e60533          	add	a0,a2,a4
    80002ba8:	f6ed                	bnez	a3,80002b92 <atol+0x32>
    80002baa:	c185                	beqz	a1,80002bca <atol+0x6a>
    80002bac:	40a00533          	neg	a0,a0
    80002bb0:	8082                	ret
    80002bb2:	0017c683          	lbu	a3,1(a5)
    80002bb6:	0785                	add	a5,a5,1
    80002bb8:	ca81                	beqz	a3,80002bc8 <atol+0x68>
    80002bba:	4581                	li	a1,0
    80002bbc:	bfd1                	j	80002b90 <atol+0x30>
    80002bbe:	0017c683          	lbu	a3,1(a5)
    80002bc2:	4585                	li	a1,1
    80002bc4:	0785                	add	a5,a5,1
    80002bc6:	f6e9                	bnez	a3,80002b90 <atol+0x30>
    80002bc8:	4501                	li	a0,0
    80002bca:	8082                	ret

Disassembly of section .text.startup:

0000000080002bcc <main>:
    80002bcc:	715d                	add	sp,sp,-80
    80002bce:	00000797          	auipc	a5,0x0
    80002bd2:	23278793          	add	a5,a5,562 # 80002e00 <g_nodeFreeList>
    80002bd6:	e486                	sd	ra,72(sp)
    80002bd8:	00000717          	auipc	a4,0x0
    80002bdc:	23870713          	add	a4,a4,568 # 80002e10 <g_nodePool>
    80002be0:	e798                	sd	a4,8(a5)
    80002be2:	471d                	li	a4,7
    80002be4:	c398                	sw	a4,0(a5)
    80002be6:	8601be23          	sd	zero,-1924(gp) # 80002e78 <g_nodePool+0x68>
    80002bea:	06300713          	li	a4,99
    80002bee:	dbb8                	sw	a4,112(a5)
    80002bf0:	4619                	li	a2,6
    80002bf2:	00000797          	auipc	a5,0x0
    80002bf6:	22e78793          	add	a5,a5,558 # 80002e20 <g_nodePool+0x10>
    80002bfa:	4701                	li	a4,0
    80002bfc:	fee7a823          	sw	a4,-16(a5)
    80002c00:	fef7bc23          	sd	a5,-8(a5)
    80002c04:	2705                	addw	a4,a4,1
    80002c06:	07c1                	add	a5,a5,16
    80002c08:	fec71ae3          	bne	a4,a2,80002bfc <main+0x30>
    80002c0c:	459d                	li	a1,7
    80002c0e:	0028                	add	a0,sp,8
    80002c10:	c60ff0ef          	jal	80002070 <towers_init>
    80002c14:	0028                	add	a0,sp,8
    80002c16:	fe4ff0ef          	jal	800023fa <towers_solve>
    80002c1a:	0028                	add	a0,sp,8
    80002c1c:	ca8ff0ef          	jal	800020c4 <towers_clear>
    80002c20:	4505                	li	a0,1
    80002c22:	b9dff0ef          	jal	800027be <setStats>
    80002c26:	0028                	add	a0,sp,8
    80002c28:	fd2ff0ef          	jal	800023fa <towers_solve>
    80002c2c:	4501                	li	a0,0
    80002c2e:	b91ff0ef          	jal	800027be <setStats>
    80002c32:	0028                	add	a0,sp,8
    80002c34:	fd6ff0ef          	jal	8000240a <towers_verify>
    80002c38:	60a6                	ld	ra,72(sp)
    80002c3a:	6161                	add	sp,sp,80
    80002c3c:	8082                	ret
    80002c3e:	1141                	add	sp,sp,-16
    80002c40:	00000517          	auipc	a0,0x0
    80002c44:	04050513          	add	a0,a0,64 # 80002c80 <main+0xb4>
    80002c48:	e406                	sd	ra,8(sp)
    80002c4a:	be7ff0ef          	jal	80002830 <printstr>
    80002c4e:	60a2                	ld	ra,8(sp)
    80002c50:	557d                	li	a0,-1
    80002c52:	0141                	add	sp,sp,16
    80002c54:	8082                	ret
