
vec-sgemm.riscv:     file format elf64-littleriscv


Disassembly of section .text.init:

0000000080000000 <_start>:
    80000000:	4081                	li	ra,0
    80000002:	4101                	li	sp,0
    80000004:	4181                	li	gp,0
    80000006:	4201                	li	tp,0
    80000008:	4281                	li	t0,0
    8000000a:	4301                	li	t1,0
    8000000c:	4381                	li	t2,0
    8000000e:	4401                	li	s0,0
    80000010:	4481                	li	s1,0
    80000012:	4501                	li	a0,0
    80000014:	4581                	li	a1,0
    80000016:	4601                	li	a2,0
    80000018:	4681                	li	a3,0
    8000001a:	4701                	li	a4,0
    8000001c:	4781                	li	a5,0
    8000001e:	4801                	li	a6,0
    80000020:	4881                	li	a7,0
    80000022:	4901                	li	s2,0
    80000024:	4981                	li	s3,0
    80000026:	4a01                	li	s4,0
    80000028:	4a81                	li	s5,0
    8000002a:	4b01                	li	s6,0
    8000002c:	4b81                	li	s7,0
    8000002e:	4c01                	li	s8,0
    80000030:	4c81                	li	s9,0
    80000032:	4d01                	li	s10,0
    80000034:	4d81                	li	s11,0
    80000036:	4e01                	li	t3,0
    80000038:	4e81                	li	t4,0
    8000003a:	4f01                	li	t5,0
    8000003c:	4f81                	li	t6,0
    8000003e:	62f9                	lui	t0,0x1e
    80000040:	6002829b          	addw	t0,t0,1536 # 1e600 <buflen.1+0x1e5c0>
    80000044:	3002a073          	csrs	mstatus,t0
    80000048:	4285                	li	t0,1
    8000004a:	02fe                	sll	t0,t0,0x1f
    8000004c:	0002d863          	bgez	t0,8000005c <_start+0x5c>
    80000050:	4505                	li	a0,1
    80000052:	00001297          	auipc	t0,0x1
    80000056:	faa2a723          	sw	a0,-82(t0) # 80001000 <tohost>
    8000005a:	bfdd                	j	80000050 <_start+0x50>
    8000005c:	00000297          	auipc	t0,0x0
    80000060:	09028293          	add	t0,t0,144 # 800000ec <_start+0xec>
    80000064:	30529073          	csrw	mtvec,t0
    80000068:	00301073          	fscsr	zero
    8000006c:	f0000053          	fmv.w.x	ft0,zero
    80000070:	f00000d3          	fmv.w.x	ft1,zero
    80000074:	f0000153          	fmv.w.x	ft2,zero
    80000078:	f00001d3          	fmv.w.x	ft3,zero
    8000007c:	f0000253          	fmv.w.x	ft4,zero
    80000080:	f00002d3          	fmv.w.x	ft5,zero
    80000084:	f0000353          	fmv.w.x	ft6,zero
    80000088:	f00003d3          	fmv.w.x	ft7,zero
    8000008c:	f0000453          	fmv.w.x	fs0,zero
    80000090:	f00004d3          	fmv.w.x	fs1,zero
    80000094:	f0000553          	fmv.w.x	fa0,zero
    80000098:	f00005d3          	fmv.w.x	fa1,zero
    8000009c:	f0000653          	fmv.w.x	fa2,zero
    800000a0:	f00006d3          	fmv.w.x	fa3,zero
    800000a4:	f0000753          	fmv.w.x	fa4,zero
    800000a8:	f00007d3          	fmv.w.x	fa5,zero
    800000ac:	f0000853          	fmv.w.x	fa6,zero
    800000b0:	f00008d3          	fmv.w.x	fa7,zero
    800000b4:	f0000953          	fmv.w.x	fs2,zero
    800000b8:	f00009d3          	fmv.w.x	fs3,zero
    800000bc:	f0000a53          	fmv.w.x	fs4,zero
    800000c0:	f0000ad3          	fmv.w.x	fs5,zero
    800000c4:	f0000b53          	fmv.w.x	fs6,zero
    800000c8:	f0000bd3          	fmv.w.x	fs7,zero
    800000cc:	f0000c53          	fmv.w.x	fs8,zero
    800000d0:	f0000cd3          	fmv.w.x	fs9,zero
    800000d4:	f0000d53          	fmv.w.x	fs10,zero
    800000d8:	f0000dd3          	fmv.w.x	fs11,zero
    800000dc:	f0000e53          	fmv.w.x	ft8,zero
    800000e0:	f0000ed3          	fmv.w.x	ft9,zero
    800000e4:	f0000f53          	fmv.w.x	ft10,zero
    800000e8:	f0000fd3          	fmv.w.x	ft11,zero
    800000ec:	00000297          	auipc	t0,0x0
    800000f0:	03828293          	add	t0,t0,56 # 80000124 <trap_entry>
    800000f4:	30529073          	csrw	mtvec,t0
    800000f8:	00006197          	auipc	gp,0x6
    800000fc:	33818193          	add	gp,gp,824 # 80006430 <__global_pointer$>
    80000100:	88f18213          	add	tp,gp,-1905 # 80005cbf <_end+0x3f>
    80000104:	fc027213          	and	tp,tp,-64
    80000108:	f1402573          	csrr	a0,mhartid
    8000010c:	4585                	li	a1,1
    8000010e:	00b57063          	bgeu	a0,a1,8000010e <_start+0x10e>
    80000112:	00150113          	add	sp,a0,1
    80000116:	0146                	sll	sp,sp,0x11
    80000118:	9112                	add	sp,sp,tp
    8000011a:	01151613          	sll	a2,a0,0x11
    8000011e:	9232                	add	tp,tp,a2
    80000120:	6d80206f          	j	800027f8 <_init>

0000000080000124 <trap_entry>:
    80000124:	716d                	add	sp,sp,-272
    80000126:	e406                	sd	ra,8(sp)
    80000128:	e80a                	sd	sp,16(sp)
    8000012a:	ec0e                	sd	gp,24(sp)
    8000012c:	f012                	sd	tp,32(sp)
    8000012e:	f416                	sd	t0,40(sp)
    80000130:	f81a                	sd	t1,48(sp)
    80000132:	fc1e                	sd	t2,56(sp)
    80000134:	e0a2                	sd	s0,64(sp)
    80000136:	e4a6                	sd	s1,72(sp)
    80000138:	e8aa                	sd	a0,80(sp)
    8000013a:	ecae                	sd	a1,88(sp)
    8000013c:	f0b2                	sd	a2,96(sp)
    8000013e:	f4b6                	sd	a3,104(sp)
    80000140:	f8ba                	sd	a4,112(sp)
    80000142:	fcbe                	sd	a5,120(sp)
    80000144:	e142                	sd	a6,128(sp)
    80000146:	e546                	sd	a7,136(sp)
    80000148:	e94a                	sd	s2,144(sp)
    8000014a:	ed4e                	sd	s3,152(sp)
    8000014c:	f152                	sd	s4,160(sp)
    8000014e:	f556                	sd	s5,168(sp)
    80000150:	f95a                	sd	s6,176(sp)
    80000152:	fd5e                	sd	s7,184(sp)
    80000154:	e1e2                	sd	s8,192(sp)
    80000156:	e5e6                	sd	s9,200(sp)
    80000158:	e9ea                	sd	s10,208(sp)
    8000015a:	edee                	sd	s11,216(sp)
    8000015c:	f1f2                	sd	t3,224(sp)
    8000015e:	f5f6                	sd	t4,232(sp)
    80000160:	f9fa                	sd	t5,240(sp)
    80000162:	fdfe                	sd	t6,248(sp)
    80000164:	34202573          	csrr	a0,mcause
    80000168:	341025f3          	csrr	a1,mepc
    8000016c:	860a                	mv	a2,sp
    8000016e:	452020ef          	jal	800025c0 <handle_trap>
    80000172:	34151073          	csrw	mepc,a0
    80000176:	6289                	lui	t0,0x2
    80000178:	8002829b          	addw	t0,t0,-2048 # 1800 <buflen.1+0x17c0>
    8000017c:	3002a073          	csrs	mstatus,t0
    80000180:	60a2                	ld	ra,8(sp)
    80000182:	6142                	ld	sp,16(sp)
    80000184:	61e2                	ld	gp,24(sp)
    80000186:	7202                	ld	tp,32(sp)
    80000188:	72a2                	ld	t0,40(sp)
    8000018a:	7342                	ld	t1,48(sp)
    8000018c:	73e2                	ld	t2,56(sp)
    8000018e:	6406                	ld	s0,64(sp)
    80000190:	64a6                	ld	s1,72(sp)
    80000192:	6546                	ld	a0,80(sp)
    80000194:	65e6                	ld	a1,88(sp)
    80000196:	7606                	ld	a2,96(sp)
    80000198:	76a6                	ld	a3,104(sp)
    8000019a:	7746                	ld	a4,112(sp)
    8000019c:	77e6                	ld	a5,120(sp)
    8000019e:	680a                	ld	a6,128(sp)
    800001a0:	68aa                	ld	a7,136(sp)
    800001a2:	694a                	ld	s2,144(sp)
    800001a4:	69ea                	ld	s3,152(sp)
    800001a6:	7a0a                	ld	s4,160(sp)
    800001a8:	7aaa                	ld	s5,168(sp)
    800001aa:	7b4a                	ld	s6,176(sp)
    800001ac:	7bea                	ld	s7,184(sp)
    800001ae:	6c0e                	ld	s8,192(sp)
    800001b0:	6cae                	ld	s9,200(sp)
    800001b2:	6d4e                	ld	s10,208(sp)
    800001b4:	6dee                	ld	s11,216(sp)
    800001b6:	7e0e                	ld	t3,224(sp)
    800001b8:	7eae                	ld	t4,232(sp)
    800001ba:	7f4e                	ld	t5,240(sp)
    800001bc:	7fee                	ld	t6,248(sp)
    800001be:	6151                	add	sp,sp,272
    800001c0:	30200073          	mret
    800001c4:	0000                	unimp

Disassembly of section .text:

0000000080002000 <vec_sgemm_nn>:
    80002000:	6282                	ld	t0,0(sp)
    80002002:	1101                	add	sp,sp,-32
    80002004:	e022                	sd	s0,0(sp)
    80002006:	e426                	sd	s1,8(sp)
    80002008:	e84a                	sd	s2,16(sp)
    8000200a:	1e050863          	beqz	a0,800021fa <end_rows>
    8000200e:	1e058663          	beqz	a1,800021fa <end_rows>
    80002012:	1e060463          	beqz	a2,800021fa <end_rows>
    80002016:	070a                	sll	a4,a4,0x2
    80002018:	080a                	sll	a6,a6,0x2
    8000201a:	028a                	sll	t0,t0,0x2
    8000201c:	0105af93          	slti	t6,a1,16
    80002020:	1c0f9d63          	bnez	t6,800021fa <end_rows>

0000000080002024 <c_row_loop>:
    80002024:	83aa                	mv	t2,a0
    80002026:	8e3e                	mv	t3,a5
    80002028:	8ec6                	mv	t4,a7

000000008000202a <c_col_loop>:
    8000202a:	0d03f4d7          	vsetvli	s1,t2,e32,m1,ta,ma
    8000202e:	8f36                	mv	t5,a3
    80002030:	8472                	mv	s0,t3
    80002032:	020ee007          	vle32.v	v0,(t4)
    80002036:	005e8933          	add	s2,t4,t0
    8000203a:	02096087          	vle32.v	v1,(s2)
    8000203e:	9916                	add	s2,s2,t0
    80002040:	02096107          	vle32.v	v2,(s2)
    80002044:	9916                	add	s2,s2,t0
    80002046:	02096187          	vle32.v	v3,(s2)
    8000204a:	9916                	add	s2,s2,t0
    8000204c:	02096207          	vle32.v	v4,(s2)
    80002050:	9916                	add	s2,s2,t0
    80002052:	02096287          	vle32.v	v5,(s2)
    80002056:	9916                	add	s2,s2,t0
    80002058:	02096307          	vle32.v	v6,(s2)
    8000205c:	9916                	add	s2,s2,t0
    8000205e:	02096387          	vle32.v	v7,(s2)
    80002062:	9916                	add	s2,s2,t0
    80002064:	02096407          	vle32.v	v8,(s2)
    80002068:	9916                	add	s2,s2,t0
    8000206a:	02096487          	vle32.v	v9,(s2)
    8000206e:	9916                	add	s2,s2,t0
    80002070:	02096507          	vle32.v	v10,(s2)
    80002074:	9916                	add	s2,s2,t0
    80002076:	02096587          	vle32.v	v11,(s2)
    8000207a:	9916                	add	s2,s2,t0
    8000207c:	02096607          	vle32.v	v12,(s2)
    80002080:	9916                	add	s2,s2,t0
    80002082:	02096687          	vle32.v	v13,(s2)
    80002086:	9916                	add	s2,s2,t0
    80002088:	02096707          	vle32.v	v14,(s2)
    8000208c:	9916                	add	s2,s2,t0
    8000208e:	02096787          	vle32.v	v15,(s2)
    80002092:	8332                	mv	t1,a2
    80002094:	000f2007          	flw	ft0,0(t5)
    80002098:	00ef09b3          	add	s3,t5,a4
    8000209c:	0009a087          	flw	ft1,0(s3)
    800020a0:	99ba                	add	s3,s3,a4
    800020a2:	0009a107          	flw	ft2,0(s3)
    800020a6:	99ba                	add	s3,s3,a4
    800020a8:	0009a187          	flw	ft3,0(s3)
    800020ac:	99ba                	add	s3,s3,a4
    800020ae:	02046807          	vle32.v	v16,(s0)

00000000800020b2 <k_loop>:
    800020b2:	b3005057          	vfmacc.vf	v0,ft0,v16
    800020b6:	9442                	add	s0,s0,a6
    800020b8:	0009a207          	flw	ft4,0(s3)
    800020bc:	99ba                	add	s3,s3,a4
    800020be:	b300d0d7          	vfmacc.vf	v1,ft1,v16
    800020c2:	137d                	add	t1,t1,-1
    800020c4:	0009a287          	flw	ft5,0(s3)
    800020c8:	99ba                	add	s3,s3,a4
    800020ca:	b3015157          	vfmacc.vf	v2,ft2,v16
    800020ce:	0009a307          	flw	ft6,0(s3)
    800020d2:	99ba                	add	s3,s3,a4
    800020d4:	0009a387          	flw	ft7,0(s3)
    800020d8:	b301d1d7          	vfmacc.vf	v3,ft3,v16
    800020dc:	99ba                	add	s3,s3,a4
    800020de:	0009ae07          	flw	ft8,0(s3)
    800020e2:	99ba                	add	s3,s3,a4
    800020e4:	b3025257          	vfmacc.vf	v4,ft4,v16
    800020e8:	0009ae87          	flw	ft9,0(s3)
    800020ec:	99ba                	add	s3,s3,a4
    800020ee:	b302d2d7          	vfmacc.vf	v5,ft5,v16
    800020f2:	0009af07          	flw	ft10,0(s3)
    800020f6:	99ba                	add	s3,s3,a4
    800020f8:	b3035357          	vfmacc.vf	v6,ft6,v16
    800020fc:	0009af87          	flw	ft11,0(s3)
    80002100:	99ba                	add	s3,s3,a4
    80002102:	b303d3d7          	vfmacc.vf	v7,ft7,v16
    80002106:	0009a507          	flw	fa0,0(s3)
    8000210a:	99ba                	add	s3,s3,a4
    8000210c:	b30e5457          	vfmacc.vf	v8,ft8,v16
    80002110:	0009a587          	flw	fa1,0(s3)
    80002114:	99ba                	add	s3,s3,a4
    80002116:	b30ed4d7          	vfmacc.vf	v9,ft9,v16
    8000211a:	0009a607          	flw	fa2,0(s3)
    8000211e:	99ba                	add	s3,s3,a4
    80002120:	b30f5557          	vfmacc.vf	v10,ft10,v16
    80002124:	0009a687          	flw	fa3,0(s3)
    80002128:	99ba                	add	s3,s3,a4
    8000212a:	0f11                	add	t5,t5,4
    8000212c:	b30fd5d7          	vfmacc.vf	v11,ft11,v16
    80002130:	00030663          	beqz	t1,8000213c <k_loop+0x8a>
    80002134:	000f2007          	flw	ft0,0(t5)
    80002138:	00ef09b3          	add	s3,t5,a4
    8000213c:	b3055657          	vfmacc.vf	v12,fa0,v16
    80002140:	00030563          	beqz	t1,8000214a <k_loop+0x98>
    80002144:	0009a087          	flw	ft1,0(s3)
    80002148:	99ba                	add	s3,s3,a4
    8000214a:	b305d6d7          	vfmacc.vf	v13,fa1,v16
    8000214e:	00030563          	beqz	t1,80002158 <k_loop+0xa6>
    80002152:	0009a107          	flw	ft2,0(s3)
    80002156:	99ba                	add	s3,s3,a4
    80002158:	b3065757          	vfmacc.vf	v14,fa2,v16
    8000215c:	00030a63          	beqz	t1,80002170 <k_loop+0xbe>
    80002160:	0009a187          	flw	ft3,0(s3)
    80002164:	99ba                	add	s3,s3,a4
    80002166:	b306d7d7          	vfmacc.vf	v15,fa3,v16
    8000216a:	02046807          	vle32.v	v16,(s0)
    8000216e:	b791                	j	800020b2 <k_loop>
    80002170:	b306d7d7          	vfmacc.vf	v15,fa3,v16
    80002174:	020ee027          	vse32.v	v0,(t4)
    80002178:	005e8933          	add	s2,t4,t0
    8000217c:	020960a7          	vse32.v	v1,(s2)
    80002180:	9916                	add	s2,s2,t0
    80002182:	02096127          	vse32.v	v2,(s2)
    80002186:	9916                	add	s2,s2,t0
    80002188:	020961a7          	vse32.v	v3,(s2)
    8000218c:	9916                	add	s2,s2,t0
    8000218e:	02096227          	vse32.v	v4,(s2)
    80002192:	9916                	add	s2,s2,t0
    80002194:	020962a7          	vse32.v	v5,(s2)
    80002198:	9916                	add	s2,s2,t0
    8000219a:	02096327          	vse32.v	v6,(s2)
    8000219e:	9916                	add	s2,s2,t0
    800021a0:	020963a7          	vse32.v	v7,(s2)
    800021a4:	9916                	add	s2,s2,t0
    800021a6:	02096427          	vse32.v	v8,(s2)
    800021aa:	9916                	add	s2,s2,t0
    800021ac:	020964a7          	vse32.v	v9,(s2)
    800021b0:	9916                	add	s2,s2,t0
    800021b2:	02096527          	vse32.v	v10,(s2)
    800021b6:	9916                	add	s2,s2,t0
    800021b8:	020965a7          	vse32.v	v11,(s2)
    800021bc:	9916                	add	s2,s2,t0
    800021be:	02096627          	vse32.v	v12,(s2)
    800021c2:	9916                	add	s2,s2,t0
    800021c4:	020966a7          	vse32.v	v13,(s2)
    800021c8:	9916                	add	s2,s2,t0
    800021ca:	02096727          	vse32.v	v14,(s2)
    800021ce:	9916                	add	s2,s2,t0
    800021d0:	020967a7          	vse32.v	v15,(s2)
    800021d4:	00249f93          	sll	t6,s1,0x2
    800021d8:	9efe                	add	t4,t4,t6
    800021da:	9e7e                	add	t3,t3,t6
    800021dc:	409383b3          	sub	t2,t2,s1
    800021e0:	e40395e3          	bnez	t2,8000202a <c_col_loop>
    800021e4:	15c1                	add	a1,a1,-16
    800021e6:	00471f93          	sll	t6,a4,0x4
    800021ea:	96fe                	add	a3,a3,t6
    800021ec:	00429f93          	sll	t6,t0,0x4
    800021f0:	98fe                	add	a7,a7,t6
    800021f2:	0105af93          	slti	t6,a1,16
    800021f6:	e20f87e3          	beqz	t6,80002024 <c_row_loop>

00000000800021fa <end_rows>:
    800021fa:	6402                	ld	s0,0(sp)
    800021fc:	64a2                	ld	s1,8(sp)
    800021fe:	6942                	ld	s2,16(sp)
    80002200:	6105                	add	sp,sp,32
    80002202:	8082                	ret
    80002204:	0000                	unimp

0000000080002206 <vprintfmt>:
    80002206:	7149                	add	sp,sp,-368
    80002208:	f2a2                	sd	s0,352(sp)
    8000220a:	eea6                	sd	s1,344(sp)
    8000220c:	eaca                	sd	s2,336(sp)
    8000220e:	e2d2                	sd	s4,320(sp)
    80002210:	fe56                	sd	s5,312(sp)
    80002212:	fa5a                	sd	s6,304(sp)
    80002214:	f65e                	sd	s7,296(sp)
    80002216:	f686                	sd	ra,360(sp)
    80002218:	e6ce                	sd	s3,328(sp)
    8000221a:	f262                	sd	s8,288(sp)
    8000221c:	ee66                	sd	s9,280(sp)
    8000221e:	e66e                	sd	s11,264(sp)
    80002220:	892a                	mv	s2,a0
    80002222:	84ae                	mv	s1,a1
    80002224:	8432                	mv	s0,a2
    80002226:	8bb6                	mv	s7,a3
    80002228:	02500a13          	li	s4,37
    8000222c:	05500b13          	li	s6,85
    80002230:	00001a97          	auipc	s5,0x1
    80002234:	8a4a8a93          	add	s5,s5,-1884 # 80002ad4 <main+0x146>
    80002238:	a029                	j	80002242 <vprintfmt+0x3c>
    8000223a:	cd1d                	beqz	a0,80002278 <vprintfmt+0x72>
    8000223c:	85a6                	mv	a1,s1
    8000223e:	0405                	add	s0,s0,1
    80002240:	9902                	jalr	s2
    80002242:	00044503          	lbu	a0,0(s0)
    80002246:	ff451ae3          	bne	a0,s4,8000223a <vprintfmt+0x34>
    8000224a:	00144683          	lbu	a3,1(s0)
    8000224e:	00140993          	add	s3,s0,1
    80002252:	874e                	mv	a4,s3
    80002254:	02000c93          	li	s9,32
    80002258:	5c7d                	li	s8,-1
    8000225a:	5dfd                	li	s11,-1
    8000225c:	4581                	li	a1,0
    8000225e:	fdd6879b          	addw	a5,a3,-35
    80002262:	0ff7f793          	zext.b	a5,a5
    80002266:	00170413          	add	s0,a4,1
    8000226a:	04fb6163          	bltu	s6,a5,800022ac <vprintfmt+0xa6>
    8000226e:	078a                	sll	a5,a5,0x2
    80002270:	97d6                	add	a5,a5,s5
    80002272:	439c                	lw	a5,0(a5)
    80002274:	97d6                	add	a5,a5,s5
    80002276:	8782                	jr	a5
    80002278:	70b6                	ld	ra,360(sp)
    8000227a:	7416                	ld	s0,352(sp)
    8000227c:	64f6                	ld	s1,344(sp)
    8000227e:	6956                	ld	s2,336(sp)
    80002280:	69b6                	ld	s3,328(sp)
    80002282:	6a16                	ld	s4,320(sp)
    80002284:	7af2                	ld	s5,312(sp)
    80002286:	7b52                	ld	s6,304(sp)
    80002288:	7bb2                	ld	s7,296(sp)
    8000228a:	7c12                	ld	s8,288(sp)
    8000228c:	6cf2                	ld	s9,280(sp)
    8000228e:	6db2                	ld	s11,264(sp)
    80002290:	6175                	add	sp,sp,368
    80002292:	8082                	ret
    80002294:	8cb6                	mv	s9,a3
    80002296:	00174683          	lbu	a3,1(a4)
    8000229a:	8722                	mv	a4,s0
    8000229c:	00170413          	add	s0,a4,1
    800022a0:	fdd6879b          	addw	a5,a3,-35
    800022a4:	0ff7f793          	zext.b	a5,a5
    800022a8:	fcfb73e3          	bgeu	s6,a5,8000226e <vprintfmt+0x68>
    800022ac:	85a6                	mv	a1,s1
    800022ae:	02500513          	li	a0,37
    800022b2:	9902                	jalr	s2
    800022b4:	844e                	mv	s0,s3
    800022b6:	b771                	j	80002242 <vprintfmt+0x3c>
    800022b8:	fd068c1b          	addw	s8,a3,-48
    800022bc:	00174683          	lbu	a3,1(a4)
    800022c0:	47a5                	li	a5,9
    800022c2:	fd06871b          	addw	a4,a3,-48
    800022c6:	0006861b          	sext.w	a2,a3
    800022ca:	20e7ef63          	bltu	a5,a4,800024e8 <vprintfmt+0x2e2>
    800022ce:	8722                	mv	a4,s0
    800022d0:	4825                	li	a6,9
    800022d2:	00174683          	lbu	a3,1(a4)
    800022d6:	002c179b          	sllw	a5,s8,0x2
    800022da:	018787bb          	addw	a5,a5,s8
    800022de:	0017979b          	sllw	a5,a5,0x1
    800022e2:	9fb1                	addw	a5,a5,a2
    800022e4:	fd06851b          	addw	a0,a3,-48
    800022e8:	0705                	add	a4,a4,1
    800022ea:	fd078c1b          	addw	s8,a5,-48
    800022ee:	0006861b          	sext.w	a2,a3
    800022f2:	fea870e3          	bgeu	a6,a0,800022d2 <vprintfmt+0xcc>
    800022f6:	f60dd4e3          	bgez	s11,8000225e <vprintfmt+0x58>
    800022fa:	8de2                	mv	s11,s8
    800022fc:	5c7d                	li	s8,-1
    800022fe:	b785                	j	8000225e <vprintfmt+0x58>
    80002300:	00174683          	lbu	a3,1(a4)
    80002304:	8722                	mv	a4,s0
    80002306:	bfa1                	j	8000225e <vprintfmt+0x58>
    80002308:	85a6                	mv	a1,s1
    8000230a:	02500513          	li	a0,37
    8000230e:	9902                	jalr	s2
    80002310:	bf0d                	j	80002242 <vprintfmt+0x3c>
    80002312:	000bac03          	lw	s8,0(s7)
    80002316:	00174683          	lbu	a3,1(a4)
    8000231a:	0ba1                	add	s7,s7,8
    8000231c:	8722                	mv	a4,s0
    8000231e:	bfe1                	j	800022f6 <vprintfmt+0xf0>
    80002320:	85a6                	mv	a1,s1
    80002322:	03000513          	li	a0,48
    80002326:	ea6a                	sd	s10,272(sp)
    80002328:	9902                	jalr	s2
    8000232a:	85a6                	mv	a1,s1
    8000232c:	07800513          	li	a0,120
    80002330:	9902                	jalr	s2
    80002332:	4641                	li	a2,16
    80002334:	008b8713          	add	a4,s7,8
    80002338:	000bb783          	ld	a5,0(s7)
    8000233c:	8bba                	mv	s7,a4
    8000233e:	02c7f5b3          	remu	a1,a5,a2
    80002342:	000c899b          	sext.w	s3,s9
    80002346:	0054                	add	a3,sp,4
    80002348:	4705                	li	a4,1
    8000234a:	c02e                	sw	a1,0(sp)
    8000234c:	16c7ea63          	bltu	a5,a2,800024c0 <vprintfmt+0x2ba>
    80002350:	02c7d7b3          	divu	a5,a5,a2
    80002354:	0691                	add	a3,a3,4
    80002356:	8c3a                	mv	s8,a4
    80002358:	2705                	addw	a4,a4,1
    8000235a:	02c7f5b3          	remu	a1,a5,a2
    8000235e:	feb6ae23          	sw	a1,-4(a3)
    80002362:	fec7f7e3          	bgeu	a5,a2,80002350 <vprintfmt+0x14a>
    80002366:	fffd8c9b          	addw	s9,s11,-1
    8000236a:	fff70d1b          	addw	s10,a4,-1
    8000236e:	01b75863          	bge	a4,s11,8000237e <vprintfmt+0x178>
    80002372:	85a6                	mv	a1,s1
    80002374:	854e                	mv	a0,s3
    80002376:	3cfd                	addw	s9,s9,-1
    80002378:	9902                	jalr	s2
    8000237a:	ffac9ce3          	bne	s9,s10,80002372 <vprintfmt+0x16c>
    8000237e:	0c0a                	sll	s8,s8,0x2
    80002380:	018109b3          	add	s3,sp,s8
    80002384:	ffc10c93          	add	s9,sp,-4
    80002388:	4c25                	li	s8,9
    8000238a:	0009a783          	lw	a5,0(s3)
    8000238e:	03000513          	li	a0,48
    80002392:	00fc7463          	bgeu	s8,a5,8000239a <vprintfmt+0x194>
    80002396:	05700513          	li	a0,87
    8000239a:	85a6                	mv	a1,s1
    8000239c:	9d3d                	addw	a0,a0,a5
    8000239e:	19f1                	add	s3,s3,-4
    800023a0:	9902                	jalr	s2
    800023a2:	ff9994e3          	bne	s3,s9,8000238a <vprintfmt+0x184>
    800023a6:	6d52                	ld	s10,272(sp)
    800023a8:	bd69                	j	80002242 <vprintfmt+0x3c>
    800023aa:	ea6a                	sd	s10,272(sp)
    800023ac:	4785                	li	a5,1
    800023ae:	008b8c13          	add	s8,s7,8
    800023b2:	00b7c463          	blt	a5,a1,800023ba <vprintfmt+0x1b4>
    800023b6:	10058763          	beqz	a1,800024c4 <vprintfmt+0x2be>
    800023ba:	000bb983          	ld	s3,0(s7)
    800023be:	1009cc63          	bltz	s3,800024d6 <vprintfmt+0x2d0>
    800023c2:	87ce                	mv	a5,s3
    800023c4:	8be2                	mv	s7,s8
    800023c6:	4629                	li	a2,10
    800023c8:	bf9d                	j	8000233e <vprintfmt+0x138>
    800023ca:	00174683          	lbu	a3,1(a4)
    800023ce:	2585                	addw	a1,a1,1
    800023d0:	8722                	mv	a4,s0
    800023d2:	b571                	j	8000225e <vprintfmt+0x58>
    800023d4:	ea6a                	sd	s10,272(sp)
    800023d6:	4641                	li	a2,16
    800023d8:	4785                	li	a5,1
    800023da:	008b8713          	add	a4,s7,8
    800023de:	f4b7cde3          	blt	a5,a1,80002338 <vprintfmt+0x132>
    800023e2:	f9b9                	bnez	a1,80002338 <vprintfmt+0x132>
    800023e4:	000be783          	lwu	a5,0(s7)
    800023e8:	8bba                	mv	s7,a4
    800023ea:	bf91                	j	8000233e <vprintfmt+0x138>
    800023ec:	ea6a                	sd	s10,272(sp)
    800023ee:	000bbd03          	ld	s10,0(s7)
    800023f2:	0ba1                	add	s7,s7,8
    800023f4:	040d0363          	beqz	s10,8000243a <vprintfmt+0x234>
    800023f8:	09b05e63          	blez	s11,80002494 <vprintfmt+0x28e>
    800023fc:	02d00793          	li	a5,45
    80002400:	04fc9f63          	bne	s9,a5,8000245e <vprintfmt+0x258>
    80002404:	000d4503          	lbu	a0,0(s10)
    80002408:	c105                	beqz	a0,80002428 <vprintfmt+0x222>
    8000240a:	59fd                	li	s3,-1
    8000240c:	000c4563          	bltz	s8,80002416 <vprintfmt+0x210>
    80002410:	3c7d                	addw	s8,s8,-1
    80002412:	013c0963          	beq	s8,s3,80002424 <vprintfmt+0x21e>
    80002416:	85a6                	mv	a1,s1
    80002418:	9902                	jalr	s2
    8000241a:	001d4503          	lbu	a0,1(s10)
    8000241e:	3dfd                	addw	s11,s11,-1
    80002420:	0d05                	add	s10,s10,1
    80002422:	f56d                	bnez	a0,8000240c <vprintfmt+0x206>
    80002424:	f9b051e3          	blez	s11,800023a6 <vprintfmt+0x1a0>
    80002428:	85a6                	mv	a1,s1
    8000242a:	02000513          	li	a0,32
    8000242e:	3dfd                	addw	s11,s11,-1
    80002430:	9902                	jalr	s2
    80002432:	fe0d9be3          	bnez	s11,80002428 <vprintfmt+0x222>
    80002436:	6d52                	ld	s10,272(sp)
    80002438:	b529                	j	80002242 <vprintfmt+0x3c>
    8000243a:	00000d17          	auipc	s10,0x0
    8000243e:	64ed0d13          	add	s10,s10,1614 # 80002a88 <main+0xfa>
    80002442:	02800513          	li	a0,40
    80002446:	fdb052e3          	blez	s11,8000240a <vprintfmt+0x204>
    8000244a:	02d00793          	li	a5,45
    8000244e:	00000d17          	auipc	s10,0x0
    80002452:	63ad0d13          	add	s10,s10,1594 # 80002a88 <main+0xfa>
    80002456:	02800513          	li	a0,40
    8000245a:	fafc88e3          	beq	s9,a5,8000240a <vprintfmt+0x204>
    8000245e:	000d861b          	sext.w	a2,s11
    80002462:	87ea                	mv	a5,s10
    80002464:	018d06b3          	add	a3,s10,s8
    80002468:	000c1663          	bnez	s8,80002474 <vprintfmt+0x26e>
    8000246c:	a829                	j	80002486 <vprintfmt+0x280>
    8000246e:	0785                	add	a5,a5,1
    80002470:	00d78563          	beq	a5,a3,8000247a <vprintfmt+0x274>
    80002474:	0007c703          	lbu	a4,0(a5)
    80002478:	fb7d                	bnez	a4,8000246e <vprintfmt+0x268>
    8000247a:	41a787b3          	sub	a5,a5,s10
    8000247e:	40f60dbb          	subw	s11,a2,a5
    80002482:	01b05963          	blez	s11,80002494 <vprintfmt+0x28e>
    80002486:	2c81                	sext.w	s9,s9
    80002488:	85a6                	mv	a1,s1
    8000248a:	8566                	mv	a0,s9
    8000248c:	3dfd                	addw	s11,s11,-1
    8000248e:	9902                	jalr	s2
    80002490:	fe0d9ce3          	bnez	s11,80002488 <vprintfmt+0x282>
    80002494:	000d4503          	lbu	a0,0(s10)
    80002498:	d519                	beqz	a0,800023a6 <vprintfmt+0x1a0>
    8000249a:	59fd                	li	s3,-1
    8000249c:	bf85                	j	8000240c <vprintfmt+0x206>
    8000249e:	fffdc793          	not	a5,s11
    800024a2:	97fd                	sra	a5,a5,0x3f
    800024a4:	00fdf7b3          	and	a5,s11,a5
    800024a8:	00174683          	lbu	a3,1(a4)
    800024ac:	00078d9b          	sext.w	s11,a5
    800024b0:	8722                	mv	a4,s0
    800024b2:	b375                	j	8000225e <vprintfmt+0x58>
    800024b4:	000ba503          	lw	a0,0(s7)
    800024b8:	85a6                	mv	a1,s1
    800024ba:	0ba1                	add	s7,s7,8
    800024bc:	9902                	jalr	s2
    800024be:	b351                	j	80002242 <vprintfmt+0x3c>
    800024c0:	4c01                	li	s8,0
    800024c2:	b555                	j	80002366 <vprintfmt+0x160>
    800024c4:	000ba983          	lw	s3,0(s7)
    800024c8:	bddd                	j	800023be <vprintfmt+0x1b8>
    800024ca:	ea6a                	sd	s10,272(sp)
    800024cc:	4629                	li	a2,10
    800024ce:	b729                	j	800023d8 <vprintfmt+0x1d2>
    800024d0:	ea6a                	sd	s10,272(sp)
    800024d2:	4621                	li	a2,8
    800024d4:	b711                	j	800023d8 <vprintfmt+0x1d2>
    800024d6:	85a6                	mv	a1,s1
    800024d8:	02d00513          	li	a0,45
    800024dc:	9902                	jalr	s2
    800024de:	413007b3          	neg	a5,s3
    800024e2:	8be2                	mv	s7,s8
    800024e4:	4629                	li	a2,10
    800024e6:	bda1                	j	8000233e <vprintfmt+0x138>
    800024e8:	8722                	mv	a4,s0
    800024ea:	b531                	j	800022f6 <vprintfmt+0xf0>

00000000800024ec <sprintf_putch.0>:
    800024ec:	619c                	ld	a5,0(a1)
    800024ee:	00a78023          	sb	a0,0(a5)
    800024f2:	619c                	ld	a5,0(a1)
    800024f4:	0785                	add	a5,a5,1
    800024f6:	e19c                	sd	a5,0(a1)
    800024f8:	8082                	ret

00000000800024fa <putchar>:
    800024fa:	04022803          	lw	a6,64(tp) # 40 <buflen.1>
    800024fe:	00020793          	mv	a5,tp
    80002502:	97c2                	add	a5,a5,a6
    80002504:	7159                	add	sp,sp,-112
    80002506:	0018069b          	addw	a3,a6,1
    8000250a:	04d22023          	sw	a3,64(tp) # 40 <buflen.1>
    8000250e:	00a78023          	sb	a0,0(a5)
    80002512:	03f10713          	add	a4,sp,63
    80002516:	47a9                	li	a5,10
    80002518:	fc077713          	and	a4,a4,-64
    8000251c:	00f50963          	beq	a0,a5,8000252e <putchar+0x34>
    80002520:	04000793          	li	a5,64
    80002524:	00f68563          	beq	a3,a5,8000252e <putchar+0x34>
    80002528:	4501                	li	a0,0
    8000252a:	6165                	add	sp,sp,112
    8000252c:	8082                	ret
    8000252e:	04000793          	li	a5,64
    80002532:	e31c                	sd	a5,0(a4)
    80002534:	4785                	li	a5,1
    80002536:	e71c                	sd	a5,8(a4)
    80002538:	00020613          	mv	a2,tp
    8000253c:	eb10                	sd	a2,16(a4)
    8000253e:	ef14                	sd	a3,24(a4)
    80002540:	0ff0000f          	fence
    80002544:	fffff697          	auipc	a3,0xfffff
    80002548:	afc68693          	add	a3,a3,-1284 # 80001040 <fromhost>
    8000254c:	fffff797          	auipc	a5,0xfffff
    80002550:	aae7ba23          	sd	a4,-1356(a5) # 80001000 <tohost>
    80002554:	629c                	ld	a5,0(a3)
    80002556:	dffd                	beqz	a5,80002554 <putchar+0x5a>
    80002558:	fffff797          	auipc	a5,0xfffff
    8000255c:	ae07b423          	sd	zero,-1304(a5) # 80001040 <fromhost>
    80002560:	0ff0000f          	fence
    80002564:	04022023          	sw	zero,64(tp) # 40 <buflen.1>
    80002568:	631c                	ld	a5,0(a4)
    8000256a:	4501                	li	a0,0
    8000256c:	6165                	add	sp,sp,112
    8000256e:	8082                	ret

0000000080002570 <setStats>:
    80002570:	b0002773          	csrr	a4,mcycle
    80002574:	00003797          	auipc	a5,0x3
    80002578:	6bc78793          	add	a5,a5,1724 # 80005c30 <counters>
    8000257c:	c511                	beqz	a0,80002588 <setStats+0x18>
    8000257e:	e398                	sd	a4,0(a5)
    80002580:	b0202773          	csrr	a4,minstret
    80002584:	e798                	sd	a4,8(a5)
    80002586:	8082                	ret
    80002588:	6394                	ld	a3,0(a5)
    8000258a:	00000617          	auipc	a2,0x0
    8000258e:	50e60613          	add	a2,a2,1294 # 80002a98 <main+0x10a>
    80002592:	eb90                	sd	a2,16(a5)
    80002594:	8f15                	sub	a4,a4,a3
    80002596:	e398                	sd	a4,0(a5)
    80002598:	b0202773          	csrr	a4,minstret
    8000259c:	6794                	ld	a3,8(a5)
    8000259e:	00000617          	auipc	a2,0x0
    800025a2:	50260613          	add	a2,a2,1282 # 80002aa0 <main+0x112>
    800025a6:	ef90                	sd	a2,24(a5)
    800025a8:	8f15                	sub	a4,a4,a3
    800025aa:	e798                	sd	a4,8(a5)
    800025ac:	8082                	ret

00000000800025ae <tohost_exit>:
    800025ae:	00151793          	sll	a5,a0,0x1
    800025b2:	0017e793          	or	a5,a5,1
    800025b6:	fffff717          	auipc	a4,0xfffff
    800025ba:	a4f73523          	sd	a5,-1462(a4) # 80001000 <tohost>
    800025be:	a001                	j	800025be <tohost_exit+0x10>

00000000800025c0 <handle_trap>:
    800025c0:	6785                	lui	a5,0x1
    800025c2:	a7378793          	add	a5,a5,-1421 # a73 <buflen.1+0xa33>
    800025c6:	fffff717          	auipc	a4,0xfffff
    800025ca:	a2f73d23          	sd	a5,-1478(a4) # 80001000 <tohost>
    800025ce:	a001                	j	800025ce <handle_trap+0xe>

00000000800025d0 <exit>:
    800025d0:	1141                	add	sp,sp,-16
    800025d2:	e406                	sd	ra,8(sp)
    800025d4:	fdbff0ef          	jal	800025ae <tohost_exit>

00000000800025d8 <abort>:
    800025d8:	10d00793          	li	a5,269
    800025dc:	fffff717          	auipc	a4,0xfffff
    800025e0:	a2f73223          	sd	a5,-1500(a4) # 80001000 <tohost>
    800025e4:	a001                	j	800025e4 <abort+0xc>

00000000800025e6 <printstr>:
    800025e6:	00054783          	lbu	a5,0(a0)
    800025ea:	7159                	add	sp,sp,-112
    800025ec:	03f10693          	add	a3,sp,63
    800025f0:	fc06f693          	and	a3,a3,-64
    800025f4:	c3b9                	beqz	a5,8000263a <printstr+0x54>
    800025f6:	87aa                	mv	a5,a0
    800025f8:	0017c703          	lbu	a4,1(a5)
    800025fc:	0785                	add	a5,a5,1
    800025fe:	ff6d                	bnez	a4,800025f8 <printstr+0x12>
    80002600:	8f89                	sub	a5,a5,a0
    80002602:	04000713          	li	a4,64
    80002606:	e298                	sd	a4,0(a3)
    80002608:	4705                	li	a4,1
    8000260a:	e698                	sd	a4,8(a3)
    8000260c:	ea88                	sd	a0,16(a3)
    8000260e:	ee9c                	sd	a5,24(a3)
    80002610:	0ff0000f          	fence
    80002614:	fffff717          	auipc	a4,0xfffff
    80002618:	a2c70713          	add	a4,a4,-1492 # 80001040 <fromhost>
    8000261c:	fffff797          	auipc	a5,0xfffff
    80002620:	9ed7b223          	sd	a3,-1564(a5) # 80001000 <tohost>
    80002624:	631c                	ld	a5,0(a4)
    80002626:	dffd                	beqz	a5,80002624 <printstr+0x3e>
    80002628:	fffff797          	auipc	a5,0xfffff
    8000262c:	a007bc23          	sd	zero,-1512(a5) # 80001040 <fromhost>
    80002630:	0ff0000f          	fence
    80002634:	629c                	ld	a5,0(a3)
    80002636:	6165                	add	sp,sp,112
    80002638:	8082                	ret
    8000263a:	4781                	li	a5,0
    8000263c:	b7d9                	j	80002602 <printstr+0x1c>

000000008000263e <thread_entry>:
    8000263e:	c111                	beqz	a0,80002642 <thread_entry+0x4>
    80002640:	a001                	j	80002640 <thread_entry+0x2>
    80002642:	8082                	ret

0000000080002644 <printhex>:
    80002644:	7179                	add	sp,sp,-48
    80002646:	87aa                	mv	a5,a0
    80002648:	f406                	sd	ra,40(sp)
    8000264a:	0028                	add	a0,sp,8
    8000264c:	01710713          	add	a4,sp,23
    80002650:	4825                	li	a6,9
    80002652:	a011                	j	80002656 <printhex+0x12>
    80002654:	8736                	mv	a4,a3
    80002656:	00f7f613          	and	a2,a5,15
    8000265a:	86b2                	mv	a3,a2
    8000265c:	03000593          	li	a1,48
    80002660:	00c87463          	bgeu	a6,a2,80002668 <printhex+0x24>
    80002664:	05700593          	li	a1,87
    80002668:	9ead                	addw	a3,a3,a1
    8000266a:	00d70023          	sb	a3,0(a4)
    8000266e:	8391                	srl	a5,a5,0x4
    80002670:	fff70693          	add	a3,a4,-1
    80002674:	fee510e3          	bne	a0,a4,80002654 <printhex+0x10>
    80002678:	00010c23          	sb	zero,24(sp)
    8000267c:	f6bff0ef          	jal	800025e6 <printstr>
    80002680:	70a2                	ld	ra,40(sp)
    80002682:	6145                	add	sp,sp,48
    80002684:	8082                	ret

0000000080002686 <printf>:
    80002686:	711d                	add	sp,sp,-96
    80002688:	02810313          	add	t1,sp,40
    8000268c:	f42e                	sd	a1,40(sp)
    8000268e:	f832                	sd	a2,48(sp)
    80002690:	fc36                	sd	a3,56(sp)
    80002692:	862a                	mv	a2,a0
    80002694:	869a                	mv	a3,t1
    80002696:	00000517          	auipc	a0,0x0
    8000269a:	e6450513          	add	a0,a0,-412 # 800024fa <putchar>
    8000269e:	4581                	li	a1,0
    800026a0:	ec06                	sd	ra,24(sp)
    800026a2:	e0ba                	sd	a4,64(sp)
    800026a4:	e4be                	sd	a5,72(sp)
    800026a6:	e8c2                	sd	a6,80(sp)
    800026a8:	ecc6                	sd	a7,88(sp)
    800026aa:	e41a                	sd	t1,8(sp)
    800026ac:	b5bff0ef          	jal	80002206 <vprintfmt>
    800026b0:	60e2                	ld	ra,24(sp)
    800026b2:	4501                	li	a0,0
    800026b4:	6125                	add	sp,sp,96
    800026b6:	8082                	ret

00000000800026b8 <sprintf>:
    800026b8:	711d                	add	sp,sp,-96
    800026ba:	03010e13          	add	t3,sp,48
    800026be:	f022                	sd	s0,32(sp)
    800026c0:	e42a                	sd	a0,8(sp)
    800026c2:	842a                	mv	s0,a0
    800026c4:	f832                	sd	a2,48(sp)
    800026c6:	fc36                	sd	a3,56(sp)
    800026c8:	862e                	mv	a2,a1
    800026ca:	00000517          	auipc	a0,0x0
    800026ce:	e2250513          	add	a0,a0,-478 # 800024ec <sprintf_putch.0>
    800026d2:	002c                	add	a1,sp,8
    800026d4:	86f2                	mv	a3,t3
    800026d6:	f406                	sd	ra,40(sp)
    800026d8:	e4be                	sd	a5,72(sp)
    800026da:	e0ba                	sd	a4,64(sp)
    800026dc:	e8c2                	sd	a6,80(sp)
    800026de:	ecc6                	sd	a7,88(sp)
    800026e0:	ec72                	sd	t3,24(sp)
    800026e2:	b25ff0ef          	jal	80002206 <vprintfmt>
    800026e6:	67a2                	ld	a5,8(sp)
    800026e8:	00078023          	sb	zero,0(a5)
    800026ec:	6522                	ld	a0,8(sp)
    800026ee:	70a2                	ld	ra,40(sp)
    800026f0:	9d01                	subw	a0,a0,s0
    800026f2:	7402                	ld	s0,32(sp)
    800026f4:	6125                	add	sp,sp,96
    800026f6:	8082                	ret

00000000800026f8 <memcpy>:
    800026f8:	00c5e7b3          	or	a5,a1,a2
    800026fc:	8fc9                	or	a5,a5,a0
    800026fe:	8b9d                	and	a5,a5,7
    80002700:	00c50833          	add	a6,a0,a2
    80002704:	cf91                	beqz	a5,80002720 <memcpy+0x28>
    80002706:	962e                	add	a2,a2,a1
    80002708:	87aa                	mv	a5,a0
    8000270a:	09057c63          	bgeu	a0,a6,800027a2 <memcpy+0xaa>
    8000270e:	0005c703          	lbu	a4,0(a1)
    80002712:	0585                	add	a1,a1,1
    80002714:	0785                	add	a5,a5,1
    80002716:	fee78fa3          	sb	a4,-1(a5)
    8000271a:	fec59ae3          	bne	a1,a2,8000270e <memcpy+0x16>
    8000271e:	8082                	ret
    80002720:	04050693          	add	a3,a0,64
    80002724:	0906f063          	bgeu	a3,a6,800027a4 <memcpy+0xac>
    80002728:	87b6                	mv	a5,a3
    8000272a:	872e                	mv	a4,a1
    8000272c:	00073383          	ld	t2,0(a4)
    80002730:	00873283          	ld	t0,8(a4)
    80002734:	01073f83          	ld	t6,16(a4)
    80002738:	01873f03          	ld	t5,24(a4)
    8000273c:	02073e83          	ld	t4,32(a4)
    80002740:	02873e03          	ld	t3,40(a4)
    80002744:	03073303          	ld	t1,48(a4)
    80002748:	03873883          	ld	a7,56(a4)
    8000274c:	04078793          	add	a5,a5,64
    80002750:	f877b023          	sd	t2,-128(a5)
    80002754:	f857b423          	sd	t0,-120(a5)
    80002758:	f9f7b823          	sd	t6,-112(a5)
    8000275c:	f9e7bc23          	sd	t5,-104(a5)
    80002760:	fbd7b023          	sd	t4,-96(a5)
    80002764:	fbc7b423          	sd	t3,-88(a5)
    80002768:	fa67b823          	sd	t1,-80(a5)
    8000276c:	fb17bc23          	sd	a7,-72(a5)
    80002770:	04070713          	add	a4,a4,64
    80002774:	fb07ece3          	bltu	a5,a6,8000272c <memcpy+0x34>
    80002778:	fbf60613          	add	a2,a2,-65
    8000277c:	fc067793          	and	a5,a2,-64
    80002780:	04078793          	add	a5,a5,64
    80002784:	fc067613          	and	a2,a2,-64
    80002788:	95be                	add	a1,a1,a5
    8000278a:	00c687b3          	add	a5,a3,a2
    8000278e:	f907f8e3          	bgeu	a5,a6,8000271e <memcpy+0x26>
    80002792:	6198                	ld	a4,0(a1)
    80002794:	07a1                	add	a5,a5,8
    80002796:	05a1                	add	a1,a1,8
    80002798:	fee7bc23          	sd	a4,-8(a5)
    8000279c:	ff07ebe3          	bltu	a5,a6,80002792 <memcpy+0x9a>
    800027a0:	8082                	ret
    800027a2:	8082                	ret
    800027a4:	87aa                	mv	a5,a0
    800027a6:	b7e5                	j	8000278e <memcpy+0x96>

00000000800027a8 <memset>:
    800027a8:	00c567b3          	or	a5,a0,a2
    800027ac:	8b9d                	and	a5,a5,7
    800027ae:	962a                	add	a2,a2,a0
    800027b0:	cf81                	beqz	a5,800027c8 <memset+0x20>
    800027b2:	0ff5f713          	zext.b	a4,a1
    800027b6:	87aa                	mv	a5,a0
    800027b8:	02c57f63          	bgeu	a0,a2,800027f6 <memset+0x4e>
    800027bc:	0785                	add	a5,a5,1
    800027be:	fee78fa3          	sb	a4,-1(a5)
    800027c2:	fec79de3          	bne	a5,a2,800027bc <memset+0x14>
    800027c6:	8082                	ret
    800027c8:	010107b7          	lui	a5,0x1010
    800027cc:	10178793          	add	a5,a5,257 # 1010101 <buflen.1+0x10100c1>
    800027d0:	07c2                	sll	a5,a5,0x10
    800027d2:	10178793          	add	a5,a5,257
    800027d6:	07c2                	sll	a5,a5,0x10
    800027d8:	0ff5f713          	zext.b	a4,a1
    800027dc:	10178793          	add	a5,a5,257
    800027e0:	02f70733          	mul	a4,a4,a5
    800027e4:	fec571e3          	bgeu	a0,a2,800027c6 <memset+0x1e>
    800027e8:	87aa                	mv	a5,a0
    800027ea:	07a1                	add	a5,a5,8
    800027ec:	fee7bc23          	sd	a4,-8(a5)
    800027f0:	fec7ede3          	bltu	a5,a2,800027ea <memset+0x42>
    800027f4:	8082                	ret
    800027f6:	8082                	ret

00000000800027f8 <_init>:
    800027f8:	7171                	add	sp,sp,-176
    800027fa:	00003797          	auipc	a5,0x3
    800027fe:	45678793          	add	a5,a5,1110 # 80005c50 <_tdata_begin>
    80002802:	e152                	sd	s4,128(sp)
    80002804:	00003a17          	auipc	s4,0x3
    80002808:	44ca0a13          	add	s4,s4,1100 # 80005c50 <_tdata_begin>
    8000280c:	e54e                	sd	s3,136(sp)
    8000280e:	40fa09b3          	sub	s3,s4,a5
    80002812:	ed26                	sd	s1,152(sp)
    80002814:	e94a                	sd	s2,144(sp)
    80002816:	84aa                	mv	s1,a0
    80002818:	892e                	mv	s2,a1
    8000281a:	8512                	mv	a0,tp
    8000281c:	85be                	mv	a1,a5
    8000281e:	864e                	mv	a2,s3
    80002820:	f506                	sd	ra,168(sp)
    80002822:	f122                	sd	s0,160(sp)
    80002824:	fcd6                	sd	s5,120(sp)
    80002826:	8a92                	mv	s5,tp
    80002828:	ed1ff0ef          	jal	800026f8 <memcpy>
    8000282c:	89418613          	add	a2,gp,-1900 # 80005cc4 <_tbss_end>
    80002830:	41460633          	sub	a2,a2,s4
    80002834:	4581                	li	a1,0
    80002836:	013a8533          	add	a0,s5,s3
    8000283a:	f6fff0ef          	jal	800027a8 <memset>
    8000283e:	85ca                	mv	a1,s2
    80002840:	8526                	mv	a0,s1
    80002842:	dfdff0ef          	jal	8000263e <thread_entry>
    80002846:	4581                	li	a1,0
    80002848:	4501                	li	a0,0
    8000284a:	144000ef          	jal	8000298e <main>
    8000284e:	00003917          	auipc	s2,0x3
    80002852:	3e290913          	add	s2,s2,994 # 80005c30 <counters>
    80002856:	00093683          	ld	a3,0(s2)
    8000285a:	03f10413          	add	s0,sp,63
    8000285e:	fc047413          	and	s0,s0,-64
    80002862:	84aa                	mv	s1,a0
    80002864:	ea85                	bnez	a3,80002894 <_init+0x9c>
    80002866:	00893683          	ld	a3,8(s2)
    8000286a:	e681                	bnez	a3,80002872 <_init+0x7a>
    8000286c:	8526                	mv	a0,s1
    8000286e:	d41ff0ef          	jal	800025ae <tohost_exit>
    80002872:	89a2                	mv	s3,s0
    80002874:	01893603          	ld	a2,24(s2)
    80002878:	854e                	mv	a0,s3
    8000287a:	00000597          	auipc	a1,0x0
    8000287e:	24e58593          	add	a1,a1,590 # 80002ac8 <main+0x13a>
    80002882:	e37ff0ef          	jal	800026b8 <sprintf>
    80002886:	99aa                	add	s3,s3,a0
    80002888:	ff3402e3          	beq	s0,s3,8000286c <_init+0x74>
    8000288c:	8522                	mv	a0,s0
    8000288e:	d59ff0ef          	jal	800025e6 <printstr>
    80002892:	bfe9                	j	8000286c <_init+0x74>
    80002894:	01093603          	ld	a2,16(s2)
    80002898:	00000597          	auipc	a1,0x0
    8000289c:	23058593          	add	a1,a1,560 # 80002ac8 <main+0x13a>
    800028a0:	8522                	mv	a0,s0
    800028a2:	e17ff0ef          	jal	800026b8 <sprintf>
    800028a6:	00893683          	ld	a3,8(s2)
    800028aa:	00a409b3          	add	s3,s0,a0
    800028ae:	dee9                	beqz	a3,80002888 <_init+0x90>
    800028b0:	b7d1                	j	80002874 <_init+0x7c>

00000000800028b2 <strlen>:
    800028b2:	00054783          	lbu	a5,0(a0)
    800028b6:	cb89                	beqz	a5,800028c8 <strlen+0x16>
    800028b8:	87aa                	mv	a5,a0
    800028ba:	0017c703          	lbu	a4,1(a5)
    800028be:	0785                	add	a5,a5,1
    800028c0:	ff6d                	bnez	a4,800028ba <strlen+0x8>
    800028c2:	40a78533          	sub	a0,a5,a0
    800028c6:	8082                	ret
    800028c8:	4501                	li	a0,0
    800028ca:	8082                	ret

00000000800028cc <strnlen>:
    800028cc:	00b506b3          	add	a3,a0,a1
    800028d0:	87aa                	mv	a5,a0
    800028d2:	e589                	bnez	a1,800028dc <strnlen+0x10>
    800028d4:	a829                	j	800028ee <strnlen+0x22>
    800028d6:	0785                	add	a5,a5,1
    800028d8:	00f68863          	beq	a3,a5,800028e8 <strnlen+0x1c>
    800028dc:	0007c703          	lbu	a4,0(a5)
    800028e0:	fb7d                	bnez	a4,800028d6 <strnlen+0xa>
    800028e2:	40a78533          	sub	a0,a5,a0
    800028e6:	8082                	ret
    800028e8:	40a68533          	sub	a0,a3,a0
    800028ec:	8082                	ret
    800028ee:	4501                	li	a0,0
    800028f0:	8082                	ret

00000000800028f2 <strcmp>:
    800028f2:	00054783          	lbu	a5,0(a0)
    800028f6:	0585                	add	a1,a1,1
    800028f8:	0505                	add	a0,a0,1
    800028fa:	fff5c703          	lbu	a4,-1(a1)
    800028fe:	c799                	beqz	a5,8000290c <strcmp+0x1a>
    80002900:	fee789e3          	beq	a5,a4,800028f2 <strcmp>
    80002904:	0007851b          	sext.w	a0,a5
    80002908:	9d19                	subw	a0,a0,a4
    8000290a:	8082                	ret
    8000290c:	4501                	li	a0,0
    8000290e:	bfed                	j	80002908 <strcmp+0x16>

0000000080002910 <strcpy>:
    80002910:	87aa                	mv	a5,a0
    80002912:	0005c703          	lbu	a4,0(a1)
    80002916:	0785                	add	a5,a5,1
    80002918:	0585                	add	a1,a1,1
    8000291a:	fee78fa3          	sb	a4,-1(a5)
    8000291e:	fb75                	bnez	a4,80002912 <strcpy+0x2>
    80002920:	8082                	ret

0000000080002922 <atol>:
    80002922:	00054703          	lbu	a4,0(a0)
    80002926:	02000693          	li	a3,32
    8000292a:	87aa                	mv	a5,a0
    8000292c:	00d71763          	bne	a4,a3,8000293a <atol+0x18>
    80002930:	0017c703          	lbu	a4,1(a5)
    80002934:	0785                	add	a5,a5,1
    80002936:	fed70de3          	beq	a4,a3,80002930 <atol+0xe>
    8000293a:	02d00693          	li	a3,45
    8000293e:	04d70163          	beq	a4,a3,80002980 <atol+0x5e>
    80002942:	02b00693          	li	a3,43
    80002946:	02d70763          	beq	a4,a3,80002974 <atol+0x52>
    8000294a:	0007c683          	lbu	a3,0(a5)
    8000294e:	4581                	li	a1,0
    80002950:	ce8d                	beqz	a3,8000298a <atol+0x68>
    80002952:	4501                	li	a0,0
    80002954:	0785                	add	a5,a5,1
    80002956:	00251713          	sll	a4,a0,0x2
    8000295a:	fd06861b          	addw	a2,a3,-48
    8000295e:	0007c683          	lbu	a3,0(a5)
    80002962:	972a                	add	a4,a4,a0
    80002964:	0706                	sll	a4,a4,0x1
    80002966:	00e60533          	add	a0,a2,a4
    8000296a:	f6ed                	bnez	a3,80002954 <atol+0x32>
    8000296c:	c185                	beqz	a1,8000298c <atol+0x6a>
    8000296e:	40a00533          	neg	a0,a0
    80002972:	8082                	ret
    80002974:	0017c683          	lbu	a3,1(a5)
    80002978:	0785                	add	a5,a5,1
    8000297a:	ca81                	beqz	a3,8000298a <atol+0x68>
    8000297c:	4581                	li	a1,0
    8000297e:	bfd1                	j	80002952 <atol+0x30>
    80002980:	0017c683          	lbu	a3,1(a5)
    80002984:	4585                	li	a1,1
    80002986:	0785                	add	a5,a5,1
    80002988:	f6e9                	bnez	a3,80002952 <atol+0x30>
    8000298a:	4501                	li	a0,0
    8000298c:	8082                	ret

Disassembly of section .text.startup:

000000008000298e <main>:
    8000298e:	72fd                	lui	t0,0xfffff
    80002990:	7179                	add	sp,sp,-48
    80002992:	6705                	lui	a4,0x1
    80002994:	f406                	sd	ra,40(sp)
    80002996:	f022                	sd	s0,32(sp)
    80002998:	77fd                	lui	a5,0xfffff
    8000299a:	9116                	add	sp,sp,t0
    8000299c:	0741                	add	a4,a4,16 # 1010 <buflen.1+0xfd0>
    8000299e:	973e                	add	a4,a4,a5
    800029a0:	081c                	add	a5,sp,16
    800029a2:	97ba                	add	a5,a5,a4
    800029a4:	6605                	lui	a2,0x1
    800029a6:	4581                	li	a1,0
    800029a8:	853e                	mv	a0,a5
    800029aa:	ec3e                	sd	a5,24(sp)
    800029ac:	dfdff0ef          	jal	800027a8 <memset>
    800029b0:	68e2                	ld	a7,24(sp)
    800029b2:	02000413          	li	s0,32
    800029b6:	02000813          	li	a6,32
    800029ba:	00001797          	auipc	a5,0x1
    800029be:	27678793          	add	a5,a5,630 # 80003c30 <input2_data>
    800029c2:	02000713          	li	a4,32
    800029c6:	00002697          	auipc	a3,0x2
    800029ca:	26a68693          	add	a3,a3,618 # 80004c30 <input1_data>
    800029ce:	02000613          	li	a2,32
    800029d2:	02000593          	li	a1,32
    800029d6:	e022                	sd	s0,0(sp)
    800029d8:	02000513          	li	a0,32
    800029dc:	e24ff0ef          	jal	80002000 <vec_sgemm_nn>
    800029e0:	6562                	ld	a0,24(sp)
    800029e2:	6605                	lui	a2,0x1
    800029e4:	4581                	li	a1,0
    800029e6:	dc3ff0ef          	jal	800027a8 <memset>
    800029ea:	4505                	li	a0,1
    800029ec:	b85ff0ef          	jal	80002570 <setStats>
    800029f0:	68e2                	ld	a7,24(sp)
    800029f2:	00001797          	auipc	a5,0x1
    800029f6:	23e78793          	add	a5,a5,574 # 80003c30 <input2_data>
    800029fa:	02000713          	li	a4,32
    800029fe:	00002697          	auipc	a3,0x2
    80002a02:	23268693          	add	a3,a3,562 # 80004c30 <input1_data>
    80002a06:	02000813          	li	a6,32
    80002a0a:	02000613          	li	a2,32
    80002a0e:	02000593          	li	a1,32
    80002a12:	e022                	sd	s0,0(sp)
    80002a14:	02000513          	li	a0,32
    80002a18:	de8ff0ef          	jal	80002000 <vec_sgemm_nn>
    80002a1c:	4501                	li	a0,0
    80002a1e:	b53ff0ef          	jal	80002570 <setStats>
    80002a22:	67e2                	ld	a5,24(sp)
    80002a24:	00000717          	auipc	a4,0x0
    80002a28:	20c70713          	add	a4,a4,524 # 80002c30 <verify_data>
    80002a2c:	4681                	li	a3,0
    80002a2e:	40000513          	li	a0,1024
    80002a32:	0007a787          	flw	fa5,0(a5)
    80002a36:	00472607          	flw	fa2,4(a4)
    80002a3a:	0047a687          	flw	fa3,4(a5)
    80002a3e:	00072707          	flw	fa4,0(a4)
    80002a42:	07a1                	add	a5,a5,8
    80002a44:	a0d625d3          	feq.s	a1,fa2,fa3
    80002a48:	a0f72653          	feq.s	a2,fa4,fa5
    80002a4c:	0721                	add	a4,a4,8
    80002a4e:	cd81                	beqz	a1,80002a66 <main+0xd8>
    80002a50:	ca19                	beqz	a2,80002a66 <main+0xd8>
    80002a52:	2689                	addw	a3,a3,2
    80002a54:	fca69fe3          	bne	a3,a0,80002a32 <main+0xa4>
    80002a58:	4501                	li	a0,0
    80002a5a:	6285                	lui	t0,0x1
    80002a5c:	9116                	add	sp,sp,t0
    80002a5e:	70a2                	ld	ra,40(sp)
    80002a60:	7402                	ld	s0,32(sp)
    80002a62:	6145                	add	sp,sp,48
    80002a64:	8082                	ret
    80002a66:	2685                	addw	a3,a3,1
    80002a68:	00c6853b          	addw	a0,a3,a2
    80002a6c:	b7fd                	j	80002a5a <main+0xcc>
    80002a6e:	1141                	add	sp,sp,-16
    80002a70:	00000517          	auipc	a0,0x0
    80002a74:	04050513          	add	a0,a0,64 # 80002ab0 <main+0x122>
    80002a78:	e406                	sd	ra,8(sp)
    80002a7a:	b6dff0ef          	jal	800025e6 <printstr>
    80002a7e:	60a2                	ld	ra,8(sp)
    80002a80:	557d                	li	a0,-1
    80002a82:	0141                	add	sp,sp,16
    80002a84:	8082                	ret
