
vec-sgemm.riscv:     file format elf64-littleriscv


Disassembly of section .text.init:

0000000080000000 <_start>:
    80000000:	4081                	li	ra,0
    80000002:	4101                	li	sp,0
    80000004:	4181                	li	gp,0
    80000006:	4201                	li	tp,0
    80000008:	4281                	li	t0,0
    8000000a:	4301                	li	t1,0
    8000000c:	4381                	li	t2,0
    8000000e:	4401                	li	s0,0
    80000010:	4481                	li	s1,0
    80000012:	4501                	li	a0,0
    80000014:	4581                	li	a1,0
    80000016:	4601                	li	a2,0
    80000018:	4681                	li	a3,0
    8000001a:	4701                	li	a4,0
    8000001c:	4781                	li	a5,0
    8000001e:	4801                	li	a6,0
    80000020:	4881                	li	a7,0
    80000022:	4901                	li	s2,0
    80000024:	4981                	li	s3,0
    80000026:	4a01                	li	s4,0
    80000028:	4a81                	li	s5,0
    8000002a:	4b01                	li	s6,0
    8000002c:	4b81                	li	s7,0
    8000002e:	4c01                	li	s8,0
    80000030:	4c81                	li	s9,0
    80000032:	4d01                	li	s10,0
    80000034:	4d81                	li	s11,0
    80000036:	4e01                	li	t3,0
    80000038:	4e81                	li	t4,0
    8000003a:	4f01                	li	t5,0
    8000003c:	4f81                	li	t6,0
    8000003e:	62f9                	lui	t0,0x1e
    80000040:	6002829b          	addw	t0,t0,1536 # 1e600 <buflen.1+0x1e5c0>
    80000044:	3002a073          	csrs	mstatus,t0
    80000048:	4285                	li	t0,1
    8000004a:	02fe                	sll	t0,t0,0x1f
    8000004c:	0002d863          	bgez	t0,8000005c <_start+0x5c>
    80000050:	4505                	li	a0,1
    80000052:	00001297          	auipc	t0,0x1
    80000056:	faa2a723          	sw	a0,-82(t0) # 80001000 <tohost>
    8000005a:	bfdd                	j	80000050 <_start+0x50>
    8000005c:	00000297          	auipc	t0,0x0
    80000060:	09028293          	add	t0,t0,144 # 800000ec <_start+0xec>
    80000064:	30529073          	csrw	mtvec,t0
    80000068:	00301073          	fscsr	zero
    8000006c:	f0000053          	fmv.w.x	ft0,zero
    80000070:	f00000d3          	fmv.w.x	ft1,zero
    80000074:	f0000153          	fmv.w.x	ft2,zero
    80000078:	f00001d3          	fmv.w.x	ft3,zero
    8000007c:	f0000253          	fmv.w.x	ft4,zero
    80000080:	f00002d3          	fmv.w.x	ft5,zero
    80000084:	f0000353          	fmv.w.x	ft6,zero
    80000088:	f00003d3          	fmv.w.x	ft7,zero
    8000008c:	f0000453          	fmv.w.x	fs0,zero
    80000090:	f00004d3          	fmv.w.x	fs1,zero
    80000094:	f0000553          	fmv.w.x	fa0,zero
    80000098:	f00005d3          	fmv.w.x	fa1,zero
    8000009c:	f0000653          	fmv.w.x	fa2,zero
    800000a0:	f00006d3          	fmv.w.x	fa3,zero
    800000a4:	f0000753          	fmv.w.x	fa4,zero
    800000a8:	f00007d3          	fmv.w.x	fa5,zero
    800000ac:	f0000853          	fmv.w.x	fa6,zero
    800000b0:	f00008d3          	fmv.w.x	fa7,zero
    800000b4:	f0000953          	fmv.w.x	fs2,zero
    800000b8:	f00009d3          	fmv.w.x	fs3,zero
    800000bc:	f0000a53          	fmv.w.x	fs4,zero
    800000c0:	f0000ad3          	fmv.w.x	fs5,zero
    800000c4:	f0000b53          	fmv.w.x	fs6,zero
    800000c8:	f0000bd3          	fmv.w.x	fs7,zero
    800000cc:	f0000c53          	fmv.w.x	fs8,zero
    800000d0:	f0000cd3          	fmv.w.x	fs9,zero
    800000d4:	f0000d53          	fmv.w.x	fs10,zero
    800000d8:	f0000dd3          	fmv.w.x	fs11,zero
    800000dc:	f0000e53          	fmv.w.x	ft8,zero
    800000e0:	f0000ed3          	fmv.w.x	ft9,zero
    800000e4:	f0000f53          	fmv.w.x	ft10,zero
    800000e8:	f0000fd3          	fmv.w.x	ft11,zero
    800000ec:	00000297          	auipc	t0,0x0
    800000f0:	03828293          	add	t0,t0,56 # 80000124 <trap_entry>
    800000f4:	30529073          	csrw	mtvec,t0
    800000f8:	00006197          	auipc	gp,0x6
    800000fc:	33818193          	add	gp,gp,824 # 80006430 <__global_pointer$>
    80000100:	88f18213          	add	tp,gp,-1905 # 80005cbf <_end+0x3f>
    80000104:	fc027213          	and	tp,tp,-64
    80000108:	f1402573          	csrr	a0,mhartid
    8000010c:	4585                	li	a1,1
    8000010e:	00b57063          	bgeu	a0,a1,8000010e <_start+0x10e>
    80000112:	00150113          	add	sp,a0,1
    80000116:	0146                	sll	sp,sp,0x11
    80000118:	9112                	add	sp,sp,tp
    8000011a:	01151613          	sll	a2,a0,0x11
    8000011e:	9232                	add	tp,tp,a2
    80000120:	6d80206f          	j	800027f8 <_init>

0000000080000124 <trap_entry>:
    80000124:	716d                	add	sp,sp,-272
    80000126:	e406                	sd	ra,8(sp)
    80000128:	e80a                	sd	sp,16(sp)
    8000012a:	ec0e                	sd	gp,24(sp)
    8000012c:	f012                	sd	tp,32(sp)
    8000012e:	f416                	sd	t0,40(sp)
    80000130:	f81a                	sd	t1,48(sp)
    80000132:	fc1e                	sd	t2,56(sp)
    80000134:	e0a2                	sd	s0,64(sp)
    80000136:	e4a6                	sd	s1,72(sp)
    80000138:	e8aa                	sd	a0,80(sp)
    8000013a:	ecae                	sd	a1,88(sp)
    8000013c:	f0b2                	sd	a2,96(sp)
    8000013e:	f4b6                	sd	a3,104(sp)
    80000140:	f8ba                	sd	a4,112(sp)
    80000142:	fcbe                	sd	a5,120(sp)
    80000144:	e142                	sd	a6,128(sp)
    80000146:	e546                	sd	a7,136(sp)
    80000148:	e94a                	sd	s2,144(sp)
    8000014a:	ed4e                	sd	s3,152(sp)
    8000014c:	f152                	sd	s4,160(sp)
    8000014e:	f556                	sd	s5,168(sp)
    80000150:	f95a                	sd	s6,176(sp)
    80000152:	fd5e                	sd	s7,184(sp)
    80000154:	e1e2                	sd	s8,192(sp)
    80000156:	e5e6                	sd	s9,200(sp)
    80000158:	e9ea                	sd	s10,208(sp)
    8000015a:	edee                	sd	s11,216(sp)
    8000015c:	f1f2                	sd	t3,224(sp)
    8000015e:	f5f6                	sd	t4,232(sp)
    80000160:	f9fa                	sd	t5,240(sp)
    80000162:	fdfe                	sd	t6,248(sp)
    80000164:	34202573          	csrr	a0,mcause
    80000168:	341025f3          	csrr	a1,mepc
    8000016c:	860a                	mv	a2,sp
    8000016e:	452020ef          	jal	800025c0 <handle_trap>
    80000172:	34151073          	csrw	mepc,a0
    80000176:	6289                	lui	t0,0x2
    80000178:	8002829b          	addw	t0,t0,-2048 # 1800 <buflen.1+0x17c0>
    8000017c:	3002a073          	csrs	mstatus,t0
    80000180:	60a2                	ld	ra,8(sp)
    80000182:	6142                	ld	sp,16(sp)
    80000184:	61e2                	ld	gp,24(sp)
    80000186:	7202                	ld	tp,32(sp)
    80000188:	72a2                	ld	t0,40(sp)
    8000018a:	7342                	ld	t1,48(sp)
    8000018c:	73e2                	ld	t2,56(sp)
    8000018e:	6406                	ld	s0,64(sp)
    80000190:	64a6                	ld	s1,72(sp)
    80000192:	6546                	ld	a0,80(sp)
    80000194:	65e6                	ld	a1,88(sp)
    80000196:	7606                	ld	a2,96(sp)
    80000198:	76a6                	ld	a3,104(sp)
    8000019a:	7746                	ld	a4,112(sp)
    8000019c:	77e6                	ld	a5,120(sp)
    8000019e:	680a                	ld	a6,128(sp)
    800001a0:	68aa                	ld	a7,136(sp)
    800001a2:	694a                	ld	s2,144(sp)
    800001a4:	69ea                	ld	s3,152(sp)
    800001a6:	7a0a                	ld	s4,160(sp)
    800001a8:	7aaa                	ld	s5,168(sp)
    800001aa:	7b4a                	ld	s6,176(sp)
    800001ac:	7bea                	ld	s7,184(sp)
    800001ae:	6c0e                	ld	s8,192(sp)
    800001b0:	6cae                	ld	s9,200(sp)
    800001b2:	6d4e                	ld	s10,208(sp)
    800001b4:	6dee                	ld	s11,216(sp)
    800001b6:	7e0e                	ld	t3,224(sp)
    800001b8:	7eae                	ld	t4,232(sp)
    800001ba:	7f4e                	ld	t5,240(sp)
    800001bc:	7fee                	ld	t6,248(sp)
    800001be:	6151                	add	sp,sp,272
    800001c0:	30200073          	mret
    800001c4:	0000                	unimp

Disassembly of section .text:

0000000080002000 <vec_sgemm_nn>:
    80002000:	6282                	ld	t0,0(sp)
    80002002:	1101                	add	sp,sp,-32
    80002004:	e022                	sd	s0,0(sp)
    80002006:	e426                	sd	s1,8(sp)
    80002008:	e84a                	sd	s2,16(sp)
    8000200a:	1e050863          	beqz	a0,800021fa <end_rows>
    8000200e:	1e058663          	beqz	a1,800021fa <end_rows>
    80002012:	1e060463          	beqz	a2,800021fa <end_rows>
    80002016:	070a                	sll	a4,a4,0x2
    80002018:	080a                	sll	a6,a6,0x2
    8000201a:	028a                	sll	t0,t0,0x2
    8000201c:	0105af93          	slti	t6,a1,16
    80002020:	1c0f9d63          	bnez	t6,800021fa <end_rows>

0000000080002024 <c_row_loop>:
    80002024:	83aa                	mv	t2,a0
    80002026:	8e3e                	mv	t3,a5
    80002028:	8ec6                	mv	t4,a7

000000008000202a <c_col_loop>:
    8000202a:	0d03f4d7          	vsetvli	s1,t2,e32,m1,ta,ma
    8000202e:	8f36                	mv	t5,a3
    80002030:	8472                	mv	s0,t3
    80002032:	020ee007          	vle32.v	v0,(t4)
    80002036:	005e8933          	add	s2,t4,t0
    8000203a:	02096087          	vle32.v	v1,(s2)
    8000203e:	9916                	add	s2,s2,t0
    80002040:	02096107          	vle32.v	v2,(s2)
    80002044:	9916                	add	s2,s2,t0
    80002046:	02096187          	vle32.v	v3,(s2)
    8000204a:	9916                	add	s2,s2,t0
    8000204c:	02096207          	vle32.v	v4,(s2)
    80002050:	9916                	add	s2,s2,t0
    80002052:	02096287          	vle32.v	v5,(s2)
    80002056:	9916                	add	s2,s2,t0
    80002058:	02096307          	vle32.v	v6,(s2)
    8000205c:	9916                	add	s2,s2,t0
    8000205e:	02096387          	vle32.v	v7,(s2)
    80002062:	9916                	add	s2,s2,t0
    80002064:	02096407          	vle32.v	v8,(s2)
    80002068:	9916                	add	s2,s2,t0
    8000206a:	02096487          	vle32.v	v9,(s2)
    8000206e:	9916                	add	s2,s2,t0
    80002070:	02096507          	vle32.v	v10,(s2)
    80002074:	9916                	add	s2,s2,t0
    80002076:	02096587          	vle32.v	v11,(s2)
    8000207a:	9916                	add	s2,s2,t0
    8000207c:	02096607          	vle32.v	v12,(s2)
    80002080:	9916                	add	s2,s2,t0
    80002082:	02096687          	vle32.v	v13,(s2)
    80002086:	9916                	add	s2,s2,t0
    80002088:	02096707          	vle32.v	v14,(s2)
    8000208c:	9916                	add	s2,s2,t0
    8000208e:	02096787          	vle32.v	v15,(s2)
    80002092:	8332                	mv	t1,a2
    80002094:	000f2007          	flw	ft0,0(t5)
    80002098:	00ef09b3          	add	s3,t5,a4
    8000209c:	0009a087          	flw	ft1,0(s3)
    800020a0:	99ba                	add	s3,s3,a4
    800020a2:	0009a107          	flw	ft2,0(s3)
    800020a6:	99ba                	add	s3,s3,a4
    800020a8:	0009a187          	flw	ft3,0(s3)
    800020ac:	99ba                	add	s3,s3,a4
    800020ae:	02046807          	vle32.v	v16,(s0)

00000000800020b2 <k_loop>:
    800020b2:	b3005057          	vfmacc.vf	v0,ft0,v16
    800020b6:	9442                	add	s0,s0,a6
    800020b8:	0009a207          	flw	ft4,0(s3)
    800020bc:	99ba                	add	s3,s3,a4
    800020be:	b300d0d7          	vfmacc.vf	v1,ft1,v16
    800020c2:	137d                	add	t1,t1,-1
    800020c4:	0009a287          	flw	ft5,0(s3)
    800020c8:	99ba                	add	s3,s3,a4
    800020ca:	b3015157          	vfmacc.vf	v2,ft2,v16
    800020ce:	0009a307          	flw	ft6,0(s3)
    800020d2:	99ba                	add	s3,s3,a4
    800020d4:	0009a387          	flw	ft7,0(s3)
    800020d8:	b301d1d7          	vfmacc.vf	v3,ft3,v16
    800020dc:	99ba                	add	s3,s3,a4
    800020de:	0009ae07          	flw	ft8,0(s3)
    800020e2:	99ba                	add	s3,s3,a4
    800020e4:	b3025257          	vfmacc.vf	v4,ft4,v16
    800020e8:	0009ae87          	flw	ft9,0(s3)
    800020ec:	99ba                	add	s3,s3,a4
    800020ee:	b302d2d7          	vfmacc.vf	v5,ft5,v16
    800020f2:	0009af07          	flw	ft10,0(s3)
    800020f6:	99ba                	add	s3,s3,a4
    800020f8:	b3035357          	vfmacc.vf	v6,ft6,v16
    800020fc:	0009af87          	flw	ft11,0(s3)
    80002100:	99ba                	add	s3,s3,a4
    80002102:	b303d3d7          	vfmacc.vf	v7,ft7,v16
    80002106:	0009a507          	flw	fa0,0(s3)
    8000210a:	99ba                	add	s3,s3,a4
    8000210c:	b30e5457          	vfmacc.vf	v8,ft8,v16
    80002110:	0009a587          	flw	fa1,0(s3)
    80002114:	99ba                	add	s3,s3,a4
    80002116:	b30ed4d7          	vfmacc.vf	v9,ft9,v16
    8000211a:	0009a607          	flw	fa2,0(s3)
    8000211e:	99ba                	add	s3,s3,a4
    80002120:	b30f5557          	vfmacc.vf	v10,ft10,v16
    80002124:	0009a687          	flw	fa3,0(s3)
    80002128:	99ba                	add	s3,s3,a4
    8000212a:	0f11                	add	t5,t5,4
    8000212c:	b30fd5d7          	vfmacc.vf	v11,ft11,v16
    80002130:	00030663          	beqz	t1,8000213c <k_loop+0x8a>
    80002134:	000f2007          	flw	ft0,0(t5)
    80002138:	00ef09b3          	add	s3,t5,a4
    8000213c:	b3055657          	vfmacc.vf	v12,fa0,v16
    80002140:	00030563          	beqz	t1,8000214a <k_loop+0x98>
    80002144:	0009a087          	flw	ft1,0(s3)
    80002148:	99ba                	add	s3,s3,a4
    8000214a:	b305d6d7          	vfmacc.vf	v13,fa1,v16
    8000214e:	00030563          	beqz	t1,80002158 <k_loop+0xa6>
    80002152:	0009a107          	flw	ft2,0(s3)
    80002156:	99ba                	add	s3,s3,a4
    80002158:	b3065757          	vfmacc.vf	v14,fa2,v16
    8000215c:	00030a63          	beqz	t1,80002170 <k_loop+0xbe>
    80002160:	0009a187          	flw	ft3,0(s3)
    80002164:	99ba                	add	s3,s3,a4
    80002166:	b306d7d7          	vfmacc.vf	v15,fa3,v16
    8000216a:	02046807          	vle32.v	v16,(s0)
    8000216e:	b791                	j	800020b2 <k_loop>
    80002170:	b306d7d7          	vfmacc.vf	v15,fa3,v16
    80002174:	020ee027          	vse32.v	v0,(t4)
    80002178:	005e8933          	add	s2,t4,t0
    8000217c:	020960a7          	vse32.v	v1,(s2)
    80002180:	9916                	add	s2,s2,t0
    80002182:	02096127          	vse32.v	v2,(s2)
    80002186:	9916                	add	s2,s2,t0
    80002188:	020961a7          	vse32.v	v3,(s2)
    8000218c:	9916                	add	s2,s2,t0
    8000218e:	02096227          	vse32.v	v4,(s2)
    80002192:	9916                	add	s2,s2,t0
    80002194:	020962a7          	vse32.v	v5,(s2)
    80002198:	9916                	add	s2,s2,t0
    8000219a:	02096327          	vse32.v	v6,(s2)
    8000219e:	9916                	add	s2,s2,t0
    800021a0:	020963a7          	vse32.v	v7,(s2)
    800021a4:	9916                	add	s2,s2,t0
    800021a6:	02096427          	vse32.v	v8,(s2)
    800021aa:	9916                	add	s2,s2,t0
    800021ac:	020964a7          	vse32.v	v9,(s2)
    800021b0:	9916                	add	s2,s2,t0
    800021b2:	02096527          	vse32.v	v10,(s2)
    800021b6:	9916                	add	s2,s2,t0
    800021b8:	020965a7          	vse32.v	v11,(s2)
    800021bc:	9916                	add	s2,s2,t0
    800021be:	02096627          	vse32.v	v12,(s2)
    800021c2:	9916                	add	s2,s2,t0
    800021c4:	020966a7          	vse32.v	v13,(s2)
    800021c8:	9916                	add	s2,s2,t0
    800021ca:	02096727          	vse32.v	v14,(s2)
    800021ce:	9916                	add	s2,s2,t0
    800021d0:	020967a7          	vse32.v	v15,(s2)
    800021d4:	00249f93          	sll	t6,s1,0x2
    800021d8:	9efe                	add	t4,t4,t6
    800021da:	9e7e                	add	t3,t3,t6
    800021dc:	409383b3          	sub	t2,t2,s1
    800021e0:	e40395e3          	bnez	t2,8000202a <c_col_loop>
    800021e4:	15c1                	add	a1,a1,-16
    800021e6:	00471f93          	sll	t6,a4,0x4
    800021ea:	96fe                	add	a3,a3,t6
    800021ec:	00429f93          	sll	t6,t0,0x4
    800021f0:	98fe                	add	a7,a7,t6
    800021f2:	0105af93          	slti	t6,a1,16
    800021f6:	e20f87e3          	beqz	t6,80002024 <c_row_loop>

00000000800021fa <end_rows>:
    800021fa:	6402                	ld	s0,0(sp)
    800021fc:	64a2                	ld	s1,8(sp)
    800021fe:	6942                	ld	s2,16(sp)
    80002200:	6105                	add	sp,sp,32
    80002202:	8082                	ret
    80002204:	0000                	unimp

0000000080002206 <vprintfmt>:
    80002206:	7149                	add	sp,sp,-368
    80002208:	f2a2                	sd	s0,352(sp)
    8000220a:	eea6                	sd	s1,344(sp)
    8000220c:	eaca                	sd	s2,336(sp)
    8000220e:	e2d2                	sd	s4,320(sp)
    80002210:	fe56                	sd	s5,312(sp)
    80002212:	fa5a                	sd	s6,304(sp)
    80002214:	f65e                	sd	s7,296(sp)
    80002216:	f686                	sd	ra,360(sp)
    80002218:	e6ce                	sd	s3,328(sp)
    8000221a:	f262                	sd	s8,288(sp)
    8000221c:	ee66                	sd	s9,280(sp)
    8000221e:	e66e                	sd	s11,264(sp)
    80002220:	892a                	mv	s2,a0
    80002222:	84ae                	mv	s1,a1
    80002224:	8432                	mv	s0,a2
    80002226:	8bb6                	mv	s7,a3
    80002228:	02500a13          	li	s4,37
    8000222c:	05500b13          	li	s6,85
    80002230:	00001a97          	auipc	s5,0x1
    80002234:	8a4a8a93          	add	s5,s5,-1884 # 80002ad4 <main+0x146>
    80002238:	a029                	j	80002242 <vprintfmt+0x3c>
    8000223a:	cd1d                	beqz	a0,80002278 <vprintfmt+0x72>
    8000223c:	85a6                	mv	a1,s1
    8000223e:	0405                	add	s0,s0,1
    80002240:	9902                	jalr	s2
    80002242:	00044503          	lbu	a0,0(s0)
    80002246:	ff451ae3          	bne	a0,s4,8000223a <vprintfmt+0x34>
    8000224a:	00144683          	lbu	a3,1(s0)
    8000224e:	00140993          	add	s3,s0,1
    80002252:	874e                	mv	a4,s3
    80002254:	02000c93          	li	s9,32
    80002258:	5c7d                	li	s8,-1
    8000225a:	5dfd                	li	s11,-1
    8000225c:	4581                	li	a1,0
    8000225e:	fdd6879b          	addw	a5,a3,-35
    80002262:	0ff7f793          	zext.b	a5,a5
    80002266:	00170413          	add	s0,a4,1
    8000226a:	04fb6163          	bltu	s6,a5,800022ac <vprintfmt+0xa6>
    8000226e:	078a                	sll	a5,a5,0x2
    80002270:	97d6                	add	a5,a5,s5
    80002272:	439c                	lw	a5,0(a5)
    80002274:	97d6                	add	a5,a5,s5
    80002276:	8782                	jr	a5
    80002278:	70b6                	ld	ra,360(sp)
    8000227a:	7416                	ld	s0,352(sp)
    8000227c:	64f6                	ld	s1,344(sp)
    8000227e:	6956                	ld	s2,336(sp)
    80002280:	69b6                	ld	s3,328(sp)
    80002282:	6a16                	ld	s4,320(sp)
    80002284:	7af2                	ld	s5,312(sp)
    80002286:	7b52                	ld	s6,304(sp)
    80002288:	7bb2                	ld	s7,296(sp)
    8000228a:	7c12                	ld	s8,288(sp)
    8000228c:	6cf2                	ld	s9,280(sp)
    8000228e:	6db2                	ld	s11,264(sp)
    80002290:	6175                	add	sp,sp,368
    80002292:	8082                	ret
    80002294:	8cb6                	mv	s9,a3
    80002296:	00174683          	lbu	a3,1(a4)
    8000229a:	8722                	mv	a4,s0
    8000229c:	00170413          	add	s0,a4,1
    800022a0:	fdd6879b          	addw	a5,a3,-35
    800022a4:	0ff7f793          	zext.b	a5,a5
    800022a8:	fcfb73e3          	bgeu	s6,a5,8000226e <vprintfmt+0x68>
    800022ac:	85a6                	mv	a1,s1
    800022ae:	02500513          	li	a0,37
    800022b2:	9902                	jalr	s2
    800022b4:	844e                	mv	s0,s3
    800022b6:	b771                	j	80002242 <vprintfmt+0x3c>
    800022b8:	fd068c1b          	addw	s8,a3,-48
    800022bc:	00174683          	lbu	a3,1(a4)
    800022c0:	47a5                	li	a5,9
    800022c2:	fd06871b          	addw	a4,a3,-48
    800022c6:	0006861b          	sext.w	a2,a3
    800022ca:	20e7ef63          	bltu	a5,a4,800024e8 <vprintfmt+0x2e2>
    800022ce:	8722                	mv	a4,s0
    800022d0:	4825                	li	a6,9
    800022d2:	00174683          	lbu	a3,1(a4)
    800022d6:	002c179b          	sllw	a5,s8,0x2
    800022da:	018787bb          	addw	a5,a5,s8
    800022de:	0017979b          	sllw	a5,a5,0x1
    800022e2:	9fb1                	addw	a5,a5,a2
    800022e4:	fd06851b          	addw	a0,a3,-48
    800022e8:	0705                	add	a4,a4,1
    800022ea:	fd078c1b          	addw	s8,a5,-48
    800022ee:	0006861b          	sext.w	a2,a3
    800022f2:	fea870e3          	bgeu	a6,a0,800022d2 <vprintfmt+0xcc>
    800022f6:	f60dd4e3          	bgez	s11,8000225e <vprintfmt+0x58>
    800022fa:	8de2                	mv	s11,s8
    800022fc:	5c7d                	li	s8,-1
    800022fe:	b785                	j	8000225e <vprintfmt+0x58>
    80002300:	00174683          	lbu	a3,1(a4)
    80002304:	8722                	mv	a4,s0
    80002306:	bfa1                	j	8000225e <vprintfmt+0x58>
    80002308:	85a6                	mv	a1,s1
    8000230a:	02500513          	li	a0,37
    8000230e:	9902                	jalr	s2
    80002310:	bf0d                	j	80002242 <vprintfmt+0x3c>
    80002312:	000bac03          	lw	s8,0(s7)
    80002316:	00174683          	lbu	a3,1(a4)
    8000231a:	0ba1                	add	s7,s7,8
    8000231c:	8722                	mv	a4,s0
    8000231e:	bfe1                	j	800022f6 <vprintfmt+0xf0>
    80002320:	85a6                	mv	a1,s1
    80002322:	03000513          	li	a0,48
    80002326:	ea6a                	sd	s10,272(sp)
    80002328:	9902                	jalr	s2
    8000232a:	85a6                	mv	a1,s1
    8000232c:	07800513          	li	a0,120
    80002330:	9902                	jalr	s2
    80002332:	4641                	li	a2,16
    80002334:	008b8713          	add	a4,s7,8
    80002338:	000bb783          	ld	a5,0(s7)
    8000233c:	8bba                	mv	s7,a4
    8000233e:	02c7f5b3          	remu	a1,a5,a2
    80002342:	000c899b          	sext.w	s3,s9
    80002346:	0054                	add	a3,sp,4
    80002348:	4705                	li	a4,1
    8000234a:	c02e                	sw	a1,0(sp)
    8000234c:	16c7ea63          	bltu	a5,a2,800024c0 <vprintfmt+0x2ba>
    80002350:	02c7d7b3          	divu	a5,a5,a2
    80002354:	0691                	add	a3,a3,4
    80002356:	8c3a                	mv	s8,a4
    80002358:	2705                	addw	a4,a4,1
    8000235a:	02c7f5b3          	remu	a1,a5,a2
    8000235e:	feb6ae23          	sw	a1,-4(a3)
    80002362:	fec7f7e3          	bgeu	a5,a2,80002350 <vprintfmt+0x14a>
    80002366:	fffd8c9b          	addw	s9,s11,-1
    8000236a:	fff70d1b          	addw	s10,a4,-1
    8000236e:	01b75863          	bge	a4,s11,8000237e <vprintfmt+0x178>
    80002372:	85a6                	mv	a1,s1
    80002374:	854e                	mv	a0,s3
    80002376:	3cfd                	addw	s9,s9,-1
    80002378:	9902                	jalr	s2
    8000237a:	ffac9ce3          	bne	s9,s10,80002372 <vprintfmt+0x16c>
    8000237e:	0c0a                	sll	s8,s8,0x2
    80002380:	018109b3          	add	s3,sp,s8
    80002384:	ffc10c93          	add	s9,sp,-4
    80002388:	4c25                	li	s8,9
    8000238a:	0009a783          	lw	a5,0(s3)
    8000238e:	03000513          	li	a0,48
    80002392:	00fc7463          	bgeu	s8,a5,8000239a <vprintfmt+0x194>
    80002396:	05700513          	li	a0,87
    8000239a:	85a6                	mv	a1,s1
    8000239c:	9d3d                	addw	a0,a0,a5
    8000239e:	19f1                	add	s3,s3,-4
    800023a0:	9902                	jalr	s2
    800023a2:	ff9994e3          	bne	s3,s9,8000238a <vprintfmt+0x184>
    800023a6:	6d52                	ld	s10,272(sp)
    800023a8:	bd69                	j	80002242 <vprintfmt+0x3c>
    800023aa:	ea6a                	sd	s10,272(sp)
    800023ac:	4785                	li	a5,1
    800023ae:	008b8c13          	add	s8,s7,8
    800023b2:	00b7c463          	blt	a5,a1,800023ba <vprintfmt+0x1b4>
    800023b6:	10058763          	beqz	a1,800024c4 <vprintfmt+0x2be>
    800023ba:	000bb983          	ld	s3,0(s7)
    800023be:	1009cc63          	bltz	s3,800024d6 <vprintfmt+0x2d0>
    800023c2:	87ce                	mv	a5,s3
    800023c4:	8be2                	mv	s7,s8
    800023c6:	4629                	li	a2,10
    800023c8:	bf9d                	j	8000233e <vprintfmt+0x138>
    800023ca:	00174683          	lbu	a3,1(a4)
    800023ce:	2585                	addw	a1,a1,1
    800023d0:	8722                	mv	a4,s0
    800023d2:	b571                	j	8000225e <vprintfmt+0x58>
    800023d4:	ea6a                	sd	s10,272(sp)
    800023d6:	4641                	li	a2,16
    800023d8:	4785                	li	a5,1
    800023da:	008b8713          	add	a4,s7,8
    800023de:	f4b7cde3          	blt	a5,a1,80002338 <vprintfmt+0x132>
    800023e2:	f9b9                	bnez	a1,80002338 <vprintfmt+0x132>
    800023e4:	000be783          	lwu	a5,0(s7)
    800023e8:	8bba                	mv	s7,a4
    800023ea:	bf91                	j	8000233e <vprintfmt+0x138>
    800023ec:	ea6a                	sd	s10,272(sp)
    800023ee:	000bbd03          	ld	s10,0(s7)
    800023f2:	0ba1                	add	s7,s7,8
    800023f4:	040d0363          	beqz	s10,8000243a <vprintfmt+0x234>
    800023f8:	09b05e63          	blez	s11,80002494 <vprintfmt+0x28e>
    800023fc:	02d00793          	li	a5,45
    80002400:	04fc9f63          	bne	s9,a5,8000245e <vprintfmt+0x258>
    80002404:	000d4503          	lbu	a0,0(s10)
    80002408:	c105                	beqz	a0,80002428 <vprintfmt+0x222>
    8000240a:	59fd                	li	s3,-1
    8000240c:	000c4563          	bltz	s8,80002416 <vprintfmt+0x210>
    80002410:	3c7d                	addw	s8,s8,-1
    80002412:	013c0963          	beq	s8,s3,80002424 <vprintfmt+0x21e>
    80002416:	85a6                	mv	a1,s1
    80002418:	9902                	jalr	s2
    8000241a:	001d4503          	lbu	a0,1(s10)
    8000241e:	3dfd                	addw	s11,s11,-1
    80002420:	0d05                	add	s10,s10,1
    80002422:	f56d                	bnez	a0,8000240c <vprintfmt+0x206>
    80002424:	f9b051e3          	blez	s11,800023a6 <vprintfmt+0x1a0>
    80002428:	85a6                	mv	a1,s1
    8000242a:	02000513          	li	a0,32
    8000242e:	3dfd                	addw	s11,s11,-1
    80002430:	9902                	jalr	s2
    80002432:	fe0d9be3          	bnez	s11,80002428 <vprintfmt+0x222>
    80002436:	6d52                	ld	s10,272(sp)
    80002438:	b529                	j	80002242 <vprintfmt+0x3c>
    8000243a:	00000d17          	auipc	s10,0x0
    8000243e:	64ed0d13          	add	s10,s10,1614 # 80002a88 <main+0xfa>
    80002442:	02800513          	li	a0,40
    80002446:	fdb052e3          	blez	s11,8000240a <vprintfmt+0x204>
    8000244a:	02d00793          	li	a5,45
    8000244e:	00000d17          	auipc	s10,0x0
    80002452:	63ad0d13          	add	s10,s10,1594 # 80002a88 <main+0xfa>
    80002456:	02800513          	li	a0,40
    8000245a:	fafc88e3          	beq	s9,a5,8000240a <vprintfmt+0x204>
    8000245e:	000d861b          	sext.w	a2,s11
    80002462:	87ea                	mv	a5,s10
    80002464:	018d06b3          	add	a3,s10,s8
    80002468:	000c1663          	bnez	s8,80002474 <vprintfmt+0x26e>
    8000246c:	a829                	j	80002486 <vprintfmt+0x280>
    8000246e:	0785                	add	a5,a5,1
    80002470:	00d78563          	beq	a5,a3,8000247a <vprintfmt+0x274>
    80002474:	0007c703          	lbu	a4,0(a5)
    80002478:	fb7d                	bnez	a4,8000246e <vprintfmt+0x268>
    8000247a:	41a787b3          	sub	a5,a5,s10
    8000247e:	40f60dbb          	subw	s11,a2,a5
    80002482:	01b05963          	blez	s11,80002494 <vprintfmt+0x28e>
    80002486:	2c81                	sext.w	s9,s9
    80002488:	85a6                	mv	a1,s1
    8000248a:	8566                	mv	a0,s9
    8000248c:	3dfd                	addw	s11,s11,-1
    8000248e:	9902                	jalr	s2
    80002490:	fe0d9ce3          	bnez	s11,80002488 <vprintfmt+0x282>
    80002494:	000d4503          	lbu	a0,0(s10)
    80002498:	d519                	beqz	a0,800023a6 <vprintfmt+0x1a0>
    8000249a:	59fd                	li	s3,-1
    8000249c:	bf85                	j	8000240c <vprintfmt+0x206>
    8000249e:	fffdc793          	not	a5,s11
    800024a2:	97fd                	sra	a5,a5,0x3f
    800024a4:	00fdf7b3          	and	a5,s11,a5
    800024a8:	00174683          	lbu	a3,1(a4)
    800024ac:	00078d9b          	sext.w	s11,a5
    800024b0:	8722                	mv	a4,s0
    800024b2:	b375                	j	8000225e <vprintfmt+0x58>
    800024b4:	000ba503          	lw	a0,0(s7)
    800024b8:	85a6                	mv	a1,s1
    800024ba:	0ba1                	add	s7,s7,8
    800024bc:	9902                	jalr	s2
    800024be:	b351                	j	80002242 <vprintfmt+0x3c>
    800024c0:	4c01                	li	s8,0
    800024c2:	b555                	j	80002366 <vprintfmt+0x160>
    800024c4:	000ba983          	lw	s3,0(s7)
    800024c8:	bddd                	j	800023be <vprintfmt+0x1b8>
    800024ca:	ea6a                	sd	s10,272(sp)
    800024cc:	4629                	li	a2,10
    800024ce:	b729                	j	800023d8 <vprintfmt+0x1d2>
    800024d0:	ea6a                	sd	s10,272(sp)
    800024d2:	4621                	li	a2,8
    800024d4:	b711                	j	800023d8 <vprintfmt+0x1d2>
    800024d6:	85a6                	mv	a1,s1
    800024d8:	02d00513          	li	a0,45
    800024dc:	9902                	jalr	s2
    800024de:	413007b3          	neg	a5,s3
    800024e2:	8be2                	mv	s7,s8
    800024e4:	4629                	li	a2,10
    800024e6:	bda1                	j	8000233e <vprintfmt+0x138>
    800024e8:	8722                	mv	a4,s0
    800024ea:	b531                	j	800022f6 <vprintfmt+0xf0>

00000000800024ec <sprintf_putch.0>:
    800024ec:	619c                	ld	a5,0(a1)
    800024ee:	00a78023          	sb	a0,0(a5)
    800024f2:	619c                	ld	a5,0(a1)
    800024f4:	0785                	add	a5,a5,1
    800024f6:	e19c                	sd	a5,0(a1)
    800024f8:	8082                	ret

00000000800024fa <putchar>:
    800024fa:	04022803          	lw	a6,64(tp) # 40 <buflen.1>
    800024fe:	00020793          	mv	a5,tp
    80002502:	97c2                	add	a5,a5,a6
    80002504:	7159                	add	sp,sp,-112
    80002506:	0018069b          	addw	a3,a6,1
    8000250a:	04d22023          	sw	a3,64(tp) # 40 <buflen.1>
    8000250e:	00a78023          	sb	a0,0(a5)
    80002512:	03f10713          	add	a4,sp,63
    80002516:	47a9                	li	a5,10
    80002518:	fc077713          	and	a4,a4,-64
    8000251c:	00f50963          	beq	a0,a5,8000252e <putchar+0x34>
    80002520:	04000793          	li	a5,64
    80002524:	00f68563          	beq	a3,a5,8000252e <putchar+0x34>
    80002528:	4501                	li	a0,0
    8000252a:	6165                	add	sp,sp,112
    8000252c:	8082                	ret
    8000252e:	04000793          	li	a5,64
    80002532:	e31c                	sd	a5,0(a4)
    80002534:	4785                	li	a5,1
    80002536:	e71c                	sd	a5,8(a4)
    80002538:	00020613          	mv	a2,tp
    8000253c:	eb10                	sd	a2,16(a4)
    8000253e:	ef14                	sd	a3,24(a4)
    80002540:	0ff0000f          	fence
    80002544:	fffff697          	auipc	a3,0xfffff
    80002548:	afc68693          	add	a3,a3,-1284 # 80001040 <fromhost>
    8000254c:	fffff797          	auipc	a5,0xfffff
    80002550:	aae7ba23          	sd	a4,-1356(a5) # 80001000 <tohost>
    80002554:	629c                	ld	a5,0(a3)
    80002556:	dffd                	beqz	a5,80002554 <putchar+0x5a>
    80002558:	fffff797          	auipc	a5,0xfffff
    8000255c:	ae07b423          	sd	zero,-1304(a5) # 80001040 <fromhost>
    80002560:	0ff0000f          	fence
    80002564:	04022023          	sw	zero,64(tp) # 40 <buflen.1>
    80002568:	631c                	ld	a5,0(a4)
    8000256a:	4501                	li	a0,0
    8000256c:	6165                	add	sp,sp,112
    8000256e:	8082                	ret

0000000080002570 <setStats>:
    80002570:	b0002773          	csrr	a4,mcycle
    80002574:	00003797          	auipc	a5,0x3
    80002578:	6bc78793          	add	a5,a5,1724 # 80005c30 <counters>
    8000257c:	c511                	beqz	a0,80002588 <setStats+0x18>
    8000257e:	e398                	sd	a4,0(a5)
    80002580:	b0202773          	csrr	a4,minstret
    80002584:	e798                	sd	a4,8(a5)
    80002586:	8082                	ret
    80002588:	6394                	ld	a3,0(a5)
    8000258a:	00000617          	auipc	a2,0x0
    8000258e:	50e60613          	add	a2,a2,1294 # 80002a98 <main+0x10a>
    80002592:	eb90                	sd	a2,16(a5)
    80002594:	8f15                	sub	a4,a4,a3
    80002596:	e398                	sd	a4,0(a5)
    80002598:	b0202773          	csrr	a4,minstret
    8000259c:	6794                	ld	a3,8(a5)
    8000259e:	00000617          	auipc	a2,0x0
    800025a2:	50260613          	add	a2,a2,1282 # 80002aa0 <main+0x112>
    800025a6:	ef90                	sd	a2,24(a5)
    800025a8:	8f15                	sub	a4,a4,a3
    800025aa:	e798                	sd	a4,8(a5)
    800025ac:	8082                	ret

00000000800025ae <tohost_exit>:
    800025ae:	00151793          	sll	a5,a0,0x1
    800025b2:	0017e793          	or	a5,a5,1
    800025b6:	fffff717          	auipc	a4,0xfffff
    800025ba:	a4f73523          	sd	a5,-1462(a4) # 80001000 <tohost>
    800025be:	a001                	j	800025be <tohost_exit+0x10>

00000000800025c0 <handle_trap>:
    800025c0:	6785                	lui	a5,0x1
    800025c2:	a7378793          	add	a5,a5,-1421 # a73 <buflen.1+0xa33>
    800025c6:	fffff717          	auipc	a4,0xfffff
    800025ca:	a2f73d23          	sd	a5,-1478(a4) # 80001000 <tohost>
    800025ce:	a001                	j	800025ce <handle_trap+0xe>

00000000800025d0 <exit>:
    800025d0:	1141                	add	sp,sp,-16
    800025d2:	e406                	sd	ra,8(sp)
    800025d4:	fdbff0ef          	jal	800025ae <tohost_exit>

00000000800025d8 <abort>:
    800025d8:	10d00793          	li	a5,269
    800025dc:	fffff717          	auipc	a4,0xfffff
    800025e0:	a2f73223          	sd	a5,-1500(a4) # 80001000 <tohost>
    800025e4:	a001                	j	800025e4 <abort+0xc>

00000000800025e6 <printstr>:
    800025e6:	00054783          	lbu	a5,0(a0)
    800025ea:	7159                	add	sp,sp,-112
    800025ec:	03f10693          	add	a3,sp,63
    800025f0:	fc06f693          	and	a3,a3,-64
    800025f4:	c3b9                	beqz	a5,8000263a <printstr+0x54>
    800025f6:	87aa                	mv	a5,a0
    800025f8:	0017c703          	lbu	a4,1(a5)
    800025fc:	0785                	add	a5,a5,1
    800025fe:	ff6d                	bnez	a4,800025f8 <printstr+0x12>
    80002600:	8f89                	sub	a5,a5,a0
    80002602:	04000713          	li	a4,64
    80002606:	e298                	sd	a4,0(a3)
    80002608:	4705                	li	a4,1
    8000260a:	e698                	sd	a4,8(a3)
    8000260c:	ea88                	sd	a0,16(a3)
    8000260e:	ee9c                	sd	a5,24(a3)
    80002610:	0ff0000f          	fence
    80002614:	fffff717          	auipc	a4,0xfffff
    80002618:	a2c70713          	add	a4,a4,-1492 # 80001040 <fromhost>
    8000261c:	fffff797          	auipc	a5,0xfffff
    80002620:	9ed7b223          	sd	a3,-1564(a5) # 80001000 <tohost>
    80002624:	631c                	ld	a5,0(a4)
    80002626:	dffd                	beqz	a5,80002624 <printstr+0x3e>
    80002628:	fffff797          	auipc	a5,0xfffff
    8000262c:	a007bc23          	sd	zero,-1512(a5) # 80001040 <fromhost>
    80002630:	0ff0000f          	fence
    80002634:	629c                	ld	a5,0(a3)
    80002636:	6165                	add	sp,sp,112
    80002638:	8082                	ret
    8000263a:	4781                	li	a5,0
    8000263c:	b7d9                	j	80002602 <printstr+0x1c>

000000008000263e <thread_entry>:
    8000263e:	c111                	beqz	a0,80002642 <thread_entry+0x4>
    80002640:	a001                	j	80002640 <thread_entry+0x2>
    80002642:	8082                	ret

0000000080002644 <printhex>:
    80002644:	7179                	add	sp,sp,-48
    80002646:	87aa                	mv	a5,a0
    80002648:	f406                	sd	ra,40(sp)
    8000264a:	0028                	add	a0,sp,8
    8000264c:	01710713          	add	a4,sp,23
    80002650:	4825                	li	a6,9
    80002652:	a011                	j	80002656 <printhex+0x12>
    80002654:	8736                	mv	a4,a3
    80002656:	00f7f613          	and	a2,a5,15
    8000265a:	86b2                	mv	a3,a2
    8000265c:	03000593          	li	a1,48
    80002660:	00c87463          	bgeu	a6,a2,80002668 <printhex+0x24>
    80002664:	05700593          	li	a1,87
    80002668:	9ead                	addw	a3,a3,a1
    8000266a:	00d70023          	sb	a3,0(a4)
    8000266e:	8391                	srl	a5,a5,0x4
    80002670:	fff70693          	add	a3,a4,-1
    80002674:	fee510e3          	bne	a0,a4,80002654 <printhex+0x10>
    80002678:	00010c23          	sb	zero,24(sp)
    8000267c:	f6bff0ef          	jal	800025e6 <printstr>
    80002680:	70a2                	ld	ra,40(sp)
    80002682:	6145                	add	sp,sp,48
    80002684:	8082                	ret

0000000080002686 <printf>:
    80002686:	711d                	add	sp,sp,-96
    80002688:	02810313          	add	t1,sp,40
    8000268c:	f42e                	sd	a1,40(sp)
    8000268e:	f832                	sd	a2,48(sp)
    80002690:	fc36                	sd	a3,56(sp)
    80002692:	862a                	mv	a2,a0
    80002694:	869a                	mv	a3,t1
    80002696:	00000517          	auipc	a0,0x0
    8000269a:	e6450513          	add	a0,a0,-412 # 800024fa <putchar>
    8000269e:	4581                	li	a1,0
    800026a0:	ec06                	sd	ra,24(sp)
    800026a2:	e0ba                	sd	a4,64(sp)
    800026a4:	e4be                	sd	a5,72(sp)
    800026a6:	e8c2                	sd	a6,80(sp)
    800026a8:	ecc6                	sd	a7,88(sp)
    800026aa:	e41a                	sd	t1,8(sp)
    800026ac:	b5bff0ef          	jal	80002206 <vprintfmt>
    800026b0:	60e2                	ld	ra,24(sp)
    800026b2:	4501                	li	a0,0
    800026b4:	6125                	add	sp,sp,96
    800026b6:	8082                	ret

00000000800026b8 <sprintf>:
    800026b8:	711d                	add	sp,sp,-96
    800026ba:	03010e13          	add	t3,sp,48
    800026be:	f022                	sd	s0,32(sp)
    800026c0:	e42a                	sd	a0,8(sp)
    800026c2:	842a                	mv	s0,a0
    800026c4:	f832                	sd	a2,48(sp)
    800026c6:	fc36                	sd	a3,56(sp)
    800026c8:	862e                	mv	a2,a1
    800026ca:	00000517          	auipc	a0,0x0
    800026ce:	e2250513          	add	a0,a0,-478 # 800024ec <sprintf_putch.0>
    800026d2:	002c                	add	a1,sp,8
    800026d4:	86f2                	mv	a3,t3
    800026d6:	f406                	sd	ra,40(sp)
    800026d8:	e4be                	sd	a5,72(sp)
    800026da:	e0ba                	sd	a4,64(sp)
    800026dc:	e8c2                	sd	a6,80(sp)
    800026de:	ecc6                	sd	a7,88(sp)
    800026e0:	ec72                	sd	t3,24(sp)
    800026e2:	b25ff0ef          	jal	80002206 <vprintfmt>
    800026e6:	67a2                	ld	a5,8(sp)
    800026e8:	00078023          	sb	zero,0(a5)
    800026ec:	6522                	ld	a0,8(sp)
    800026ee:	70a2                	ld	ra,40(sp)
    800026f0:	9d01                	subw	a0,a0,s0
    800026f2:	7402                	ld	s0,32(sp)
    800026f4:	6125                	add	sp,sp,96
    800026f6:	8082                	ret

00000000800026f8 <memcpy>:
    800026f8:	00c5e7b3          	or	a5,a1,a2
    800026fc:	8fc9                	or	a5,a5,a0
    800026fe:	8b9d                	and	a5,a5,7
    80002700:	00c50833          	add	a6,a0,a2
    80002704:	cf91                	beqz	a5,80002720 <memcpy+0x28>
    80002706:	962e                	add	a2,a2,a1
    80002708:	87aa                	mv	a5,a0
    8000270a:	09057c63          	bgeu	a0,a6,800027a2 <memcpy+0xaa>
    8000270e:	0005c703          	lbu	a4,0(a1)
    80002712:	0585                	add	a1,a1,1
    80002714:	0785                	add	a5,a5,1
    80002716:	fee78fa3          	sb	a4,-1(a5)
    8000271a:	fec59ae3          	bne	a1,a2,8000270e <memcpy+0x16>
    8000271e:	8082                	ret
    80002720:	04050693          	add	a3,a0,64
    80002724:	0906f063          	bgeu	a3,a6,800027a4 <memcpy+0xac>
    80002728:	87b6                	mv	a5,a3
    8000272a:	872e                	mv	a4,a1
    8000272c:	00073383          	ld	t2,0(a4)
    80002730:	00873283          	ld	t0,8(a4)
    80002734:	01073f83          	ld	t6,16(a4)
    80002738:	01873f03          	ld	t5,24(a4)
    8000273c:	02073e83          	ld	t4,32(a4)
    80002740:	02873e03          	ld	t3,40(a4)
    80002744:	03073303          	ld	t1,48(a4)
    80002748:	03873883          	ld	a7,56(a4)
    8000274c:	04078793          	add	a5,a5,64
    80002750:	f877b023          	sd	t2,-128(a5)
    80002754:	f857b423          	sd	t0,-120(a5)
    80002758:	f9f7b823          	sd	t6,-112(a5)
    8000275c:	f9e7bc23          	sd	t5,-104(a5)
    80002760:	fbd7b023          	sd	t4,-96(a5)
    80002764:	fbc7b423          	sd	t3,-88(a5)
    80002768:	fa67b823          	sd	t1,-80(a5)
    8000276c:	fb17bc23          	sd	a7,-72(a5)
    80002770:	04070713          	add	a4,a4,64
    80002774:	fb07ece3          	bltu	a5,a6,8000272c <memcpy+0x34>
    80002778:	fbf60613          	add	a2,a2,-65
    8000277c:	fc067793          	and	a5,a2,-64
    80002780:	04078793          	add	a5,a5,64
    80002784:	fc067613          	and	a2,a2,-64
    80002788:	95be                	add	a1,a1,a5
    8000278a:	00c687b3          	add	a5,a3,a2
    8000278e:	f907f8e3          	bgeu	a5,a6,8000271e <memcpy+0x26>
    80002792:	6198                	ld	a4,0(a1)
    80002794:	07a1                	add	a5,a5,8
    80002796:	05a1                	add	a1,a1,8
    80002798:	fee7bc23          	sd	a4,-8(a5)
    8000279c:	ff07ebe3          	bltu	a5,a6,80002792 <memcpy+0x9a>
    800027a0:	8082                	ret
    800027a2:	8082                	ret
    800027a4:	87aa                	mv	a5,a0
    800027a6:	b7e5                	j	8000278e <memcpy+0x96>

00000000800027a8 <memset>:
    800027a8:	00c567b3          	or	a5,a0,a2
    800027ac:	8b9d                	and	a5,a5,7
    800027ae:	962a                	add	a2,a2,a0
    800027b0:	cf81                	beqz	a5,800027c8 <memset+0x20>
    800027b2:	0ff5f713          	zext.b	a4,a1
    800027b6:	87aa                	mv	a5,a0
    800027b8:	02c57f63          	bgeu	a0,a2,800027f6 <memset+0x4e>
    800027bc:	0785                	add	a5,a5,1
    800027be:	fee78fa3          	sb	a4,-1(a5)
    800027c2:	fec79de3          	bne	a5,a2,800027bc <memset+0x14>
    800027c6:	8082                	ret
    800027c8:	010107b7          	lui	a5,0x1010
    800027cc:	10178793          	add	a5,a5,257 # 1010101 <buflen.1+0x10100c1>
    800027d0:	07c2                	sll	a5,a5,0x10
    800027d2:	10178793          	add	a5,a5,257
    800027d6:	07c2                	sll	a5,a5,0x10
    800027d8:	0ff5f713          	zext.b	a4,a1
    800027dc:	10178793          	add	a5,a5,257
    800027e0:	02f70733          	mul	a4,a4,a5
    800027e4:	fec571e3          	bgeu	a0,a2,800027c6 <memset+0x1e>
    800027e8:	87aa                	mv	a5,a0
    800027ea:	07a1                	add	a5,a5,8
    800027ec:	fee7bc23          	sd	a4,-8(a5)
    800027f0:	fec7ede3          	bltu	a5,a2,800027ea <memset+0x42>
    800027f4:	8082                	ret
    800027f6:	8082                	ret

00000000800027f8 <_init>:
    800027f8:	7171                	add	sp,sp,-176
    800027fa:	00003797          	auipc	a5,0x3
    800027fe:	45678793          	add	a5,a5,1110 # 80005c50 <_tdata_begin>
    80002802:	e152                	sd	s4,128(sp)
    80002804:	00003a17          	auipc	s4,0x3
    80002808:	44ca0a13          	add	s4,s4,1100 # 80005c50 <_tdata_begin>
    8000280c:	e54e                	sd	s3,136(sp)
    8000280e:	40fa09b3          	sub	s3,s4,a5
    80002812:	ed26                	sd	s1,152(sp)
    80002814:	e94a                	sd	s2,144(sp)
    80002816:	84aa                	mv	s1,a0
    80002818:	892e                	mv	s2,a1
    8000281a:	8512                	mv	a0,tp
    8000281c:	85be                	mv	a1,a5
    8000281e:	864e                	mv	a2,s3
    80002820:	f506                	sd	ra,168(sp)
    80002822:	f122                	sd	s0,160(sp)
    80002824:	fcd6                	sd	s5,120(sp)
    80002826:	8a92                	mv	s5,tp
    80002828:	ed1ff0ef          	jal	800026f8 <memcpy>
    8000282c:	89418613          	add	a2,gp,-1900 # 80005cc4 <_tbss_end>
    80002830:	41460633          	sub	a2,a2,s4
    80002834:	4581                	li	a1,0
    80002836:	013a8533          	add	a0,s5,s3
    8000283a:	f6fff0ef          	jal	800027a8 <memset>
    8000283e:	85ca                	mv	a1,s2
    80002840:	8526                	mv	a0,s1
    80002842:	dfdff0ef          	jal	8000263e <thread_entry>
    80002846:	4581                	li	a1,0
    80002848:	4501                	li	a0,0
    8000284a:	144000ef          	jal	8000298e <main>
    8000284e:	00003917          	auipc	s2,0x3
    80002852:	3e290913          	add	s2,s2,994 # 80005c30 <counters>
    80002856:	00093683          	ld	a3,0(s2)
    8000285a:	03f10413          	add	s0,sp,63
    8000285e:	fc047413          	and	s0,s0,-64
    80002862:	84aa                	mv	s1,a0
    80002864:	ea85                	bnez	a3,80002894 <_init+0x9c>
    80002866:	00893683          	ld	a3,8(s2)
    8000286a:	e681                	bnez	a3,80002872 <_init+0x7a>
    8000286c:	8526                	mv	a0,s1
    8000286e:	d41ff0ef          	jal	800025ae <tohost_exit>
    80002872:	89a2                	mv	s3,s0
    80002874:	01893603          	ld	a2,24(s2)
    80002878:	854e                	mv	a0,s3
    8000287a:	00000597          	auipc	a1,0x0
    8000287e:	24e58593          	add	a1,a1,590 # 80002ac8 <main+0x13a>
    80002882:	e37ff0ef          	jal	800026b8 <sprintf>
    80002886:	99aa                	add	s3,s3,a0
    80002888:	ff3402e3          	beq	s0,s3,8000286c <_init+0x74>
    8000288c:	8522                	mv	a0,s0
    8000288e:	d59ff0ef          	jal	800025e6 <printstr>
    80002892:	bfe9                	j	8000286c <_init+0x74>
    80002894:	01093603          	ld	a2,16(s2)
    80002898:	00000597          	auipc	a1,0x0
    8000289c:	23058593          	add	a1,a1,560 # 80002ac8 <main+0x13a>
    800028a0:	8522                	mv	a0,s0
    800028a2:	e17ff0ef          	jal	800026b8 <sprintf>
    800028a6:	00893683          	ld	a3,8(s2)
    800028aa:	00a409b3          	add	s3,s0,a0
    800028ae:	dee9                	beqz	a3,80002888 <_init+0x90>
    800028b0:	b7d1                	j	80002874 <_init+0x7c>

00000000800028b2 <strlen>:
    800028b2:	00054783          	lbu	a5,0(a0)
    800028b6:	cb89                	beqz	a5,800028c8 <strlen+0x16>
    800028b8:	87aa                	mv	a5,a0
    800028ba:	0017c703          	lbu	a4,1(a5)
    800028be:	0785                	add	a5,a5,1
    800028c0:	ff6d                	bnez	a4,800028ba <strlen+0x8>
    800028c2:	40a78533          	sub	a0,a5,a0
    800028c6:	8082                	ret
    800028c8:	4501                	li	a0,0
    800028ca:	8082                	ret

00000000800028cc <strnlen>:
    800028cc:	00b506b3          	add	a3,a0,a1
    800028d0:	87aa                	mv	a5,a0
    800028d2:	e589                	bnez	a1,800028dc <strnlen+0x10>
    800028d4:	a829                	j	800028ee <strnlen+0x22>
    800028d6:	0785                	add	a5,a5,1
    800028d8:	00f68863          	beq	a3,a5,800028e8 <strnlen+0x1c>
    800028dc:	0007c703          	lbu	a4,0(a5)
    800028e0:	fb7d                	bnez	a4,800028d6 <strnlen+0xa>
    800028e2:	40a78533          	sub	a0,a5,a0
    800028e6:	8082                	ret
    800028e8:	40a68533          	sub	a0,a3,a0
    800028ec:	8082                	ret
    800028ee:	4501                	li	a0,0
    800028f0:	8082                	ret

00000000800028f2 <strcmp>:
    800028f2:	00054783          	lbu	a5,0(a0)
    800028f6:	0585                	add	a1,a1,1
    800028f8:	0505                	add	a0,a0,1
    800028fa:	fff5c703          	lbu	a4,-1(a1)
    800028fe:	c799                	beqz	a5,8000290c <strcmp+0x1a>
    80002900:	fee789e3          	beq	a5,a4,800028f2 <strcmp>
    80002904:	0007851b          	sext.w	a0,a5
    80002908:	9d19                	subw	a0,a0,a4
    8000290a:	8082                	ret
    8000290c:	4501                	li	a0,0
    8000290e:	bfed                	j	80002908 <strcmp+0x16>

0000000080002910 <strcpy>:
    80002910:	87aa                	mv	a5,a0
    80002912:	0005c703          	lbu	a4,0(a1)
    80002916:	0785                	add	a5,a5,1
    80002918:	0585                	add	a1,a1,1
    8000291a:	fee78fa3          	sb	a4,-1(a5)
    8000291e:	fb75                	bnez	a4,80002912 <strcpy+0x2>
    80002920:	8082                	ret

0000000080002922 <atol>:
    80002922:	00054703          	lbu	a4,0(a0)
    80002926:	02000693          	li	a3,32
    8000292a:	87aa                	mv	a5,a0
    8000292c:	00d71763          	bne	a4,a3,8000293a <atol+0x18>
    80002930:	0017c703          	lbu	a4,1(a5)
    80002934:	0785                	add	a5,a5,1
    80002936:	fed70de3          	beq	a4,a3,80002930 <atol+0xe>
    8000293a:	02d00693          	li	a3,45
    8000293e:	04d70163          	beq	a4,a3,80002980 <atol+0x5e>
    80002942:	02b00693          	li	a3,43
    80002946:	02d70763          	beq	a4,a3,80002974 <atol+0x52>
    8000294a:	0007c683          	lbu	a3,0(a5)
    8000294e:	4581                	li	a1,0
    80002950:	ce8d                	beqz	a3,8000298a <atol+0x68>
    80002952:	4501                	li	a0,0
    80002954:	0785                	add	a5,a5,1
    80002956:	00251713          	sll	a4,a0,0x2
    8000295a:	fd06861b          	addw	a2,a3,-48
    8000295e:	0007c683          	lbu	a3,0(a5)
    80002962:	972a                	add	a4,a4,a0
    80002964:	0706                	sll	a4,a4,0x1
    80002966:	00e60533          	add	a0,a2,a4
    8000296a:	f6ed                	bnez	a3,80002954 <atol+0x32>
    8000296c:	c185                	beqz	a1,8000298c <atol+0x6a>
    8000296e:	40a00533          	neg	a0,a0
    80002972:	8082                	ret
    80002974:	0017c683          	lbu	a3,1(a5)
    80002978:	0785                	add	a5,a5,1
    8000297a:	ca81                	beqz	a3,8000298a <atol+0x68>
    8000297c:	4581                	li	a1,0
    8000297e:	bfd1                	j	80002952 <atol+0x30>
    80002980:	0017c683          	lbu	a3,1(a5)
    80002984:	4585                	li	a1,1
    80002986:	0785                	add	a5,a5,1
    80002988:	f6e9                	bnez	a3,80002952 <atol+0x30>
    8000298a:	4501                	li	a0,0
    8000298c:	8082                	ret

Disassembly of section .text.startup:

000000008000298e <main>:
    8000298e:	72fd                	lui	t0,0xfffff
    80002990:	7179                	add	sp,sp,-48
    80002992:	6705                	lui	a4,0x1
    80002994:	f406                	sd	ra,40(sp)
    80002996:	f022                	sd	s0,32(sp)
    80002998:	77fd                	lui	a5,0xfffff
    8000299a:	9116                	add	sp,sp,t0
    8000299c:	0741                	add	a4,a4,16 # 1010 <buflen.1+0xfd0>
    8000299e:	973e                	add	a4,a4,a5
    800029a0:	081c                	add	a5,sp,16
    800029a2:	97ba                	add	a5,a5,a4
    800029a4:	6605                	lui	a2,0x1
    800029a6:	4581                	li	a1,0
    800029a8:	853e                	mv	a0,a5
    800029aa:	ec3e                	sd	a5,24(sp)
    800029ac:	dfdff0ef          	jal	800027a8 <memset>
    800029b0:	68e2                	ld	a7,24(sp)
    800029b2:	02000413          	li	s0,32
    800029b6:	02000813          	li	a6,32
    800029ba:	00001797          	auipc	a5,0x1
    800029be:	27678793          	add	a5,a5,630 # 80003c30 <input2_data>
    800029c2:	02000713          	li	a4,32
    800029c6:	00002697          	auipc	a3,0x2
    800029ca:	26a68693          	add	a3,a3,618 # 80004c30 <input1_data>
    800029ce:	02000613          	li	a2,32
    800029d2:	02000593          	li	a1,32
    800029d6:	e022                	sd	s0,0(sp)
    800029d8:	02000513          	li	a0,32
    800029dc:	e24ff0ef          	jal	80002000 <vec_sgemm_nn>
    800029e0:	6562                	ld	a0,24(sp)
    800029e2:	6605                	lui	a2,0x1
    800029e4:	4581                	li	a1,0
    800029e6:	dc3ff0ef          	jal	800027a8 <memset>
    800029ea:	4505                	li	a0,1
    800029ec:	b85ff0ef          	jal	80002570 <setStats>
    800029f0:	68e2                	ld	a7,24(sp)
    800029f2:	00001797          	auipc	a5,0x1
    800029f6:	23e78793          	add	a5,a5,574 # 80003c30 <input2_data>
    800029fa:	02000713          	li	a4,32
    800029fe:	00002697          	auipc	a3,0x2
    80002a02:	23268693          	add	a3,a3,562 # 80004c30 <input1_data>
    80002a06:	02000813          	li	a6,32
    80002a0a:	02000613          	li	a2,32
    80002a0e:	02000593          	li	a1,32
    80002a12:	e022                	sd	s0,0(sp)
    80002a14:	02000513          	li	a0,32
    80002a18:	de8ff0ef          	jal	80002000 <vec_sgemm_nn>
    80002a1c:	4501                	li	a0,0
    80002a1e:	b53ff0ef          	jal	80002570 <setStats>
    80002a22:	67e2                	ld	a5,24(sp)
    80002a24:	00000717          	auipc	a4,0x0
    80002a28:	20c70713          	add	a4,a4,524 # 80002c30 <verify_data>
    80002a2c:	4681                	li	a3,0
    80002a2e:	40000513          	li	a0,1024
    80002a32:	0007a787          	flw	fa5,0(a5)
    80002a36:	00472607          	flw	fa2,4(a4)
    80002a3a:	0047a687          	flw	fa3,4(a5)
    80002a3e:	00072707          	flw	fa4,0(a4)
    80002a42:	07a1                	add	a5,a5,8
    80002a44:	a0d625d3          	feq.s	a1,fa2,fa3
    80002a48:	a0f72653          	feq.s	a2,fa4,fa5
    80002a4c:	0721                	add	a4,a4,8
    80002a4e:	cd81                	beqz	a1,80002a66 <main+0xd8>
    80002a50:	ca19                	beqz	a2,80002a66 <main+0xd8>
    80002a52:	2689                	addw	a3,a3,2
    80002a54:	fca69fe3          	bne	a3,a0,80002a32 <main+0xa4>
    80002a58:	4501                	li	a0,0
    80002a5a:	6285                	lui	t0,0x1
    80002a5c:	9116                	add	sp,sp,t0
    80002a5e:	70a2                	ld	ra,40(sp)
    80002a60:	7402                	ld	s0,32(sp)
    80002a62:	6145                	add	sp,sp,48
    80002a64:	8082                	ret
    80002a66:	2685                	addw	a3,a3,1
    80002a68:	00c6853b          	addw	a0,a3,a2
    80002a6c:	b7fd                	j	80002a5a <main+0xcc>
    80002a6e:	1141                	add	sp,sp,-16
    80002a70:	00000517          	auipc	a0,0x0
    80002a74:	04050513          	add	a0,a0,64 # 80002ab0 <main+0x122>
    80002a78:	e406                	sd	ra,8(sp)
    80002a7a:	b6dff0ef          	jal	800025e6 <printstr>
    80002a7e:	60a2                	ld	ra,8(sp)
    80002a80:	557d                	li	a0,-1
    80002a82:	0141                	add	sp,sp,16
    80002a84:	8082                	ret

Disassembly of section .data:

0000000080002c30 <verify_data>:
    80002c30:	0000                	unimp
    80002c32:	4290                	lw	a2,0(a3)
    80002c34:	0000                	unimp
    80002c36:	4296                	lw	t0,68(sp)
    80002c38:	0000                	unimp
    80002c3a:	42b0                	lw	a2,64(a3)
    80002c3c:	0000                	unimp
    80002c3e:	42ca                	lw	t0,144(sp)
    80002c40:	0000                	unimp
    80002c42:	42a0                	lw	s0,64(a3)
    80002c44:	0000                	unimp
    80002c46:	42b0                	lw	a2,64(a3)
    80002c48:	0000                	unimp
    80002c4a:	4292                	lw	t0,4(sp)
    80002c4c:	0000                	unimp
    80002c4e:	4296                	lw	t0,68(sp)
    80002c50:	0000                	unimp
    80002c52:	42a0                	lw	s0,64(a3)
    80002c54:	0000                	unimp
    80002c56:	42a2                	lw	t0,8(sp)
    80002c58:	0000                	unimp
    80002c5a:	4268                	lw	a0,68(a2)
    80002c5c:	0000                	unimp
    80002c5e:	4296                	lw	t0,68(sp)
    80002c60:	0000                	unimp
    80002c62:	42ac                	lw	a1,64(a3)
    80002c64:	0000                	unimp
    80002c66:	4282                	lw	t0,0(sp)
    80002c68:	0000                	unimp
    80002c6a:	4270                	lw	a2,68(a2)
    80002c6c:	0000                	unimp
    80002c6e:	42a0                	lw	s0,64(a3)
    80002c70:	0000                	unimp
    80002c72:	42a8                	lw	a0,64(a3)
    80002c74:	0000                	unimp
    80002c76:	42a6                	lw	t0,72(sp)
    80002c78:	0000                	unimp
    80002c7a:	42ae                	lw	t0,200(sp)
    80002c7c:	0000                	unimp
    80002c7e:	42a6                	lw	t0,72(sp)
    80002c80:	0000                	unimp
    80002c82:	42d8                	lw	a4,4(a3)
    80002c84:	0000                	unimp
    80002c86:	42ba                	lw	t0,140(sp)
    80002c88:	0000                	unimp
    80002c8a:	42aa                	lw	t0,136(sp)
    80002c8c:	0000                	unimp
    80002c8e:	4298                	lw	a4,0(a3)
    80002c90:	0000                	unimp
    80002c92:	4290                	lw	a2,0(a3)
    80002c94:	0000                	unimp
    80002c96:	42c4                	lw	s1,4(a3)
    80002c98:	0000                	unimp
    80002c9a:	429e                	lw	t0,196(sp)
    80002c9c:	0000                	unimp
    80002c9e:	42ac                	lw	a1,64(a3)
    80002ca0:	0000                	unimp
    80002ca2:	42a0                	lw	s0,64(a3)
    80002ca4:	0000                	unimp
    80002ca6:	42c0                	lw	s0,4(a3)
    80002ca8:	0000                	unimp
    80002caa:	42b6                	lw	t0,76(sp)
    80002cac:	0000                	unimp
    80002cae:	42aa                	lw	t0,136(sp)
    80002cb0:	0000                	unimp
    80002cb2:	4290                	lw	a2,0(a3)
    80002cb4:	0000                	unimp
    80002cb6:	4280                	lw	s0,0(a3)
    80002cb8:	0000                	unimp
    80002cba:	428c                	lw	a1,0(a3)
    80002cbc:	0000                	unimp
    80002cbe:	42a6                	lw	t0,72(sp)
    80002cc0:	0000                	unimp
    80002cc2:	4288                	lw	a0,0(a3)
    80002cc4:	0000                	unimp
    80002cc6:	42b8                	lw	a4,64(a3)
    80002cc8:	0000                	unimp
    80002cca:	424c                	lw	a1,4(a2)
    80002ccc:	0000                	unimp
    80002cce:	4258                	lw	a4,4(a2)
    80002cd0:	0000                	unimp
    80002cd2:	42aa                	lw	t0,136(sp)
    80002cd4:	0000                	unimp
    80002cd6:	42aa                	lw	t0,136(sp)
    80002cd8:	0000                	unimp
    80002cda:	4270                	lw	a2,68(a2)
    80002cdc:	0000                	unimp
    80002cde:	4268                	lw	a0,68(a2)
    80002ce0:	0000                	unimp
    80002ce2:	42b4                	lw	a3,64(a3)
    80002ce4:	0000                	unimp
    80002ce6:	4280                	lw	s0,0(a3)
    80002ce8:	0000                	unimp
    80002cea:	425c                	lw	a5,4(a2)
    80002cec:	0000                	unimp
    80002cee:	428a                	lw	t0,128(sp)
    80002cf0:	0000                	unimp
    80002cf2:	4290                	lw	a2,0(a3)
    80002cf4:	0000                	unimp
    80002cf6:	4240                	lw	s0,4(a2)
    80002cf8:	0000                	unimp
    80002cfa:	42bc                	lw	a5,64(a3)
    80002cfc:	0000                	unimp
    80002cfe:	429a                	lw	t0,132(sp)
    80002d00:	0000                	unimp
    80002d02:	42b6                	lw	t0,76(sp)
    80002d04:	0000                	unimp
    80002d06:	42a6                	lw	t0,72(sp)
    80002d08:	0000                	unimp
    80002d0a:	428c                	lw	a1,0(a3)
    80002d0c:	0000                	unimp
    80002d0e:	428a                	lw	t0,128(sp)
    80002d10:	0000                	unimp
    80002d12:	4286                	lw	t0,64(sp)
    80002d14:	0000                	unimp
    80002d16:	429a                	lw	t0,132(sp)
    80002d18:	0000                	unimp
    80002d1a:	426c                	lw	a1,68(a2)
    80002d1c:	0000                	unimp
    80002d1e:	4248                	lw	a0,4(a2)
    80002d20:	0000                	unimp
    80002d22:	4286                	lw	t0,64(sp)
    80002d24:	0000                	unimp
    80002d26:	4294                	lw	a3,0(a3)
    80002d28:	0000                	unimp
    80002d2a:	429a                	lw	t0,132(sp)
    80002d2c:	0000                	unimp
    80002d2e:	4286                	lw	t0,64(sp)
    80002d30:	0000                	unimp
    80002d32:	4286                	lw	t0,64(sp)
    80002d34:	0000                	unimp
    80002d36:	4278                	lw	a4,68(a2)
    80002d38:	0000                	unimp
    80002d3a:	4290                	lw	a2,0(a3)
    80002d3c:	0000                	unimp
    80002d3e:	428e                	lw	t0,192(sp)
    80002d40:	0000                	unimp
    80002d42:	4288                	lw	a0,0(a3)
    80002d44:	0000                	unimp
    80002d46:	429e                	lw	t0,196(sp)
    80002d48:	0000                	unimp
    80002d4a:	4258                	lw	a4,4(a2)
    80002d4c:	0000                	unimp
    80002d4e:	4274                	lw	a3,68(a2)
    80002d50:	0000                	unimp
    80002d52:	4286                	lw	t0,64(sp)
    80002d54:	0000                	unimp
    80002d56:	4274                	lw	a3,68(a2)
    80002d58:	0000                	unimp
    80002d5a:	425c                	lw	a5,4(a2)
    80002d5c:	0000                	unimp
    80002d5e:	4278                	lw	a4,68(a2)
    80002d60:	0000                	unimp
    80002d62:	429c                	lw	a5,0(a3)
    80002d64:	0000                	unimp
    80002d66:	4270                	lw	a2,68(a2)
    80002d68:	0000                	unimp
    80002d6a:	4254                	lw	a3,4(a2)
    80002d6c:	0000                	unimp
    80002d6e:	4280                	lw	s0,0(a3)
    80002d70:	0000                	unimp
    80002d72:	4286                	lw	t0,64(sp)
    80002d74:	0000                	unimp
    80002d76:	428a                	lw	t0,128(sp)
    80002d78:	0000                	unimp
    80002d7a:	42c6                	lw	t0,80(sp)
    80002d7c:	0000                	unimp
    80002d7e:	4288                	lw	a0,0(a3)
    80002d80:	0000                	unimp
    80002d82:	42b0                	lw	a2,64(a3)
    80002d84:	0000                	unimp
    80002d86:	4270                	lw	a2,68(a2)
    80002d88:	0000                	unimp
    80002d8a:	4284                	lw	s1,0(a3)
    80002d8c:	0000                	unimp
    80002d8e:	427c                	lw	a5,68(a2)
    80002d90:	0000                	unimp
    80002d92:	428c                	lw	a1,0(a3)
    80002d94:	0000                	unimp
    80002d96:	4278                	lw	a4,68(a2)
    80002d98:	0000                	unimp
    80002d9a:	4282                	lw	t0,0(sp)
    80002d9c:	0000                	unimp
    80002d9e:	4248                	lw	a0,4(a2)
    80002da0:	0000                	unimp
    80002da2:	4254                	lw	a3,4(a2)
    80002da4:	0000                	unimp
    80002da6:	4284                	lw	s1,0(a3)
    80002da8:	0000                	unimp
    80002daa:	428c                	lw	a1,0(a3)
    80002dac:	0000                	unimp
    80002dae:	4290                	lw	a2,0(a3)
    80002db0:	0000                	unimp
    80002db2:	4296                	lw	t0,68(sp)
    80002db4:	0000                	unimp
    80002db6:	429c                	lw	a5,0(a3)
    80002db8:	0000                	unimp
    80002dba:	42aa                	lw	t0,136(sp)
    80002dbc:	0000                	unimp
    80002dbe:	42be                	lw	t0,204(sp)
    80002dc0:	0000                	unimp
    80002dc2:	428e                	lw	t0,192(sp)
    80002dc4:	0000                	unimp
    80002dc6:	42b2                	lw	t0,12(sp)
    80002dc8:	0000                	unimp
    80002dca:	428c                	lw	a1,0(a3)
    80002dcc:	0000                	unimp
    80002dce:	4288                	lw	a0,0(a3)
    80002dd0:	0000                	unimp
    80002dd2:	42ac                	lw	a1,64(a3)
    80002dd4:	0000                	unimp
    80002dd6:	42b0                	lw	a2,64(a3)
    80002dd8:	0000                	unimp
    80002dda:	4268                	lw	a0,68(a2)
    80002ddc:	0000                	unimp
    80002dde:	429a                	lw	t0,132(sp)
    80002de0:	0000                	unimp
    80002de2:	42a8                	lw	a0,64(a3)
    80002de4:	0000                	unimp
    80002de6:	428c                	lw	a1,0(a3)
    80002de8:	0000                	unimp
    80002dea:	4282                	lw	t0,0(sp)
    80002dec:	0000                	unimp
    80002dee:	4288                	lw	a0,0(a3)
    80002df0:	0000                	unimp
    80002df2:	4292                	lw	t0,4(sp)
    80002df4:	0000                	unimp
    80002df6:	4296                	lw	t0,68(sp)
    80002df8:	0000                	unimp
    80002dfa:	42b6                	lw	t0,76(sp)
    80002dfc:	0000                	unimp
    80002dfe:	42c0                	lw	s0,4(a3)
    80002e00:	0000                	unimp
    80002e02:	42d2                	lw	t0,20(sp)
    80002e04:	0000                	unimp
    80002e06:	42b8                	lw	a4,64(a3)
    80002e08:	0000                	unimp
    80002e0a:	4298                	lw	a4,0(a3)
    80002e0c:	0000                	unimp
    80002e0e:	4288                	lw	a0,0(a3)
    80002e10:	0000                	unimp
    80002e12:	42ac                	lw	a1,64(a3)
    80002e14:	0000                	unimp
    80002e16:	428a                	lw	t0,128(sp)
    80002e18:	0000                	unimp
    80002e1a:	42a0                	lw	s0,64(a3)
    80002e1c:	0000                	unimp
    80002e1e:	426c                	lw	a1,68(a2)
    80002e20:	0000                	unimp
    80002e22:	4292                	lw	t0,4(sp)
    80002e24:	0000                	unimp
    80002e26:	42a6                	lw	t0,72(sp)
    80002e28:	0000                	unimp
    80002e2a:	42b0                	lw	a2,64(a3)
    80002e2c:	0000                	unimp
    80002e2e:	4296                	lw	t0,68(sp)
    80002e30:	0000                	unimp
    80002e32:	4280                	lw	s0,0(a3)
    80002e34:	0000                	unimp
    80002e36:	427c                	lw	a5,68(a2)
    80002e38:	0000                	unimp
    80002e3a:	428e                	lw	t0,192(sp)
    80002e3c:	0000                	unimp
    80002e3e:	42c6                	lw	t0,80(sp)
    80002e40:	0000                	unimp
    80002e42:	429a                	lw	t0,132(sp)
    80002e44:	0000                	unimp
    80002e46:	429a                	lw	t0,132(sp)
    80002e48:	0000                	unimp
    80002e4a:	428a                	lw	t0,128(sp)
    80002e4c:	0000                	unimp
    80002e4e:	425c                	lw	a5,4(a2)
    80002e50:	0000                	unimp
    80002e52:	42a0                	lw	s0,64(a3)
    80002e54:	0000                	unimp
    80002e56:	4292                	lw	t0,4(sp)
    80002e58:	0000                	unimp
    80002e5a:	4258                	lw	a4,4(a2)
    80002e5c:	0000                	unimp
    80002e5e:	4292                	lw	t0,4(sp)
    80002e60:	0000                	unimp
    80002e62:	42ae                	lw	t0,200(sp)
    80002e64:	0000                	unimp
    80002e66:	429c                	lw	a5,0(a3)
    80002e68:	0000                	unimp
    80002e6a:	4270                	lw	a2,68(a2)
    80002e6c:	0000                	unimp
    80002e6e:	428a                	lw	t0,128(sp)
    80002e70:	0000                	unimp
    80002e72:	4282                	lw	t0,0(sp)
    80002e74:	0000                	unimp
    80002e76:	429c                	lw	a5,0(a3)
    80002e78:	0000                	unimp
    80002e7a:	42ac                	lw	a1,64(a3)
    80002e7c:	0000                	unimp
    80002e7e:	42b2                	lw	t0,12(sp)
    80002e80:	0000                	unimp
    80002e82:	42be                	lw	t0,204(sp)
    80002e84:	0000                	unimp
    80002e86:	42b8                	lw	a4,64(a3)
    80002e88:	0000                	unimp
    80002e8a:	427c                	lw	a5,68(a2)
    80002e8c:	0000                	unimp
    80002e8e:	428a                	lw	t0,128(sp)
    80002e90:	0000                	unimp
    80002e92:	42b2                	lw	t0,12(sp)
    80002e94:	0000                	unimp
    80002e96:	4274                	lw	a3,68(a2)
    80002e98:	0000                	unimp
    80002e9a:	42a0                	lw	s0,64(a3)
    80002e9c:	0000                	unimp
    80002e9e:	4282                	lw	t0,0(sp)
    80002ea0:	0000                	unimp
    80002ea2:	428c                	lw	a1,0(a3)
    80002ea4:	0000                	unimp
    80002ea6:	429a                	lw	t0,132(sp)
    80002ea8:	0000                	unimp
    80002eaa:	42b2                	lw	t0,12(sp)
    80002eac:	0000                	unimp
    80002eae:	429a                	lw	t0,132(sp)
    80002eb0:	0000                	unimp
    80002eb2:	429e                	lw	t0,196(sp)
    80002eb4:	0000                	unimp
    80002eb6:	429e                	lw	t0,196(sp)
    80002eb8:	0000                	unimp
    80002eba:	4292                	lw	t0,4(sp)
    80002ebc:	0000                	unimp
    80002ebe:	42b8                	lw	a4,64(a3)
    80002ec0:	0000                	unimp
    80002ec2:	4280                	lw	s0,0(a3)
    80002ec4:	0000                	unimp
    80002ec6:	42a2                	lw	t0,8(sp)
    80002ec8:	0000                	unimp
    80002eca:	4270                	lw	a2,68(a2)
    80002ecc:	0000                	unimp
    80002ece:	429c                	lw	a5,0(a3)
    80002ed0:	0000                	unimp
    80002ed2:	42a2                	lw	t0,8(sp)
    80002ed4:	0000                	unimp
    80002ed6:	42a0                	lw	s0,64(a3)
    80002ed8:	0000                	unimp
    80002eda:	4274                	lw	a3,68(a2)
    80002edc:	0000                	unimp
    80002ede:	427c                	lw	a5,68(a2)
    80002ee0:	0000                	unimp
    80002ee2:	42b2                	lw	t0,12(sp)
    80002ee4:	0000                	unimp
    80002ee6:	4282                	lw	t0,0(sp)
    80002ee8:	0000                	unimp
    80002eea:	4260                	lw	s0,68(a2)
    80002eec:	0000                	unimp
    80002eee:	42a6                	lw	t0,72(sp)
    80002ef0:	0000                	unimp
    80002ef2:	429a                	lw	t0,132(sp)
    80002ef4:	0000                	unimp
    80002ef6:	4282                	lw	t0,0(sp)
    80002ef8:	0000                	unimp
    80002efa:	42cc                	lw	a1,4(a3)
    80002efc:	0000                	unimp
    80002efe:	428c                	lw	a1,0(a3)
    80002f00:	0000                	unimp
    80002f02:	42c4                	lw	s1,4(a3)
    80002f04:	0000                	unimp
    80002f06:	42ac                	lw	a1,64(a3)
    80002f08:	0000                	unimp
    80002f0a:	42c0                	lw	s0,4(a3)
    80002f0c:	0000                	unimp
    80002f0e:	4288                	lw	a0,0(a3)
    80002f10:	0000                	unimp
    80002f12:	4290                	lw	a2,0(a3)
    80002f14:	0000                	unimp
    80002f16:	42b2                	lw	t0,12(sp)
    80002f18:	0000                	unimp
    80002f1a:	4292                	lw	t0,4(sp)
    80002f1c:	0000                	unimp
    80002f1e:	4292                	lw	t0,4(sp)
    80002f20:	0000                	unimp
    80002f22:	428c                	lw	a1,0(a3)
    80002f24:	0000                	unimp
    80002f26:	42b2                	lw	t0,12(sp)
    80002f28:	0000                	unimp
    80002f2a:	42a8                	lw	a0,64(a3)
    80002f2c:	0000                	unimp
    80002f2e:	4298                	lw	a4,0(a3)
    80002f30:	0000                	unimp
    80002f32:	4240                	lw	s0,4(a2)
    80002f34:	0000                	unimp
    80002f36:	4274                	lw	a3,68(a2)
    80002f38:	0000                	unimp
    80002f3a:	427c                	lw	a5,68(a2)
    80002f3c:	0000                	unimp
    80002f3e:	428c                	lw	a1,0(a3)
    80002f40:	0000                	unimp
    80002f42:	428c                	lw	a1,0(a3)
    80002f44:	0000                	unimp
    80002f46:	429e                	lw	t0,196(sp)
    80002f48:	0000                	unimp
    80002f4a:	4248                	lw	a0,4(a2)
    80002f4c:	0000                	unimp
    80002f4e:	4254                	lw	a3,4(a2)
    80002f50:	0000                	unimp
    80002f52:	4280                	lw	s0,0(a3)
    80002f54:	0000                	unimp
    80002f56:	427c                	lw	a5,68(a2)
    80002f58:	0000                	unimp
    80002f5a:	422c                	lw	a1,64(a2)
    80002f5c:	0000                	unimp
    80002f5e:	424c                	lw	a1,4(a2)
    80002f60:	0000                	unimp
    80002f62:	426c                	lw	a1,68(a2)
    80002f64:	0000                	unimp
    80002f66:	4278                	lw	a4,68(a2)
    80002f68:	0000                	unimp
    80002f6a:	422c                	lw	a1,64(a2)
    80002f6c:	0000                	unimp
    80002f6e:	427c                	lw	a5,68(a2)
    80002f70:	0000                	unimp
    80002f72:	425c                	lw	a5,4(a2)
    80002f74:	0000                	unimp
    80002f76:	429a                	lw	t0,132(sp)
    80002f78:	0000                	unimp
    80002f7a:	429e                	lw	t0,196(sp)
    80002f7c:	0000                	unimp
    80002f7e:	4294                	lw	a3,0(a3)
    80002f80:	0000                	unimp
    80002f82:	4296                	lw	t0,68(sp)
    80002f84:	0000                	unimp
    80002f86:	4294                	lw	a3,0(a3)
    80002f88:	0000                	unimp
    80002f8a:	4280                	lw	s0,0(a3)
    80002f8c:	0000                	unimp
    80002f8e:	4230                	lw	a2,64(a2)
    80002f90:	0000                	unimp
    80002f92:	4282                	lw	t0,0(sp)
    80002f94:	0000                	unimp
    80002f96:	428a                	lw	t0,128(sp)
    80002f98:	0000                	unimp
    80002f9a:	4290                	lw	a2,0(a3)
    80002f9c:	0000                	unimp
    80002f9e:	4284                	lw	s1,0(a3)
    80002fa0:	0000                	unimp
    80002fa2:	4258                	lw	a4,4(a2)
    80002fa4:	0000                	unimp
    80002fa6:	428e                	lw	t0,192(sp)
    80002fa8:	0000                	unimp
    80002faa:	4294                	lw	a3,0(a3)
    80002fac:	0000                	unimp
    80002fae:	4290                	lw	a2,0(a3)
    80002fb0:	0000                	unimp
    80002fb2:	428a                	lw	t0,128(sp)
    80002fb4:	0000                	unimp
    80002fb6:	4298                	lw	a4,0(a3)
    80002fb8:	0000                	unimp
    80002fba:	4288                	lw	a0,0(a3)
    80002fbc:	0000                	unimp
    80002fbe:	42b2                	lw	t0,12(sp)
    80002fc0:	0000                	unimp
    80002fc2:	42bc                	lw	a5,64(a3)
    80002fc4:	0000                	unimp
    80002fc6:	4296                	lw	t0,68(sp)
    80002fc8:	0000                	unimp
    80002fca:	4282                	lw	t0,0(sp)
    80002fcc:	0000                	unimp
    80002fce:	4254                	lw	a3,4(a2)
    80002fd0:	0000                	unimp
    80002fd2:	42aa                	lw	t0,136(sp)
    80002fd4:	0000                	unimp
    80002fd6:	429e                	lw	t0,196(sp)
    80002fd8:	0000                	unimp
    80002fda:	4282                	lw	t0,0(sp)
    80002fdc:	0000                	unimp
    80002fde:	4294                	lw	a3,0(a3)
    80002fe0:	0000                	unimp
    80002fe2:	42a4                	lw	s1,64(a3)
    80002fe4:	0000                	unimp
    80002fe6:	4292                	lw	t0,4(sp)
    80002fe8:	0000                	unimp
    80002fea:	4268                	lw	a0,68(a2)
    80002fec:	0000                	unimp
    80002fee:	428c                	lw	a1,0(a3)
    80002ff0:	0000                	unimp
    80002ff2:	42a8                	lw	a0,64(a3)
    80002ff4:	0000                	unimp
    80002ff6:	429a                	lw	t0,132(sp)
    80002ff8:	0000                	unimp
    80002ffa:	42c6                	lw	t0,80(sp)
    80002ffc:	0000                	unimp
    80002ffe:	4290                	lw	a2,0(a3)
    80003000:	0000                	unimp
    80003002:	42b8                	lw	a4,64(a3)
    80003004:	0000                	unimp
    80003006:	42a8                	lw	a0,64(a3)
    80003008:	0000                	unimp
    8000300a:	429c                	lw	a5,0(a3)
    8000300c:	0000                	unimp
    8000300e:	4278                	lw	a4,68(a2)
    80003010:	0000                	unimp
    80003012:	426c                	lw	a1,68(a2)
    80003014:	0000                	unimp
    80003016:	42a6                	lw	t0,72(sp)
    80003018:	0000                	unimp
    8000301a:	428e                	lw	t0,192(sp)
    8000301c:	0000                	unimp
    8000301e:	4294                	lw	a3,0(a3)
    80003020:	0000                	unimp
    80003022:	427c                	lw	a5,68(a2)
    80003024:	0000                	unimp
    80003026:	42aa                	lw	t0,136(sp)
    80003028:	0000                	unimp
    8000302a:	42a0                	lw	s0,64(a3)
    8000302c:	0000                	unimp
    8000302e:	429c                	lw	a5,0(a3)
    80003030:	0000                	unimp
    80003032:	428e                	lw	t0,192(sp)
    80003034:	0000                	unimp
    80003036:	4290                	lw	a2,0(a3)
    80003038:	0000                	unimp
    8000303a:	429e                	lw	t0,196(sp)
    8000303c:	0000                	unimp
    8000303e:	42a6                	lw	t0,72(sp)
    80003040:	0000                	unimp
    80003042:	4292                	lw	t0,4(sp)
    80003044:	0000                	unimp
    80003046:	42a4                	lw	s1,64(a3)
    80003048:	0000                	unimp
    8000304a:	4270                	lw	a2,68(a2)
    8000304c:	0000                	unimp
    8000304e:	42aa                	lw	t0,136(sp)
    80003050:	0000                	unimp
    80003052:	4298                	lw	a4,0(a3)
    80003054:	0000                	unimp
    80003056:	42a4                	lw	s1,64(a3)
    80003058:	0000                	unimp
    8000305a:	4270                	lw	a2,68(a2)
    8000305c:	0000                	unimp
    8000305e:	428c                	lw	a1,0(a3)
    80003060:	0000                	unimp
    80003062:	42a4                	lw	s1,64(a3)
    80003064:	0000                	unimp
    80003066:	4288                	lw	a0,0(a3)
    80003068:	0000                	unimp
    8000306a:	4258                	lw	a4,4(a2)
    8000306c:	0000                	unimp
    8000306e:	42aa                	lw	t0,136(sp)
    80003070:	0000                	unimp
    80003072:	42a8                	lw	a0,64(a3)
    80003074:	0000                	unimp
    80003076:	428c                	lw	a1,0(a3)
    80003078:	0000                	unimp
    8000307a:	42ac                	lw	a1,64(a3)
    8000307c:	0000                	unimp
    8000307e:	4294                	lw	a3,0(a3)
    80003080:	0000                	unimp
    80003082:	42c8                	lw	a0,4(a3)
    80003084:	0000                	unimp
    80003086:	42b0                	lw	a2,64(a3)
    80003088:	0000                	unimp
    8000308a:	42c4                	lw	s1,4(a3)
    8000308c:	0000                	unimp
    8000308e:	4288                	lw	a0,0(a3)
    80003090:	0000                	unimp
    80003092:	4286                	lw	t0,64(sp)
    80003094:	0000                	unimp
    80003096:	42ae                	lw	t0,200(sp)
    80003098:	0000                	unimp
    8000309a:	428a                	lw	t0,128(sp)
    8000309c:	0000                	unimp
    8000309e:	4292                	lw	t0,4(sp)
    800030a0:	0000                	unimp
    800030a2:	4288                	lw	a0,0(a3)
    800030a4:	0000                	unimp
    800030a6:	42b0                	lw	a2,64(a3)
    800030a8:	0000                	unimp
    800030aa:	4298                	lw	a4,0(a3)
    800030ac:	0000                	unimp
    800030ae:	428e                	lw	t0,192(sp)
    800030b0:	0000                	unimp
    800030b2:	423c                	lw	a5,64(a2)
    800030b4:	0000                	unimp
    800030b6:	422c                	lw	a1,64(a2)
    800030b8:	0000                	unimp
    800030ba:	423c                	lw	a5,64(a2)
    800030bc:	0000                	unimp
    800030be:	42a0                	lw	s0,64(a3)
    800030c0:	0000                	unimp
    800030c2:	4258                	lw	a4,4(a2)
    800030c4:	0000                	unimp
    800030c6:	4282                	lw	t0,0(sp)
    800030c8:	0000                	unimp
    800030ca:	4220                	lw	s0,64(a2)
    800030cc:	0000                	unimp
    800030ce:	4214                	lw	a3,0(a2)
    800030d0:	0000                	unimp
    800030d2:	426c                	lw	a1,68(a2)
    800030d4:	0000                	unimp
    800030d6:	4254                	lw	a3,4(a2)
    800030d8:	0000                	unimp
    800030da:	4204                	lw	s1,0(a2)
    800030dc:	0000                	unimp
    800030de:	4240                	lw	s0,4(a2)
    800030e0:	0000                	unimp
    800030e2:	4278                	lw	a4,68(a2)
    800030e4:	0000                	unimp
    800030e6:	4220                	lw	s0,64(a2)
    800030e8:	0000                	unimp
    800030ea:	4210                	lw	a2,0(a2)
    800030ec:	0000                	unimp
    800030ee:	425c                	lw	a5,4(a2)
    800030f0:	0000                	unimp
    800030f2:	4210                	lw	a2,0(a2)
    800030f4:	0000                	unimp
    800030f6:	4278                	lw	a4,68(a2)
    800030f8:	0000                	unimp
    800030fa:	4254                	lw	a3,4(a2)
    800030fc:	0000                	unimp
    800030fe:	4264                	lw	s1,68(a2)
    80003100:	0000                	unimp
    80003102:	428c                	lw	a1,0(a3)
    80003104:	0000                	unimp
    80003106:	428a                	lw	t0,128(sp)
    80003108:	0000                	unimp
    8000310a:	4234                	lw	a3,64(a2)
    8000310c:	0000                	unimp
    8000310e:	422c                	lw	a1,64(a2)
    80003110:	0000                	unimp
    80003112:	4254                	lw	a3,4(a2)
    80003114:	0000                	unimp
    80003116:	4274                	lw	a3,68(a2)
    80003118:	0000                	unimp
    8000311a:	4228                	lw	a0,64(a2)
    8000311c:	0000                	unimp
    8000311e:	4264                	lw	s1,68(a2)
    80003120:	0000                	unimp
    80003122:	4260                	lw	s0,68(a2)
    80003124:	0000                	unimp
    80003126:	427c                	lw	a5,68(a2)
    80003128:	0000                	unimp
    8000312a:	424c                	lw	a1,4(a2)
    8000312c:	0000                	unimp
    8000312e:	423c                	lw	a5,64(a2)
    80003130:	0000                	unimp
    80003132:	426c                	lw	a1,68(a2)
    80003134:	0000                	unimp
    80003136:	4296                	lw	t0,68(sp)
    80003138:	0000                	unimp
    8000313a:	4280                	lw	s0,0(a3)
    8000313c:	0000                	unimp
    8000313e:	42b2                	lw	t0,12(sp)
    80003140:	0000                	unimp
    80003142:	42a6                	lw	t0,72(sp)
    80003144:	0000                	unimp
    80003146:	4296                	lw	t0,68(sp)
    80003148:	0000                	unimp
    8000314a:	426c                	lw	a1,68(a2)
    8000314c:	0000                	unimp
    8000314e:	4296                	lw	t0,68(sp)
    80003150:	0000                	unimp
    80003152:	42b6                	lw	t0,76(sp)
    80003154:	0000                	unimp
    80003156:	42b8                	lw	a4,64(a3)
    80003158:	0000                	unimp
    8000315a:	4268                	lw	a0,68(a2)
    8000315c:	0000                	unimp
    8000315e:	4280                	lw	s0,0(a3)
    80003160:	0000                	unimp
    80003162:	42a6                	lw	t0,72(sp)
    80003164:	0000                	unimp
    80003166:	4294                	lw	a3,0(a3)
    80003168:	0000                	unimp
    8000316a:	4268                	lw	a0,68(a2)
    8000316c:	0000                	unimp
    8000316e:	4270                	lw	a2,68(a2)
    80003170:	0000                	unimp
    80003172:	4298                	lw	a4,0(a3)
    80003174:	0000                	unimp
    80003176:	4284                	lw	s1,0(a3)
    80003178:	0000                	unimp
    8000317a:	42c2                	lw	t0,16(sp)
    8000317c:	0000                	unimp
    8000317e:	428a                	lw	t0,128(sp)
    80003180:	0000                	unimp
    80003182:	42b4                	lw	a3,64(a3)
    80003184:	0000                	unimp
    80003186:	42be                	lw	t0,204(sp)
    80003188:	0000                	unimp
    8000318a:	42b8                	lw	a4,64(a3)
    8000318c:	0000                	unimp
    8000318e:	4280                	lw	s0,0(a3)
    80003190:	0000                	unimp
    80003192:	429c                	lw	a5,0(a3)
    80003194:	0000                	unimp
    80003196:	4296                	lw	t0,68(sp)
    80003198:	0000                	unimp
    8000319a:	429a                	lw	t0,132(sp)
    8000319c:	0000                	unimp
    8000319e:	4292                	lw	t0,4(sp)
    800031a0:	0000                	unimp
    800031a2:	4282                	lw	t0,0(sp)
    800031a4:	0000                	unimp
    800031a6:	429c                	lw	a5,0(a3)
    800031a8:	0000                	unimp
    800031aa:	42a4                	lw	s1,64(a3)
    800031ac:	0000                	unimp
    800031ae:	4296                	lw	t0,68(sp)
    800031b0:	0000                	unimp
    800031b2:	423c                	lw	a5,64(a2)
    800031b4:	0000                	unimp
    800031b6:	4258                	lw	a4,4(a2)
    800031b8:	0000                	unimp
    800031ba:	426c                	lw	a1,68(a2)
    800031bc:	0000                	unimp
    800031be:	428e                	lw	t0,192(sp)
    800031c0:	0000                	unimp
    800031c2:	426c                	lw	a1,68(a2)
    800031c4:	0000                	unimp
    800031c6:	4260                	lw	s0,68(a2)
    800031c8:	0000                	unimp
    800031ca:	4254                	lw	a3,4(a2)
    800031cc:	0000                	unimp
    800031ce:	4228                	lw	a0,64(a2)
    800031d0:	0000                	unimp
    800031d2:	4270                	lw	a2,68(a2)
    800031d4:	0000                	unimp
    800031d6:	425c                	lw	a5,4(a2)
    800031d8:	0000                	unimp
    800031da:	4220                	lw	s0,64(a2)
    800031dc:	0000                	unimp
    800031de:	424c                	lw	a1,4(a2)
    800031e0:	0000                	unimp
    800031e2:	4270                	lw	a2,68(a2)
    800031e4:	0000                	unimp
    800031e6:	4238                	lw	a4,64(a2)
    800031e8:	0000                	unimp
    800031ea:	4210                	lw	a2,0(a2)
    800031ec:	0000                	unimp
    800031ee:	426c                	lw	a1,68(a2)
    800031f0:	0000                	unimp
    800031f2:	4238                	lw	a4,64(a2)
    800031f4:	0000                	unimp
    800031f6:	4264                	lw	s1,68(a2)
    800031f8:	0000                	unimp
    800031fa:	4286                	lw	t0,64(sp)
    800031fc:	0000                	unimp
    800031fe:	422c                	lw	a1,64(a2)
    80003200:	0000                	unimp
    80003202:	424c                	lw	a1,4(a2)
    80003204:	0000                	unimp
    80003206:	4254                	lw	a3,4(a2)
    80003208:	0000                	unimp
    8000320a:	4254                	lw	a3,4(a2)
    8000320c:	0000                	unimp
    8000320e:	4218                	lw	a4,0(a2)
    80003210:	0000                	unimp
    80003212:	4258                	lw	a4,4(a2)
    80003214:	0000                	unimp
    80003216:	4260                	lw	s0,68(a2)
    80003218:	0000                	unimp
    8000321a:	425c                	lw	a5,4(a2)
    8000321c:	0000                	unimp
    8000321e:	4240                	lw	s0,4(a2)
    80003220:	0000                	unimp
    80003222:	4224                	lw	s1,64(a2)
    80003224:	0000                	unimp
    80003226:	4238                	lw	a4,64(a2)
    80003228:	0000                	unimp
    8000322a:	427c                	lw	a5,68(a2)
    8000322c:	0000                	unimp
    8000322e:	427c                	lw	a5,68(a2)
    80003230:	0000                	unimp
    80003232:	42a0                	lw	s0,64(a3)
    80003234:	0000                	unimp
    80003236:	429a                	lw	t0,132(sp)
    80003238:	0000                	unimp
    8000323a:	42b2                	lw	t0,12(sp)
    8000323c:	0000                	unimp
    8000323e:	42cc                	lw	a1,4(a3)
    80003240:	0000                	unimp
    80003242:	42b2                	lw	t0,12(sp)
    80003244:	0000                	unimp
    80003246:	42c4                	lw	s1,4(a3)
    80003248:	0000                	unimp
    8000324a:	4294                	lw	a3,0(a3)
    8000324c:	0000                	unimp
    8000324e:	42ac                	lw	a1,64(a3)
    80003250:	0000                	unimp
    80003252:	42c4                	lw	s1,4(a3)
    80003254:	0000                	unimp
    80003256:	42ba                	lw	t0,140(sp)
    80003258:	0000                	unimp
    8000325a:	427c                	lw	a5,68(a2)
    8000325c:	0000                	unimp
    8000325e:	4298                	lw	a4,0(a3)
    80003260:	0000                	unimp
    80003262:	42c4                	lw	s1,4(a3)
    80003264:	0000                	unimp
    80003266:	429a                	lw	t0,132(sp)
    80003268:	0000                	unimp
    8000326a:	4240                	lw	s0,4(a2)
    8000326c:	0000                	unimp
    8000326e:	42ca                	lw	t0,144(sp)
    80003270:	0000                	unimp
    80003272:	42ac                	lw	a1,64(a3)
    80003274:	0000                	unimp
    80003276:	42b0                	lw	a2,64(a3)
    80003278:	0000                	unimp
    8000327a:	42c8                	lw	a0,4(a3)
    8000327c:	0000                	unimp
    8000327e:	42a4                	lw	s1,64(a3)
    80003280:	0000                	unimp
    80003282:	42cc                	lw	a1,4(a3)
    80003284:	0000                	unimp
    80003286:	42b4                	lw	a3,64(a3)
    80003288:	0000                	unimp
    8000328a:	42be                	lw	t0,204(sp)
    8000328c:	0000                	unimp
    8000328e:	4296                	lw	t0,68(sp)
    80003290:	0000                	unimp
    80003292:	42ac                	lw	a1,64(a3)
    80003294:	0000                	unimp
    80003296:	42ce                	lw	t0,208(sp)
    80003298:	0000                	unimp
    8000329a:	42a6                	lw	t0,72(sp)
    8000329c:	0000                	unimp
    8000329e:	42c4                	lw	s1,4(a3)
    800032a0:	0000                	unimp
    800032a2:	42a0                	lw	s0,64(a3)
    800032a4:	0000                	unimp
    800032a6:	42d0                	lw	a2,4(a3)
    800032a8:	0000                	unimp
    800032aa:	42c4                	lw	s1,4(a3)
    800032ac:	0000                	unimp
    800032ae:	42ac                	lw	a1,64(a3)
    800032b0:	0000                	unimp
    800032b2:	428e                	lw	t0,192(sp)
    800032b4:	0000                	unimp
    800032b6:	4294                	lw	a3,0(a3)
    800032b8:	0000                	unimp
    800032ba:	42a0                	lw	s0,64(a3)
    800032bc:	0000                	unimp
    800032be:	42b4                	lw	a3,64(a3)
    800032c0:	0000                	unimp
    800032c2:	42ac                	lw	a1,64(a3)
    800032c4:	0000                	unimp
    800032c6:	42ae                	lw	t0,200(sp)
    800032c8:	0000                	unimp
    800032ca:	4292                	lw	t0,4(sp)
    800032cc:	0000                	unimp
    800032ce:	428c                	lw	a1,0(a3)
    800032d0:	0000                	unimp
    800032d2:	42a2                	lw	t0,8(sp)
    800032d4:	0000                	unimp
    800032d6:	42a6                	lw	t0,72(sp)
    800032d8:	0000                	unimp
    800032da:	425c                	lw	a5,4(a2)
    800032dc:	0000                	unimp
    800032de:	4284                	lw	s1,0(a3)
    800032e0:	0000                	unimp
    800032e2:	42b4                	lw	a3,64(a3)
    800032e4:	0000                	unimp
    800032e6:	4284                	lw	s1,0(a3)
    800032e8:	0000                	unimp
    800032ea:	4268                	lw	a0,68(a2)
    800032ec:	0000                	unimp
    800032ee:	42a8                	lw	a0,64(a3)
    800032f0:	0000                	unimp
    800032f2:	429a                	lw	t0,132(sp)
    800032f4:	0000                	unimp
    800032f6:	42a8                	lw	a0,64(a3)
    800032f8:	0000                	unimp
    800032fa:	42ba                	lw	t0,140(sp)
    800032fc:	0000                	unimp
    800032fe:	4290                	lw	a2,0(a3)
    80003300:	0000                	unimp
    80003302:	42c6                	lw	t0,80(sp)
    80003304:	0000                	unimp
    80003306:	4296                	lw	t0,68(sp)
    80003308:	0000                	unimp
    8000330a:	42aa                	lw	t0,136(sp)
    8000330c:	0000                	unimp
    8000330e:	4282                	lw	t0,0(sp)
    80003310:	0000                	unimp
    80003312:	428c                	lw	a1,0(a3)
    80003314:	0000                	unimp
    80003316:	42b2                	lw	t0,12(sp)
    80003318:	0000                	unimp
    8000331a:	428e                	lw	t0,192(sp)
    8000331c:	0000                	unimp
    8000331e:	42a4                	lw	s1,64(a3)
    80003320:	0000                	unimp
    80003322:	4280                	lw	s0,0(a3)
    80003324:	0000                	unimp
    80003326:	429e                	lw	t0,196(sp)
    80003328:	0000                	unimp
    8000332a:	42a4                	lw	s1,64(a3)
    8000332c:	0000                	unimp
    8000332e:	42a0                	lw	s0,64(a3)
    80003330:	0000                	unimp
    80003332:	4286                	lw	t0,64(sp)
    80003334:	0000                	unimp
    80003336:	4292                	lw	t0,4(sp)
    80003338:	0000                	unimp
    8000333a:	42ac                	lw	a1,64(a3)
    8000333c:	0000                	unimp
    8000333e:	42ca                	lw	t0,144(sp)
    80003340:	0000                	unimp
    80003342:	429c                	lw	a5,0(a3)
    80003344:	0000                	unimp
    80003346:	42c2                	lw	t0,16(sp)
    80003348:	0000                	unimp
    8000334a:	4284                	lw	s1,0(a3)
    8000334c:	0000                	unimp
    8000334e:	4280                	lw	s0,0(a3)
    80003350:	0000                	unimp
    80003352:	42a8                	lw	a0,64(a3)
    80003354:	0000                	unimp
    80003356:	42a0                	lw	s0,64(a3)
    80003358:	0000                	unimp
    8000335a:	425c                	lw	a5,4(a2)
    8000335c:	0000                	unimp
    8000335e:	4280                	lw	s0,0(a3)
    80003360:	0000                	unimp
    80003362:	429e                	lw	t0,196(sp)
    80003364:	0000                	unimp
    80003366:	4292                	lw	t0,4(sp)
    80003368:	0000                	unimp
    8000336a:	424c                	lw	a1,4(a2)
    8000336c:	0000                	unimp
    8000336e:	429e                	lw	t0,196(sp)
    80003370:	0000                	unimp
    80003372:	42b2                	lw	t0,12(sp)
    80003374:	0000                	unimp
    80003376:	4288                	lw	a0,0(a3)
    80003378:	0000                	unimp
    8000337a:	42bc                	lw	a5,64(a3)
    8000337c:	0000                	unimp
    8000337e:	429a                	lw	t0,132(sp)
    80003380:	0000                	unimp
    80003382:	42da                	lw	t0,148(sp)
    80003384:	0000                	unimp
    80003386:	42cc                	lw	a1,4(a3)
    80003388:	0000                	unimp
    8000338a:	42a4                	lw	s1,64(a3)
    8000338c:	0000                	unimp
    8000338e:	4274                	lw	a3,68(a2)
    80003390:	0000                	unimp
    80003392:	4284                	lw	s1,0(a3)
    80003394:	0000                	unimp
    80003396:	42ba                	lw	t0,140(sp)
    80003398:	0000                	unimp
    8000339a:	42b0                	lw	a2,64(a3)
    8000339c:	0000                	unimp
    8000339e:	428c                	lw	a1,0(a3)
    800033a0:	0000                	unimp
    800033a2:	42a4                	lw	s1,64(a3)
    800033a4:	0000                	unimp
    800033a6:	42a4                	lw	s1,64(a3)
    800033a8:	0000                	unimp
    800033aa:	42aa                	lw	t0,136(sp)
    800033ac:	0000                	unimp
    800033ae:	428a                	lw	t0,128(sp)
    800033b0:	0000                	unimp
    800033b2:	428a                	lw	t0,128(sp)
    800033b4:	0000                	unimp
    800033b6:	4290                	lw	a2,0(a3)
    800033b8:	0000                	unimp
    800033ba:	4284                	lw	s1,0(a3)
    800033bc:	0000                	unimp
    800033be:	42c2                	lw	t0,16(sp)
    800033c0:	0000                	unimp
    800033c2:	42aa                	lw	t0,136(sp)
    800033c4:	0000                	unimp
    800033c6:	42b4                	lw	a3,64(a3)
    800033c8:	0000                	unimp
    800033ca:	428c                	lw	a1,0(a3)
    800033cc:	0000                	unimp
    800033ce:	426c                	lw	a1,68(a2)
    800033d0:	0000                	unimp
    800033d2:	4298                	lw	a4,0(a3)
    800033d4:	0000                	unimp
    800033d6:	42b2                	lw	t0,12(sp)
    800033d8:	0000                	unimp
    800033da:	4254                	lw	a3,4(a2)
    800033dc:	0000                	unimp
    800033de:	4260                	lw	s0,68(a2)
    800033e0:	0000                	unimp
    800033e2:	42b4                	lw	a3,64(a3)
    800033e4:	0000                	unimp
    800033e6:	429e                	lw	t0,196(sp)
    800033e8:	0000                	unimp
    800033ea:	428e                	lw	t0,192(sp)
    800033ec:	0000                	unimp
    800033ee:	4280                	lw	s0,0(a3)
    800033f0:	0000                	unimp
    800033f2:	428c                	lw	a1,0(a3)
    800033f4:	0000                	unimp
    800033f6:	4286                	lw	t0,64(sp)
    800033f8:	0000                	unimp
    800033fa:	42c8                	lw	a0,4(a3)
    800033fc:	0000                	unimp
    800033fe:	42b8                	lw	a4,64(a3)
    80003400:	0000                	unimp
    80003402:	42d4                	lw	a3,4(a3)
    80003404:	0000                	unimp
    80003406:	42b2                	lw	t0,12(sp)
    80003408:	0000                	unimp
    8000340a:	42a6                	lw	t0,72(sp)
    8000340c:	0000                	unimp
    8000340e:	429c                	lw	a5,0(a3)
    80003410:	0000                	unimp
    80003412:	4292                	lw	t0,4(sp)
    80003414:	0000                	unimp
    80003416:	42a0                	lw	s0,64(a3)
    80003418:	0000                	unimp
    8000341a:	428c                	lw	a1,0(a3)
    8000341c:	0000                	unimp
    8000341e:	4290                	lw	a2,0(a3)
    80003420:	0000                	unimp
    80003422:	4282                	lw	t0,0(sp)
    80003424:	0000                	unimp
    80003426:	428c                	lw	a1,0(a3)
    80003428:	0000                	unimp
    8000342a:	42b8                	lw	a4,64(a3)
    8000342c:	0000                	unimp
    8000342e:	42b0                	lw	a2,64(a3)
    80003430:	0000                	unimp
    80003432:	4264                	lw	s1,68(a2)
    80003434:	0000                	unimp
    80003436:	4298                	lw	a4,0(a3)
    80003438:	0000                	unimp
    8000343a:	425c                	lw	a5,4(a2)
    8000343c:	0000                	unimp
    8000343e:	42aa                	lw	t0,136(sp)
    80003440:	0000                	unimp
    80003442:	4284                	lw	s1,0(a3)
    80003444:	0000                	unimp
    80003446:	42a0                	lw	s0,64(a3)
    80003448:	0000                	unimp
    8000344a:	4274                	lw	a3,68(a2)
    8000344c:	0000                	unimp
    8000344e:	427c                	lw	a5,68(a2)
    80003450:	0000                	unimp
    80003452:	427c                	lw	a5,68(a2)
    80003454:	0000                	unimp
    80003456:	429c                	lw	a5,0(a3)
    80003458:	0000                	unimp
    8000345a:	4258                	lw	a4,4(a2)
    8000345c:	0000                	unimp
    8000345e:	4268                	lw	a0,68(a2)
    80003460:	0000                	unimp
    80003462:	428e                	lw	t0,192(sp)
    80003464:	0000                	unimp
    80003466:	4292                	lw	t0,4(sp)
    80003468:	0000                	unimp
    8000346a:	4258                	lw	a4,4(a2)
    8000346c:	0000                	unimp
    8000346e:	427c                	lw	a5,68(a2)
    80003470:	0000                	unimp
    80003472:	427c                	lw	a5,68(a2)
    80003474:	0000                	unimp
    80003476:	4278                	lw	a4,68(a2)
    80003478:	0000                	unimp
    8000347a:	42b2                	lw	t0,12(sp)
    8000347c:	0000                	unimp
    8000347e:	4298                	lw	a4,0(a3)
    80003480:	0000                	unimp
    80003482:	42ac                	lw	a1,64(a3)
    80003484:	0000                	unimp
    80003486:	42a2                	lw	t0,8(sp)
    80003488:	0000                	unimp
    8000348a:	42a6                	lw	t0,72(sp)
    8000348c:	0000                	unimp
    8000348e:	4258                	lw	a4,4(a2)
    80003490:	0000                	unimp
    80003492:	428c                	lw	a1,0(a3)
    80003494:	0000                	unimp
    80003496:	42a2                	lw	t0,8(sp)
    80003498:	0000                	unimp
    8000349a:	429c                	lw	a5,0(a3)
    8000349c:	0000                	unimp
    8000349e:	4280                	lw	s0,0(a3)
    800034a0:	0000                	unimp
    800034a2:	4260                	lw	s0,68(a2)
    800034a4:	0000                	unimp
    800034a6:	4290                	lw	a2,0(a3)
    800034a8:	0000                	unimp
    800034aa:	4294                	lw	a3,0(a3)
    800034ac:	0000                	unimp
    800034ae:	42a2                	lw	t0,8(sp)
    800034b0:	0000                	unimp
    800034b2:	4296                	lw	t0,68(sp)
    800034b4:	0000                	unimp
    800034b6:	427c                	lw	a5,68(a2)
    800034b8:	0000                	unimp
    800034ba:	4288                	lw	a0,0(a3)
    800034bc:	0000                	unimp
    800034be:	42b2                	lw	t0,12(sp)
    800034c0:	0000                	unimp
    800034c2:	4282                	lw	t0,0(sp)
    800034c4:	0000                	unimp
    800034c6:	429a                	lw	t0,132(sp)
    800034c8:	0000                	unimp
    800034ca:	4268                	lw	a0,68(a2)
    800034cc:	0000                	unimp
    800034ce:	4288                	lw	a0,0(a3)
    800034d0:	0000                	unimp
    800034d2:	4296                	lw	t0,68(sp)
    800034d4:	0000                	unimp
    800034d6:	42a6                	lw	t0,72(sp)
    800034d8:	0000                	unimp
    800034da:	4250                	lw	a2,4(a2)
    800034dc:	0000                	unimp
    800034de:	4278                	lw	a4,68(a2)
    800034e0:	0000                	unimp
    800034e2:	42a4                	lw	s1,64(a3)
    800034e4:	0000                	unimp
    800034e6:	427c                	lw	a5,68(a2)
    800034e8:	0000                	unimp
    800034ea:	425c                	lw	a5,4(a2)
    800034ec:	0000                	unimp
    800034ee:	4296                	lw	t0,68(sp)
    800034f0:	0000                	unimp
    800034f2:	424c                	lw	a1,4(a2)
    800034f4:	0000                	unimp
    800034f6:	428c                	lw	a1,0(a3)
    800034f8:	0000                	unimp
    800034fa:	42be                	lw	t0,204(sp)
    800034fc:	0000                	unimp
    800034fe:	4284                	lw	s1,0(a3)
    80003500:	0000                	unimp
    80003502:	42a6                	lw	t0,72(sp)
    80003504:	0000                	unimp
    80003506:	429a                	lw	t0,132(sp)
    80003508:	0000                	unimp
    8000350a:	42ac                	lw	a1,64(a3)
    8000350c:	0000                	unimp
    8000350e:	4274                	lw	a3,68(a2)
    80003510:	0000                	unimp
    80003512:	4280                	lw	s0,0(a3)
    80003514:	0000                	unimp
    80003516:	429a                	lw	t0,132(sp)
    80003518:	0000                	unimp
    8000351a:	4240                	lw	s0,4(a2)
    8000351c:	0000                	unimp
    8000351e:	428c                	lw	a1,0(a3)
    80003520:	0000                	unimp
    80003522:	4284                	lw	s1,0(a3)
    80003524:	0000                	unimp
    80003526:	42a4                	lw	s1,64(a3)
    80003528:	0000                	unimp
    8000352a:	4290                	lw	a2,0(a3)
    8000352c:	0000                	unimp
    8000352e:	4296                	lw	t0,68(sp)
    80003530:	0000                	unimp
    80003532:	429e                	lw	t0,196(sp)
    80003534:	0000                	unimp
    80003536:	428e                	lw	t0,192(sp)
    80003538:	0000                	unimp
    8000353a:	4290                	lw	a2,0(a3)
    8000353c:	0000                	unimp
    8000353e:	42b2                	lw	t0,12(sp)
    80003540:	0000                	unimp
    80003542:	429c                	lw	a5,0(a3)
    80003544:	0000                	unimp
    80003546:	429c                	lw	a5,0(a3)
    80003548:	0000                	unimp
    8000354a:	4284                	lw	s1,0(a3)
    8000354c:	0000                	unimp
    8000354e:	426c                	lw	a1,68(a2)
    80003550:	0000                	unimp
    80003552:	42b6                	lw	t0,76(sp)
    80003554:	0000                	unimp
    80003556:	42a0                	lw	s0,64(a3)
    80003558:	0000                	unimp
    8000355a:	425c                	lw	a5,4(a2)
    8000355c:	0000                	unimp
    8000355e:	4280                	lw	s0,0(a3)
    80003560:	0000                	unimp
    80003562:	429e                	lw	t0,196(sp)
    80003564:	0000                	unimp
    80003566:	4288                	lw	a0,0(a3)
    80003568:	0000                	unimp
    8000356a:	4258                	lw	a4,4(a2)
    8000356c:	0000                	unimp
    8000356e:	428e                	lw	t0,192(sp)
    80003570:	0000                	unimp
    80003572:	4286                	lw	t0,64(sp)
    80003574:	0000                	unimp
    80003576:	4296                	lw	t0,68(sp)
    80003578:	0000                	unimp
    8000357a:	42ae                	lw	t0,200(sp)
    8000357c:	0000                	unimp
    8000357e:	42a8                	lw	a0,64(a3)
    80003580:	0000                	unimp
    80003582:	42c8                	lw	a0,4(a3)
    80003584:	0000                	unimp
    80003586:	42ca                	lw	t0,144(sp)
    80003588:	0000                	unimp
    8000358a:	4298                	lw	a4,0(a3)
    8000358c:	0000                	unimp
    8000358e:	4268                	lw	a0,68(a2)
    80003590:	0000                	unimp
    80003592:	4294                	lw	a3,0(a3)
    80003594:	0000                	unimp
    80003596:	42a4                	lw	s1,64(a3)
    80003598:	0000                	unimp
    8000359a:	4274                	lw	a3,68(a2)
    8000359c:	0000                	unimp
    8000359e:	4294                	lw	a3,0(a3)
    800035a0:	0000                	unimp
    800035a2:	4296                	lw	t0,68(sp)
    800035a4:	0000                	unimp
    800035a6:	42c2                	lw	t0,16(sp)
    800035a8:	0000                	unimp
    800035aa:	42aa                	lw	t0,136(sp)
    800035ac:	0000                	unimp
    800035ae:	429e                	lw	t0,196(sp)
    800035b0:	0000                	unimp
    800035b2:	4274                	lw	a3,68(a2)
    800035b4:	0000                	unimp
    800035b6:	425c                	lw	a5,4(a2)
    800035b8:	0000                	unimp
    800035ba:	428a                	lw	t0,128(sp)
    800035bc:	0000                	unimp
    800035be:	4288                	lw	a0,0(a3)
    800035c0:	0000                	unimp
    800035c2:	4290                	lw	a2,0(a3)
    800035c4:	0000                	unimp
    800035c6:	4282                	lw	t0,0(sp)
    800035c8:	0000                	unimp
    800035ca:	4250                	lw	a2,4(a2)
    800035cc:	0000                	unimp
    800035ce:	4280                	lw	s0,0(a3)
    800035d0:	0000                	unimp
    800035d2:	42a0                	lw	s0,64(a3)
    800035d4:	0000                	unimp
    800035d6:	4292                	lw	t0,4(sp)
    800035d8:	0000                	unimp
    800035da:	4240                	lw	s0,4(a2)
    800035dc:	0000                	unimp
    800035de:	4258                	lw	a4,4(a2)
    800035e0:	0000                	unimp
    800035e2:	428e                	lw	t0,192(sp)
    800035e4:	0000                	unimp
    800035e6:	4284                	lw	s1,0(a3)
    800035e8:	0000                	unimp
    800035ea:	4228                	lw	a0,64(a2)
    800035ec:	0000                	unimp
    800035ee:	4274                	lw	a3,68(a2)
    800035f0:	0000                	unimp
    800035f2:	4284                	lw	s1,0(a3)
    800035f4:	0000                	unimp
    800035f6:	427c                	lw	a5,68(a2)
    800035f8:	0000                	unimp
    800035fa:	42b8                	lw	a4,64(a3)
    800035fc:	0000                	unimp
    800035fe:	4280                	lw	s0,0(a3)
    80003600:	0000                	unimp
    80003602:	42aa                	lw	t0,136(sp)
    80003604:	0000                	unimp
    80003606:	429a                	lw	t0,132(sp)
    80003608:	0000                	unimp
    8000360a:	4292                	lw	t0,4(sp)
    8000360c:	0000                	unimp
    8000360e:	4258                	lw	a4,4(a2)
    80003610:	0000                	unimp
    80003612:	4294                	lw	a3,0(a3)
    80003614:	0000                	unimp
    80003616:	4292                	lw	t0,4(sp)
    80003618:	0000                	unimp
    8000361a:	4298                	lw	a4,0(a3)
    8000361c:	0000                	unimp
    8000361e:	4284                	lw	s1,0(a3)
    80003620:	0000                	unimp
    80003622:	4278                	lw	a4,68(a2)
    80003624:	0000                	unimp
    80003626:	429e                	lw	t0,196(sp)
    80003628:	0000                	unimp
    8000362a:	42aa                	lw	t0,136(sp)
    8000362c:	0000                	unimp
    8000362e:	428c                	lw	a1,0(a3)
    80003630:	0000                	unimp
    80003632:	428e                	lw	t0,192(sp)
    80003634:	0000                	unimp
    80003636:	42a8                	lw	a0,64(a3)
    80003638:	0000                	unimp
    8000363a:	42ae                	lw	t0,200(sp)
    8000363c:	0000                	unimp
    8000363e:	42a2                	lw	t0,8(sp)
    80003640:	0000                	unimp
    80003642:	42b0                	lw	a2,64(a3)
    80003644:	0000                	unimp
    80003646:	42ac                	lw	a1,64(a3)
    80003648:	0000                	unimp
    8000364a:	429a                	lw	t0,132(sp)
    8000364c:	0000                	unimp
    8000364e:	429a                	lw	t0,132(sp)
    80003650:	0000                	unimp
    80003652:	42ba                	lw	t0,140(sp)
    80003654:	0000                	unimp
    80003656:	42b0                	lw	a2,64(a3)
    80003658:	0000                	unimp
    8000365a:	429c                	lw	a5,0(a3)
    8000365c:	0000                	unimp
    8000365e:	428e                	lw	t0,192(sp)
    80003660:	0000                	unimp
    80003662:	42ca                	lw	t0,144(sp)
    80003664:	0000                	unimp
    80003666:	42b2                	lw	t0,12(sp)
    80003668:	0000                	unimp
    8000366a:	4268                	lw	a0,68(a2)
    8000366c:	0000                	unimp
    8000366e:	42a8                	lw	a0,64(a3)
    80003670:	0000                	unimp
    80003672:	42be                	lw	t0,204(sp)
    80003674:	0000                	unimp
    80003676:	42a2                	lw	t0,8(sp)
    80003678:	0000                	unimp
    8000367a:	42b2                	lw	t0,12(sp)
    8000367c:	0000                	unimp
    8000367e:	42c2                	lw	t0,16(sp)
    80003680:	0000                	unimp
    80003682:	42d0                	lw	a2,4(a3)
    80003684:	0000                	unimp
    80003686:	429e                	lw	t0,196(sp)
    80003688:	0000                	unimp
    8000368a:	42a6                	lw	t0,72(sp)
    8000368c:	0000                	unimp
    8000368e:	4298                	lw	a4,0(a3)
    80003690:	0000                	unimp
    80003692:	42b4                	lw	a3,64(a3)
    80003694:	0000                	unimp
    80003696:	42a2                	lw	t0,8(sp)
    80003698:	0000                	unimp
    8000369a:	42b6                	lw	t0,76(sp)
    8000369c:	0000                	unimp
    8000369e:	4294                	lw	a3,0(a3)
    800036a0:	0000                	unimp
    800036a2:	428c                	lw	a1,0(a3)
    800036a4:	0000                	unimp
    800036a6:	4298                	lw	a4,0(a3)
    800036a8:	0000                	unimp
    800036aa:	42b6                	lw	t0,76(sp)
    800036ac:	0000                	unimp
    800036ae:	42a0                	lw	s0,64(a3)
    800036b0:	0000                	unimp
    800036b2:	424c                	lw	a1,4(a2)
    800036b4:	0000                	unimp
    800036b6:	4240                	lw	s0,4(a2)
    800036b8:	0000                	unimp
    800036ba:	4260                	lw	s0,68(a2)
    800036bc:	0000                	unimp
    800036be:	428a                	lw	t0,128(sp)
    800036c0:	0000                	unimp
    800036c2:	423c                	lw	a5,64(a2)
    800036c4:	0000                	unimp
    800036c6:	427c                	lw	a5,68(a2)
    800036c8:	0000                	unimp
    800036ca:	4258                	lw	a4,4(a2)
    800036cc:	0000                	unimp
    800036ce:	4228                	lw	a0,64(a2)
    800036d0:	0000                	unimp
    800036d2:	427c                	lw	a5,68(a2)
    800036d4:	0000                	unimp
    800036d6:	427c                	lw	a5,68(a2)
    800036d8:	0000                	unimp
    800036da:	4228                	lw	a0,64(a2)
    800036dc:	0000                	unimp
    800036de:	4250                	lw	a2,4(a2)
    800036e0:	0000                	unimp
    800036e2:	4284                	lw	s1,0(a3)
    800036e4:	0000                	unimp
    800036e6:	4260                	lw	s0,68(a2)
    800036e8:	0000                	unimp
    800036ea:	421c                	lw	a5,0(a2)
    800036ec:	0000                	unimp
    800036ee:	426c                	lw	a1,68(a2)
    800036f0:	0000                	unimp
    800036f2:	4274                	lw	a3,68(a2)
    800036f4:	0000                	unimp
    800036f6:	4250                	lw	a2,4(a2)
    800036f8:	0000                	unimp
    800036fa:	426c                	lw	a1,68(a2)
    800036fc:	0000                	unimp
    800036fe:	427c                	lw	a5,68(a2)
    80003700:	0000                	unimp
    80003702:	4278                	lw	a4,68(a2)
    80003704:	0000                	unimp
    80003706:	4288                	lw	a0,0(a3)
    80003708:	0000                	unimp
    8000370a:	4264                	lw	s1,68(a2)
    8000370c:	0000                	unimp
    8000370e:	420c                	lw	a1,0(a2)
    80003710:	0000                	unimp
    80003712:	4286                	lw	t0,64(sp)
    80003714:	0000                	unimp
    80003716:	4268                	lw	a0,68(a2)
    80003718:	0000                	unimp
    8000371a:	4260                	lw	s0,68(a2)
    8000371c:	0000                	unimp
    8000371e:	4250                	lw	a2,4(a2)
    80003720:	0000                	unimp
    80003722:	4274                	lw	a3,68(a2)
    80003724:	0000                	unimp
    80003726:	427c                	lw	a5,68(a2)
    80003728:	0000                	unimp
    8000372a:	4270                	lw	a2,68(a2)
    8000372c:	0000                	unimp
    8000372e:	423c                	lw	a5,64(a2)
    80003730:	0000                	unimp
    80003732:	42aa                	lw	t0,136(sp)
    80003734:	0000                	unimp
    80003736:	4296                	lw	t0,68(sp)
    80003738:	0000                	unimp
    8000373a:	42b2                	lw	t0,12(sp)
    8000373c:	0000                	unimp
    8000373e:	42d4                	lw	a3,4(a3)
    80003740:	0000                	unimp
    80003742:	42b0                	lw	a2,64(a3)
    80003744:	0000                	unimp
    80003746:	42be                	lw	t0,204(sp)
    80003748:	0000                	unimp
    8000374a:	4294                	lw	a3,0(a3)
    8000374c:	0000                	unimp
    8000374e:	42a4                	lw	s1,64(a3)
    80003750:	0000                	unimp
    80003752:	42d6                	lw	t0,84(sp)
    80003754:	0000                	unimp
    80003756:	42d6                	lw	t0,84(sp)
    80003758:	0000                	unimp
    8000375a:	4280                	lw	s0,0(a3)
    8000375c:	0000                	unimp
    8000375e:	429c                	lw	a5,0(a3)
    80003760:	0000                	unimp
    80003762:	42c4                	lw	s1,4(a3)
    80003764:	0000                	unimp
    80003766:	42b4                	lw	a3,64(a3)
    80003768:	0000                	unimp
    8000376a:	4278                	lw	a4,68(a2)
    8000376c:	0000                	unimp
    8000376e:	42b6                	lw	t0,76(sp)
    80003770:	0000                	unimp
    80003772:	429e                	lw	t0,196(sp)
    80003774:	0000                	unimp
    80003776:	42ae                	lw	t0,200(sp)
    80003778:	0000                	unimp
    8000377a:	42de                	lw	t0,212(sp)
    8000377c:	0000                	unimp
    8000377e:	42a8                	lw	a0,64(a3)
    80003780:	0000                	unimp
    80003782:	42d0                	lw	a2,4(a3)
    80003784:	0000                	unimp
    80003786:	42d4                	lw	a3,4(a3)
    80003788:	0000                	unimp
    8000378a:	42c0                	lw	s0,4(a3)
    8000378c:	0000                	unimp
    8000378e:	4288                	lw	a0,0(a3)
    80003790:	0000                	unimp
    80003792:	42bc                	lw	a5,64(a3)
    80003794:	0000                	unimp
    80003796:	42c6                	lw	t0,80(sp)
    80003798:	0000                	unimp
    8000379a:	42a2                	lw	t0,8(sp)
    8000379c:	0000                	unimp
    8000379e:	42b2                	lw	t0,12(sp)
    800037a0:	0000                	unimp
    800037a2:	429e                	lw	t0,196(sp)
    800037a4:	0000                	unimp
    800037a6:	42d2                	lw	t0,20(sp)
    800037a8:	0000                	unimp
    800037aa:	42be                	lw	t0,204(sp)
    800037ac:	0000                	unimp
    800037ae:	42ac                	lw	a1,64(a3)
    800037b0:	0000                	unimp
    800037b2:	4282                	lw	t0,0(sp)
    800037b4:	0000                	unimp
    800037b6:	427c                	lw	a5,68(a2)
    800037b8:	0000                	unimp
    800037ba:	429a                	lw	t0,132(sp)
    800037bc:	0000                	unimp
    800037be:	42b2                	lw	t0,12(sp)
    800037c0:	0000                	unimp
    800037c2:	4284                	lw	s1,0(a3)
    800037c4:	0000                	unimp
    800037c6:	42b0                	lw	a2,64(a3)
    800037c8:	0000                	unimp
    800037ca:	4260                	lw	s0,68(a2)
    800037cc:	0000                	unimp
    800037ce:	4292                	lw	t0,4(sp)
    800037d0:	0000                	unimp
    800037d2:	42a4                	lw	s1,64(a3)
    800037d4:	0000                	unimp
    800037d6:	42b8                	lw	a4,64(a3)
    800037d8:	0000                	unimp
    800037da:	4224                	lw	s1,64(a2)
    800037dc:	0000                	unimp
    800037de:	4278                	lw	a4,68(a2)
    800037e0:	0000                	unimp
    800037e2:	42aa                	lw	t0,136(sp)
    800037e4:	0000                	unimp
    800037e6:	4284                	lw	s1,0(a3)
    800037e8:	0000                	unimp
    800037ea:	4248                	lw	a0,4(a2)
    800037ec:	0000                	unimp
    800037ee:	42a2                	lw	t0,8(sp)
    800037f0:	0000                	unimp
    800037f2:	4264                	lw	s1,68(a2)
    800037f4:	0000                	unimp
    800037f6:	428e                	lw	t0,192(sp)
    800037f8:	0000                	unimp
    800037fa:	429a                	lw	t0,132(sp)
    800037fc:	0000                	unimp
    800037fe:	429c                	lw	a5,0(a3)
    80003800:	0000                	unimp
    80003802:	42ac                	lw	a1,64(a3)
    80003804:	0000                	unimp
    80003806:	42b2                	lw	t0,12(sp)
    80003808:	0000                	unimp
    8000380a:	429a                	lw	t0,132(sp)
    8000380c:	0000                	unimp
    8000380e:	4254                	lw	a3,4(a2)
    80003810:	0000                	unimp
    80003812:	4286                	lw	t0,64(sp)
    80003814:	0000                	unimp
    80003816:	429c                	lw	a5,0(a3)
    80003818:	0000                	unimp
    8000381a:	4274                	lw	a3,68(a2)
    8000381c:	0000                	unimp
    8000381e:	427c                	lw	a5,68(a2)
    80003820:	0000                	unimp
    80003822:	4290                	lw	a2,0(a3)
    80003824:	0000                	unimp
    80003826:	42a4                	lw	s1,64(a3)
    80003828:	0000                	unimp
    8000382a:	428a                	lw	t0,128(sp)
    8000382c:	0000                	unimp
    8000382e:	4284                	lw	s1,0(a3)
    80003830:	0000                	unimp
    80003832:	426c                	lw	a1,68(a2)
    80003834:	0000                	unimp
    80003836:	4238                	lw	a4,64(a2)
    80003838:	0000                	unimp
    8000383a:	425c                	lw	a5,4(a2)
    8000383c:	0000                	unimp
    8000383e:	428c                	lw	a1,0(a3)
    80003840:	0000                	unimp
    80003842:	4260                	lw	s0,68(a2)
    80003844:	0000                	unimp
    80003846:	4280                	lw	s0,0(a3)
    80003848:	0000                	unimp
    8000384a:	4234                	lw	a3,64(a2)
    8000384c:	0000                	unimp
    8000384e:	4248                	lw	a0,4(a2)
    80003850:	0000                	unimp
    80003852:	4282                	lw	t0,0(sp)
    80003854:	0000                	unimp
    80003856:	4280                	lw	s0,0(a3)
    80003858:	0000                	unimp
    8000385a:	4228                	lw	a0,64(a2)
    8000385c:	0000                	unimp
    8000385e:	4260                	lw	s0,68(a2)
    80003860:	0000                	unimp
    80003862:	429c                	lw	a5,0(a3)
    80003864:	0000                	unimp
    80003866:	4244                	lw	s1,4(a2)
    80003868:	0000                	unimp
    8000386a:	424c                	lw	a1,4(a2)
    8000386c:	0000                	unimp
    8000386e:	4250                	lw	a2,4(a2)
    80003870:	0000                	unimp
    80003872:	4218                	lw	a4,0(a2)
    80003874:	0000                	unimp
    80003876:	4260                	lw	s0,68(a2)
    80003878:	0000                	unimp
    8000387a:	4290                	lw	a2,0(a3)
    8000387c:	0000                	unimp
    8000387e:	425c                	lw	a5,4(a2)
    80003880:	0000                	unimp
    80003882:	4292                	lw	t0,4(sp)
    80003884:	0000                	unimp
    80003886:	4290                	lw	a2,0(a3)
    80003888:	0000                	unimp
    8000388a:	4274                	lw	a3,68(a2)
    8000388c:	0000                	unimp
    8000388e:	4248                	lw	a0,4(a2)
    80003890:	0000                	unimp
    80003892:	427c                	lw	a5,68(a2)
    80003894:	0000                	unimp
    80003896:	4270                	lw	a2,68(a2)
    80003898:	0000                	unimp
    8000389a:	423c                	lw	a5,64(a2)
    8000389c:	0000                	unimp
    8000389e:	4264                	lw	s1,68(a2)
    800038a0:	0000                	unimp
    800038a2:	425c                	lw	a5,4(a2)
    800038a4:	0000                	unimp
    800038a6:	4292                	lw	t0,4(sp)
    800038a8:	0000                	unimp
    800038aa:	4254                	lw	a3,4(a2)
    800038ac:	0000                	unimp
    800038ae:	4288                	lw	a0,0(a3)
    800038b0:	0000                	unimp
    800038b2:	42aa                	lw	t0,136(sp)
    800038b4:	0000                	unimp
    800038b6:	42b0                	lw	a2,64(a3)
    800038b8:	0000                	unimp
    800038ba:	42b6                	lw	t0,76(sp)
    800038bc:	0000                	unimp
    800038be:	42c0                	lw	s0,4(a3)
    800038c0:	0000                	unimp
    800038c2:	42a4                	lw	s1,64(a3)
    800038c4:	0000                	unimp
    800038c6:	42b2                	lw	t0,12(sp)
    800038c8:	0000                	unimp
    800038ca:	4292                	lw	t0,4(sp)
    800038cc:	0000                	unimp
    800038ce:	4298                	lw	a4,0(a3)
    800038d0:	0000                	unimp
    800038d2:	42ae                	lw	t0,200(sp)
    800038d4:	0000                	unimp
    800038d6:	42ac                	lw	a1,64(a3)
    800038d8:	0000                	unimp
    800038da:	4286                	lw	t0,64(sp)
    800038dc:	0000                	unimp
    800038de:	428a                	lw	t0,128(sp)
    800038e0:	0000                	unimp
    800038e2:	42c0                	lw	s0,4(a3)
    800038e4:	0000                	unimp
    800038e6:	42a8                	lw	a0,64(a3)
    800038e8:	0000                	unimp
    800038ea:	4264                	lw	s1,68(a2)
    800038ec:	0000                	unimp
    800038ee:	42b2                	lw	t0,12(sp)
    800038f0:	0000                	unimp
    800038f2:	42ae                	lw	t0,200(sp)
    800038f4:	0000                	unimp
    800038f6:	42b2                	lw	t0,12(sp)
    800038f8:	0000                	unimp
    800038fa:	42c6                	lw	t0,80(sp)
    800038fc:	0000                	unimp
    800038fe:	42b0                	lw	a2,64(a3)
    80003900:	0000                	unimp
    80003902:	42d0                	lw	a2,4(a3)
    80003904:	0000                	unimp
    80003906:	42b4                	lw	a3,64(a3)
    80003908:	0000                	unimp
    8000390a:	42aa                	lw	t0,136(sp)
    8000390c:	0000                	unimp
    8000390e:	4296                	lw	t0,68(sp)
    80003910:	0000                	unimp
    80003912:	42b0                	lw	a2,64(a3)
    80003914:	0000                	unimp
    80003916:	42b8                	lw	a4,64(a3)
    80003918:	0000                	unimp
    8000391a:	42aa                	lw	t0,136(sp)
    8000391c:	0000                	unimp
    8000391e:	4296                	lw	t0,68(sp)
    80003920:	0000                	unimp
    80003922:	4294                	lw	a3,0(a3)
    80003924:	0000                	unimp
    80003926:	42ae                	lw	t0,200(sp)
    80003928:	0000                	unimp
    8000392a:	42ce                	lw	t0,208(sp)
    8000392c:	0000                	unimp
    8000392e:	42bc                	lw	a5,64(a3)
    80003930:	0000                	unimp
    80003932:	425c                	lw	a5,4(a2)
    80003934:	0000                	unimp
    80003936:	4240                	lw	s0,4(a2)
    80003938:	0000                	unimp
    8000393a:	4260                	lw	s0,68(a2)
    8000393c:	0000                	unimp
    8000393e:	4282                	lw	t0,0(sp)
    80003940:	0000                	unimp
    80003942:	4290                	lw	a2,0(a3)
    80003944:	0000                	unimp
    80003946:	4248                	lw	a0,4(a2)
    80003948:	0000                	unimp
    8000394a:	4234                	lw	a3,64(a2)
    8000394c:	0000                	unimp
    8000394e:	424c                	lw	a1,4(a2)
    80003950:	0000                	unimp
    80003952:	427c                	lw	a5,68(a2)
    80003954:	0000                	unimp
    80003956:	4278                	lw	a4,68(a2)
    80003958:	0000                	unimp
    8000395a:	423c                	lw	a5,64(a2)
    8000395c:	0000                	unimp
    8000395e:	4264                	lw	s1,68(a2)
    80003960:	0000                	unimp
    80003962:	429e                	lw	t0,196(sp)
    80003964:	0000                	unimp
    80003966:	4254                	lw	a3,4(a2)
    80003968:	0000                	unimp
    8000396a:	4210                	lw	a2,0(a2)
    8000396c:	0000                	unimp
    8000396e:	427c                	lw	a5,68(a2)
    80003970:	0000                	unimp
    80003972:	4258                	lw	a4,4(a2)
    80003974:	0000                	unimp
    80003976:	4288                	lw	a0,0(a3)
    80003978:	0000                	unimp
    8000397a:	428e                	lw	t0,192(sp)
    8000397c:	0000                	unimp
    8000397e:	426c                	lw	a1,68(a2)
    80003980:	0000                	unimp
    80003982:	427c                	lw	a5,68(a2)
    80003984:	0000                	unimp
    80003986:	4274                	lw	a3,68(a2)
    80003988:	0000                	unimp
    8000398a:	427c                	lw	a5,68(a2)
    8000398c:	0000                	unimp
    8000398e:	4224                	lw	s1,64(a2)
    80003990:	0000                	unimp
    80003992:	4248                	lw	a0,4(a2)
    80003994:	0000                	unimp
    80003996:	4292                	lw	t0,4(sp)
    80003998:	0000                	unimp
    8000399a:	4264                	lw	s1,68(a2)
    8000399c:	0000                	unimp
    8000399e:	426c                	lw	a1,68(a2)
    800039a0:	0000                	unimp
    800039a2:	4260                	lw	s0,68(a2)
    800039a4:	0000                	unimp
    800039a6:	4298                	lw	a4,0(a3)
    800039a8:	0000                	unimp
    800039aa:	4292                	lw	t0,4(sp)
    800039ac:	0000                	unimp
    800039ae:	4282                	lw	t0,0(sp)
    800039b0:	0000                	unimp
    800039b2:	4274                	lw	a3,68(a2)
    800039b4:	0000                	unimp
    800039b6:	4280                	lw	s0,0(a3)
    800039b8:	0000                	unimp
    800039ba:	4274                	lw	a3,68(a2)
    800039bc:	0000                	unimp
    800039be:	429e                	lw	t0,196(sp)
    800039c0:	0000                	unimp
    800039c2:	4254                	lw	a3,4(a2)
    800039c4:	0000                	unimp
    800039c6:	4292                	lw	t0,4(sp)
    800039c8:	0000                	unimp
    800039ca:	4264                	lw	s1,68(a2)
    800039cc:	0000                	unimp
    800039ce:	4230                	lw	a2,64(a2)
    800039d0:	0000                	unimp
    800039d2:	4274                	lw	a3,68(a2)
    800039d4:	0000                	unimp
    800039d6:	426c                	lw	a1,68(a2)
    800039d8:	0000                	unimp
    800039da:	426c                	lw	a1,68(a2)
    800039dc:	0000                	unimp
    800039de:	4260                	lw	s0,68(a2)
    800039e0:	0000                	unimp
    800039e2:	42a2                	lw	t0,8(sp)
    800039e4:	0000                	unimp
    800039e6:	426c                	lw	a1,68(a2)
    800039e8:	0000                	unimp
    800039ea:	4244                	lw	s1,4(a2)
    800039ec:	0000                	unimp
    800039ee:	4278                	lw	a4,68(a2)
    800039f0:	0000                	unimp
    800039f2:	4282                	lw	t0,0(sp)
    800039f4:	0000                	unimp
    800039f6:	425c                	lw	a5,4(a2)
    800039f8:	0000                	unimp
    800039fa:	428a                	lw	t0,128(sp)
    800039fc:	0000                	unimp
    800039fe:	4290                	lw	a2,0(a3)
    80003a00:	0000                	unimp
    80003a02:	429e                	lw	t0,196(sp)
    80003a04:	0000                	unimp
    80003a06:	428c                	lw	a1,0(a3)
    80003a08:	0000                	unimp
    80003a0a:	4268                	lw	a0,68(a2)
    80003a0c:	0000                	unimp
    80003a0e:	4264                	lw	s1,68(a2)
    80003a10:	0000                	unimp
    80003a12:	4288                	lw	a0,0(a3)
    80003a14:	0000                	unimp
    80003a16:	4274                	lw	a3,68(a2)
    80003a18:	0000                	unimp
    80003a1a:	4278                	lw	a4,68(a2)
    80003a1c:	0000                	unimp
    80003a1e:	4248                	lw	a0,4(a2)
    80003a20:	0000                	unimp
    80003a22:	4264                	lw	s1,68(a2)
    80003a24:	0000                	unimp
    80003a26:	4270                	lw	a2,68(a2)
    80003a28:	0000                	unimp
    80003a2a:	4284                	lw	s1,0(a3)
    80003a2c:	0000                	unimp
    80003a2e:	4284                	lw	s1,0(a3)
    80003a30:	0000                	unimp
    80003a32:	427c                	lw	a5,68(a2)
    80003a34:	0000                	unimp
    80003a36:	429a                	lw	t0,132(sp)
    80003a38:	0000                	unimp
    80003a3a:	42a2                	lw	t0,8(sp)
    80003a3c:	0000                	unimp
    80003a3e:	42b2                	lw	t0,12(sp)
    80003a40:	0000                	unimp
    80003a42:	42aa                	lw	t0,136(sp)
    80003a44:	0000                	unimp
    80003a46:	42a2                	lw	t0,8(sp)
    80003a48:	0000                	unimp
    80003a4a:	4298                	lw	a4,0(a3)
    80003a4c:	0000                	unimp
    80003a4e:	4292                	lw	t0,4(sp)
    80003a50:	0000                	unimp
    80003a52:	429c                	lw	a5,0(a3)
    80003a54:	0000                	unimp
    80003a56:	42be                	lw	t0,204(sp)
    80003a58:	0000                	unimp
    80003a5a:	426c                	lw	a1,68(a2)
    80003a5c:	0000                	unimp
    80003a5e:	428c                	lw	a1,0(a3)
    80003a60:	0000                	unimp
    80003a62:	42a2                	lw	t0,8(sp)
    80003a64:	0000                	unimp
    80003a66:	429a                	lw	t0,132(sp)
    80003a68:	0000                	unimp
    80003a6a:	4238                	lw	a4,64(a2)
    80003a6c:	0000                	unimp
    80003a6e:	429e                	lw	t0,196(sp)
    80003a70:	0000                	unimp
    80003a72:	429c                	lw	a5,0(a3)
    80003a74:	0000                	unimp
    80003a76:	429e                	lw	t0,196(sp)
    80003a78:	0000                	unimp
    80003a7a:	42a6                	lw	t0,72(sp)
    80003a7c:	0000                	unimp
    80003a7e:	42a2                	lw	t0,8(sp)
    80003a80:	0000                	unimp
    80003a82:	42a8                	lw	a0,64(a3)
    80003a84:	0000                	unimp
    80003a86:	42a4                	lw	s1,64(a3)
    80003a88:	0000                	unimp
    80003a8a:	42aa                	lw	t0,136(sp)
    80003a8c:	0000                	unimp
    80003a8e:	4240                	lw	s0,4(a2)
    80003a90:	0000                	unimp
    80003a92:	4294                	lw	a3,0(a3)
    80003a94:	0000                	unimp
    80003a96:	42aa                	lw	t0,136(sp)
    80003a98:	0000                	unimp
    80003a9a:	42aa                	lw	t0,136(sp)
    80003a9c:	0000                	unimp
    80003a9e:	4294                	lw	a3,0(a3)
    80003aa0:	0000                	unimp
    80003aa2:	4294                	lw	a3,0(a3)
    80003aa4:	0000                	unimp
    80003aa6:	42a0                	lw	s0,64(a3)
    80003aa8:	0000                	unimp
    80003aaa:	42a0                	lw	s0,64(a3)
    80003aac:	0000                	unimp
    80003aae:	4294                	lw	a3,0(a3)
    80003ab0:	0000                	unimp
    80003ab2:	4270                	lw	a2,68(a2)
    80003ab4:	0000                	unimp
    80003ab6:	4298                	lw	a4,0(a3)
    80003ab8:	0000                	unimp
    80003aba:	42a0                	lw	s0,64(a3)
    80003abc:	0000                	unimp
    80003abe:	42c2                	lw	t0,16(sp)
    80003ac0:	0000                	unimp
    80003ac2:	42b0                	lw	a2,64(a3)
    80003ac4:	0000                	unimp
    80003ac6:	42ba                	lw	t0,140(sp)
    80003ac8:	0000                	unimp
    80003aca:	4284                	lw	s1,0(a3)
    80003acc:	0000                	unimp
    80003ace:	4284                	lw	s1,0(a3)
    80003ad0:	0000                	unimp
    80003ad2:	4292                	lw	t0,4(sp)
    80003ad4:	0000                	unimp
    80003ad6:	42a8                	lw	a0,64(a3)
    80003ad8:	0000                	unimp
    80003ada:	4260                	lw	s0,68(a2)
    80003adc:	0000                	unimp
    80003ade:	428c                	lw	a1,0(a3)
    80003ae0:	0000                	unimp
    80003ae2:	42b4                	lw	a3,64(a3)
    80003ae4:	0000                	unimp
    80003ae6:	427c                	lw	a5,68(a2)
    80003ae8:	0000                	unimp
    80003aea:	4268                	lw	a0,68(a2)
    80003aec:	0000                	unimp
    80003aee:	429c                	lw	a5,0(a3)
    80003af0:	0000                	unimp
    80003af2:	4292                	lw	t0,4(sp)
    80003af4:	0000                	unimp
    80003af6:	42ba                	lw	t0,140(sp)
    80003af8:	0000                	unimp
    80003afa:	42b4                	lw	a3,64(a3)
    80003afc:	0000                	unimp
    80003afe:	429c                	lw	a5,0(a3)
    80003b00:	0000                	unimp
    80003b02:	42bc                	lw	a5,64(a3)
    80003b04:	0000                	unimp
    80003b06:	42b0                	lw	a2,64(a3)
    80003b08:	0000                	unimp
    80003b0a:	42a4                	lw	s1,64(a3)
    80003b0c:	0000                	unimp
    80003b0e:	4286                	lw	t0,64(sp)
    80003b10:	0000                	unimp
    80003b12:	42aa                	lw	t0,136(sp)
    80003b14:	0000                	unimp
    80003b16:	428c                	lw	a1,0(a3)
    80003b18:	0000                	unimp
    80003b1a:	42a2                	lw	t0,8(sp)
    80003b1c:	0000                	unimp
    80003b1e:	42ac                	lw	a1,64(a3)
    80003b20:	0000                	unimp
    80003b22:	4294                	lw	a3,0(a3)
    80003b24:	0000                	unimp
    80003b26:	42a4                	lw	s1,64(a3)
    80003b28:	0000                	unimp
    80003b2a:	42b0                	lw	a2,64(a3)
    80003b2c:	0000                	unimp
    80003b2e:	42a4                	lw	s1,64(a3)
    80003b30:	0000                	unimp
    80003b32:	4288                	lw	a0,0(a3)
    80003b34:	0000                	unimp
    80003b36:	4292                	lw	t0,4(sp)
    80003b38:	0000                	unimp
    80003b3a:	4296                	lw	t0,68(sp)
    80003b3c:	0000                	unimp
    80003b3e:	42b6                	lw	t0,76(sp)
    80003b40:	0000                	unimp
    80003b42:	429c                	lw	a5,0(a3)
    80003b44:	0000                	unimp
    80003b46:	42c2                	lw	t0,16(sp)
    80003b48:	0000                	unimp
    80003b4a:	428e                	lw	t0,192(sp)
    80003b4c:	0000                	unimp
    80003b4e:	4284                	lw	s1,0(a3)
    80003b50:	0000                	unimp
    80003b52:	4294                	lw	a3,0(a3)
    80003b54:	0000                	unimp
    80003b56:	42aa                	lw	t0,136(sp)
    80003b58:	0000                	unimp
    80003b5a:	4248                	lw	a0,4(a2)
    80003b5c:	0000                	unimp
    80003b5e:	426c                	lw	a1,68(a2)
    80003b60:	0000                	unimp
    80003b62:	42ac                	lw	a1,64(a3)
    80003b64:	0000                	unimp
    80003b66:	429a                	lw	t0,132(sp)
    80003b68:	0000                	unimp
    80003b6a:	428c                	lw	a1,0(a3)
    80003b6c:	0000                	unimp
    80003b6e:	4294                	lw	a3,0(a3)
    80003b70:	0000                	unimp
    80003b72:	4296                	lw	t0,68(sp)
    80003b74:	0000                	unimp
    80003b76:	4294                	lw	a3,0(a3)
    80003b78:	0000                	unimp
    80003b7a:	42c6                	lw	t0,80(sp)
    80003b7c:	0000                	unimp
    80003b7e:	42a4                	lw	s1,64(a3)
    80003b80:	0000                	unimp
    80003b82:	42c6                	lw	t0,80(sp)
    80003b84:	0000                	unimp
    80003b86:	42b6                	lw	t0,76(sp)
    80003b88:	0000                	unimp
    80003b8a:	42ac                	lw	a1,64(a3)
    80003b8c:	0000                	unimp
    80003b8e:	4282                	lw	t0,0(sp)
    80003b90:	0000                	unimp
    80003b92:	42a0                	lw	s0,64(a3)
    80003b94:	0000                	unimp
    80003b96:	429a                	lw	t0,132(sp)
    80003b98:	0000                	unimp
    80003b9a:	4290                	lw	a2,0(a3)
    80003b9c:	0000                	unimp
    80003b9e:	428a                	lw	t0,128(sp)
    80003ba0:	0000                	unimp
    80003ba2:	4270                	lw	a2,68(a2)
    80003ba4:	0000                	unimp
    80003ba6:	429c                	lw	a5,0(a3)
    80003ba8:	0000                	unimp
    80003baa:	42b4                	lw	a3,64(a3)
    80003bac:	0000                	unimp
    80003bae:	42ae                	lw	t0,200(sp)
    80003bb0:	0000                	unimp
    80003bb2:	429e                	lw	t0,196(sp)
    80003bb4:	0000                	unimp
    80003bb6:	428a                	lw	t0,128(sp)
    80003bb8:	0000                	unimp
    80003bba:	4294                	lw	a3,0(a3)
    80003bbc:	0000                	unimp
    80003bbe:	42c4                	lw	s1,4(a3)
    80003bc0:	0000                	unimp
    80003bc2:	428c                	lw	a1,0(a3)
    80003bc4:	0000                	unimp
    80003bc6:	42ac                	lw	a1,64(a3)
    80003bc8:	0000                	unimp
    80003bca:	42a2                	lw	t0,8(sp)
    80003bcc:	0000                	unimp
    80003bce:	4286                	lw	t0,64(sp)
    80003bd0:	0000                	unimp
    80003bd2:	428a                	lw	t0,128(sp)
    80003bd4:	0000                	unimp
    80003bd6:	429c                	lw	a5,0(a3)
    80003bd8:	0000                	unimp
    80003bda:	4240                	lw	s0,4(a2)
    80003bdc:	0000                	unimp
    80003bde:	4282                	lw	t0,0(sp)
    80003be0:	0000                	unimp
    80003be2:	42b0                	lw	a2,64(a3)
    80003be4:	0000                	unimp
    80003be6:	428c                	lw	a1,0(a3)
    80003be8:	0000                	unimp
    80003bea:	428c                	lw	a1,0(a3)
    80003bec:	0000                	unimp
    80003bee:	428c                	lw	a1,0(a3)
    80003bf0:	0000                	unimp
    80003bf2:	428a                	lw	t0,128(sp)
    80003bf4:	0000                	unimp
    80003bf6:	4290                	lw	a2,0(a3)
    80003bf8:	0000                	unimp
    80003bfa:	42c0                	lw	s0,4(a3)
    80003bfc:	0000                	unimp
    80003bfe:	42b4                	lw	a3,64(a3)
    80003c00:	0000                	unimp
    80003c02:	42c6                	lw	t0,80(sp)
    80003c04:	0000                	unimp
    80003c06:	42a4                	lw	s1,64(a3)
    80003c08:	0000                	unimp
    80003c0a:	42a2                	lw	t0,8(sp)
    80003c0c:	0000                	unimp
    80003c0e:	4298                	lw	a4,0(a3)
    80003c10:	0000                	unimp
    80003c12:	42c4                	lw	s1,4(a3)
    80003c14:	0000                	unimp
    80003c16:	4292                	lw	t0,4(sp)
    80003c18:	0000                	unimp
    80003c1a:	4294                	lw	a3,0(a3)
    80003c1c:	0000                	unimp
    80003c1e:	428e                	lw	t0,192(sp)
    80003c20:	0000                	unimp
    80003c22:	428a                	lw	t0,128(sp)
    80003c24:	0000                	unimp
    80003c26:	4292                	lw	t0,4(sp)
    80003c28:	0000                	unimp
    80003c2a:	42bc                	lw	a5,64(a3)
    80003c2c:	0000                	unimp
    80003c2e:	42b2                	lw	t0,12(sp)

0000000080003c30 <input2_data>:
    80003c30:	0000                	unimp
    80003c32:	3f80                	fld	fs0,56(a5)
    80003c34:	0000                	unimp
    80003c36:	3f80                	fld	fs0,56(a5)
    80003c38:	0000                	unimp
    80003c3a:	0000                	unimp
    80003c3c:	0000                	unimp
    80003c3e:	4040                	lw	s0,4(s0)
    80003c40:	0000                	unimp
    80003c42:	3f80                	fld	fs0,56(a5)
    80003c44:	0000                	unimp
    80003c46:	4000                	lw	s0,0(s0)
    80003c48:	0000                	unimp
    80003c4a:	0000                	unimp
    80003c4c:	0000                	unimp
    80003c4e:	0000                	unimp
    80003c50:	0000                	unimp
    80003c52:	0000                	unimp
    80003c54:	0000                	unimp
    80003c56:	0000                	unimp
    80003c58:	0000                	unimp
    80003c5a:	0000                	unimp
    80003c5c:	0000                	unimp
    80003c5e:	4000                	lw	s0,0(s0)
    80003c60:	0000                	unimp
    80003c62:	3f80                	fld	fs0,56(a5)
    80003c64:	0000                	unimp
    80003c66:	4000                	lw	s0,0(s0)
    80003c68:	0000                	unimp
    80003c6a:	4040                	lw	s0,4(s0)
    80003c6c:	0000                	unimp
    80003c6e:	0000                	unimp
    80003c70:	0000                	unimp
    80003c72:	0000                	unimp
    80003c74:	0000                	unimp
    80003c76:	4040                	lw	s0,4(s0)
    80003c78:	0000                	unimp
    80003c7a:	4040                	lw	s0,4(s0)
    80003c7c:	0000                	unimp
    80003c7e:	4000                	lw	s0,0(s0)
    80003c80:	0000                	unimp
    80003c82:	4000                	lw	s0,0(s0)
    80003c84:	0000                	unimp
    80003c86:	3f80                	fld	fs0,56(a5)
    80003c88:	0000                	unimp
    80003c8a:	4000                	lw	s0,0(s0)
    80003c8c:	0000                	unimp
    80003c8e:	4040                	lw	s0,4(s0)
    80003c90:	0000                	unimp
    80003c92:	4040                	lw	s0,4(s0)
    80003c94:	0000                	unimp
    80003c96:	0000                	unimp
    80003c98:	0000                	unimp
    80003c9a:	4000                	lw	s0,0(s0)
    80003c9c:	0000                	unimp
    80003c9e:	4000                	lw	s0,0(s0)
    80003ca0:	0000                	unimp
    80003ca2:	3f80                	fld	fs0,56(a5)
    80003ca4:	0000                	unimp
    80003ca6:	3f80                	fld	fs0,56(a5)
    80003ca8:	0000                	unimp
    80003caa:	4000                	lw	s0,0(s0)
    80003cac:	0000                	unimp
    80003cae:	4000                	lw	s0,0(s0)
    80003cb0:	0000                	unimp
    80003cb2:	0000                	unimp
    80003cb4:	0000                	unimp
    80003cb6:	4000                	lw	s0,0(s0)
    80003cb8:	0000                	unimp
    80003cba:	4000                	lw	s0,0(s0)
    80003cbc:	0000                	unimp
    80003cbe:	3f80                	fld	fs0,56(a5)
    80003cc0:	0000                	unimp
    80003cc2:	4000                	lw	s0,0(s0)
    80003cc4:	0000                	unimp
    80003cc6:	4040                	lw	s0,4(s0)
    80003cc8:	0000                	unimp
    80003cca:	4000                	lw	s0,0(s0)
    80003ccc:	0000                	unimp
    80003cce:	4000                	lw	s0,0(s0)
    80003cd0:	0000                	unimp
    80003cd2:	4040                	lw	s0,4(s0)
    80003cd4:	0000                	unimp
    80003cd6:	4040                	lw	s0,4(s0)
    80003cd8:	0000                	unimp
    80003cda:	4000                	lw	s0,0(s0)
    80003cdc:	0000                	unimp
    80003cde:	4000                	lw	s0,0(s0)
    80003ce0:	0000                	unimp
    80003ce2:	3f80                	fld	fs0,56(a5)
    80003ce4:	0000                	unimp
    80003ce6:	3f80                	fld	fs0,56(a5)
    80003ce8:	0000                	unimp
    80003cea:	3f80                	fld	fs0,56(a5)
    80003cec:	0000                	unimp
    80003cee:	3f80                	fld	fs0,56(a5)
    80003cf0:	0000                	unimp
    80003cf2:	4000                	lw	s0,0(s0)
    80003cf4:	0000                	unimp
    80003cf6:	3f80                	fld	fs0,56(a5)
    80003cf8:	0000                	unimp
    80003cfa:	4000                	lw	s0,0(s0)
    80003cfc:	0000                	unimp
    80003cfe:	4000                	lw	s0,0(s0)
    80003d00:	0000                	unimp
    80003d02:	4040                	lw	s0,4(s0)
    80003d04:	0000                	unimp
    80003d06:	4040                	lw	s0,4(s0)
    80003d08:	0000                	unimp
    80003d0a:	4040                	lw	s0,4(s0)
    80003d0c:	0000                	unimp
    80003d0e:	0000                	unimp
    80003d10:	0000                	unimp
    80003d12:	0000                	unimp
    80003d14:	0000                	unimp
    80003d16:	4040                	lw	s0,4(s0)
    80003d18:	0000                	unimp
    80003d1a:	4000                	lw	s0,0(s0)
    80003d1c:	0000                	unimp
    80003d1e:	4040                	lw	s0,4(s0)
    80003d20:	0000                	unimp
    80003d22:	4000                	lw	s0,0(s0)
    80003d24:	0000                	unimp
    80003d26:	4040                	lw	s0,4(s0)
    80003d28:	0000                	unimp
    80003d2a:	3f80                	fld	fs0,56(a5)
    80003d2c:	0000                	unimp
    80003d2e:	4000                	lw	s0,0(s0)
    80003d30:	0000                	unimp
    80003d32:	3f80                	fld	fs0,56(a5)
    80003d34:	0000                	unimp
    80003d36:	3f80                	fld	fs0,56(a5)
    80003d38:	0000                	unimp
    80003d3a:	4000                	lw	s0,0(s0)
    80003d3c:	0000                	unimp
    80003d3e:	4000                	lw	s0,0(s0)
    80003d40:	0000                	unimp
    80003d42:	0000                	unimp
    80003d44:	0000                	unimp
    80003d46:	3f80                	fld	fs0,56(a5)
    80003d48:	0000                	unimp
    80003d4a:	0000                	unimp
    80003d4c:	0000                	unimp
    80003d4e:	4040                	lw	s0,4(s0)
    80003d50:	0000                	unimp
    80003d52:	4000                	lw	s0,0(s0)
    80003d54:	0000                	unimp
    80003d56:	3f80                	fld	fs0,56(a5)
    80003d58:	0000                	unimp
    80003d5a:	3f80                	fld	fs0,56(a5)
    80003d5c:	0000                	unimp
    80003d5e:	3f80                	fld	fs0,56(a5)
    80003d60:	0000                	unimp
    80003d62:	4000                	lw	s0,0(s0)
    80003d64:	0000                	unimp
    80003d66:	0000                	unimp
    80003d68:	0000                	unimp
    80003d6a:	3f80                	fld	fs0,56(a5)
    80003d6c:	0000                	unimp
    80003d6e:	4000                	lw	s0,0(s0)
    80003d70:	0000                	unimp
    80003d72:	4000                	lw	s0,0(s0)
    80003d74:	0000                	unimp
    80003d76:	0000                	unimp
    80003d78:	0000                	unimp
    80003d7a:	4000                	lw	s0,0(s0)
    80003d7c:	0000                	unimp
    80003d7e:	3f80                	fld	fs0,56(a5)
    80003d80:	0000                	unimp
    80003d82:	4040                	lw	s0,4(s0)
    80003d84:	0000                	unimp
    80003d86:	4040                	lw	s0,4(s0)
    80003d88:	0000                	unimp
    80003d8a:	4000                	lw	s0,0(s0)
    80003d8c:	0000                	unimp
    80003d8e:	4040                	lw	s0,4(s0)
    80003d90:	0000                	unimp
    80003d92:	4000                	lw	s0,0(s0)
    80003d94:	0000                	unimp
    80003d96:	0000                	unimp
    80003d98:	0000                	unimp
    80003d9a:	4040                	lw	s0,4(s0)
    80003d9c:	0000                	unimp
    80003d9e:	3f80                	fld	fs0,56(a5)
    80003da0:	0000                	unimp
    80003da2:	4040                	lw	s0,4(s0)
    80003da4:	0000                	unimp
    80003da6:	4040                	lw	s0,4(s0)
    80003da8:	0000                	unimp
    80003daa:	4000                	lw	s0,0(s0)
    80003dac:	0000                	unimp
    80003dae:	0000                	unimp
    80003db0:	0000                	unimp
    80003db2:	3f80                	fld	fs0,56(a5)
    80003db4:	0000                	unimp
    80003db6:	0000                	unimp
    80003db8:	0000                	unimp
    80003dba:	3f80                	fld	fs0,56(a5)
    80003dbc:	0000                	unimp
    80003dbe:	3f80                	fld	fs0,56(a5)
    80003dc0:	0000                	unimp
    80003dc2:	4000                	lw	s0,0(s0)
    80003dc4:	0000                	unimp
    80003dc6:	4000                	lw	s0,0(s0)
    80003dc8:	0000                	unimp
    80003dca:	3f80                	fld	fs0,56(a5)
    80003dcc:	0000                	unimp
    80003dce:	3f80                	fld	fs0,56(a5)
    80003dd0:	0000                	unimp
    80003dd2:	4000                	lw	s0,0(s0)
    80003dd4:	0000                	unimp
    80003dd6:	4000                	lw	s0,0(s0)
    80003dd8:	0000                	unimp
    80003dda:	3f80                	fld	fs0,56(a5)
    80003ddc:	0000                	unimp
    80003dde:	4000                	lw	s0,0(s0)
    80003de0:	0000                	unimp
    80003de2:	4040                	lw	s0,4(s0)
    80003de4:	0000                	unimp
    80003de6:	4040                	lw	s0,4(s0)
    80003de8:	0000                	unimp
    80003dea:	3f80                	fld	fs0,56(a5)
    80003dec:	0000                	unimp
    80003dee:	4040                	lw	s0,4(s0)
    80003df0:	0000                	unimp
    80003df2:	4000                	lw	s0,0(s0)
    80003df4:	0000                	unimp
    80003df6:	4000                	lw	s0,0(s0)
    80003df8:	0000                	unimp
    80003dfa:	4000                	lw	s0,0(s0)
    80003dfc:	0000                	unimp
    80003dfe:	4040                	lw	s0,4(s0)
    80003e00:	0000                	unimp
    80003e02:	4040                	lw	s0,4(s0)
    80003e04:	0000                	unimp
    80003e06:	3f80                	fld	fs0,56(a5)
    80003e08:	0000                	unimp
    80003e0a:	0000                	unimp
    80003e0c:	0000                	unimp
    80003e0e:	4000                	lw	s0,0(s0)
    80003e10:	0000                	unimp
    80003e12:	3f80                	fld	fs0,56(a5)
    80003e14:	0000                	unimp
    80003e16:	0000                	unimp
    80003e18:	0000                	unimp
    80003e1a:	0000                	unimp
    80003e1c:	0000                	unimp
    80003e1e:	0000                	unimp
    80003e20:	0000                	unimp
    80003e22:	3f80                	fld	fs0,56(a5)
    80003e24:	0000                	unimp
    80003e26:	3f80                	fld	fs0,56(a5)
    80003e28:	0000                	unimp
    80003e2a:	4000                	lw	s0,0(s0)
    80003e2c:	0000                	unimp
    80003e2e:	0000                	unimp
    80003e30:	0000                	unimp
    80003e32:	4040                	lw	s0,4(s0)
    80003e34:	0000                	unimp
    80003e36:	4000                	lw	s0,0(s0)
    80003e38:	0000                	unimp
    80003e3a:	4040                	lw	s0,4(s0)
    80003e3c:	0000                	unimp
    80003e3e:	4040                	lw	s0,4(s0)
    80003e40:	0000                	unimp
    80003e42:	0000                	unimp
    80003e44:	0000                	unimp
    80003e46:	4000                	lw	s0,0(s0)
    80003e48:	0000                	unimp
    80003e4a:	4040                	lw	s0,4(s0)
    80003e4c:	0000                	unimp
    80003e4e:	3f80                	fld	fs0,56(a5)
    80003e50:	0000                	unimp
    80003e52:	0000                	unimp
    80003e54:	0000                	unimp
    80003e56:	0000                	unimp
    80003e58:	0000                	unimp
    80003e5a:	4000                	lw	s0,0(s0)
    80003e5c:	0000                	unimp
    80003e5e:	3f80                	fld	fs0,56(a5)
    80003e60:	0000                	unimp
    80003e62:	4000                	lw	s0,0(s0)
    80003e64:	0000                	unimp
    80003e66:	0000                	unimp
    80003e68:	0000                	unimp
    80003e6a:	4000                	lw	s0,0(s0)
    80003e6c:	0000                	unimp
    80003e6e:	3f80                	fld	fs0,56(a5)
    80003e70:	0000                	unimp
    80003e72:	3f80                	fld	fs0,56(a5)
    80003e74:	0000                	unimp
    80003e76:	4000                	lw	s0,0(s0)
    80003e78:	0000                	unimp
    80003e7a:	4040                	lw	s0,4(s0)
    80003e7c:	0000                	unimp
    80003e7e:	3f80                	fld	fs0,56(a5)
    80003e80:	0000                	unimp
    80003e82:	4040                	lw	s0,4(s0)
    80003e84:	0000                	unimp
    80003e86:	4000                	lw	s0,0(s0)
    80003e88:	0000                	unimp
    80003e8a:	3f80                	fld	fs0,56(a5)
    80003e8c:	0000                	unimp
    80003e8e:	0000                	unimp
    80003e90:	0000                	unimp
    80003e92:	0000                	unimp
    80003e94:	0000                	unimp
    80003e96:	0000                	unimp
    80003e98:	0000                	unimp
    80003e9a:	0000                	unimp
    80003e9c:	0000                	unimp
    80003e9e:	0000                	unimp
    80003ea0:	0000                	unimp
    80003ea2:	4000                	lw	s0,0(s0)
    80003ea4:	0000                	unimp
    80003ea6:	4000                	lw	s0,0(s0)
    80003ea8:	0000                	unimp
    80003eaa:	0000                	unimp
    80003eac:	0000                	unimp
    80003eae:	4000                	lw	s0,0(s0)
    80003eb0:	0000                	unimp
    80003eb2:	3f80                	fld	fs0,56(a5)
    80003eb4:	0000                	unimp
    80003eb6:	4000                	lw	s0,0(s0)
    80003eb8:	0000                	unimp
    80003eba:	0000                	unimp
    80003ebc:	0000                	unimp
    80003ebe:	4040                	lw	s0,4(s0)
    80003ec0:	0000                	unimp
    80003ec2:	4000                	lw	s0,0(s0)
    80003ec4:	0000                	unimp
    80003ec6:	4000                	lw	s0,0(s0)
    80003ec8:	0000                	unimp
    80003eca:	0000                	unimp
    80003ecc:	0000                	unimp
    80003ece:	0000                	unimp
    80003ed0:	0000                	unimp
    80003ed2:	4040                	lw	s0,4(s0)
    80003ed4:	0000                	unimp
    80003ed6:	4000                	lw	s0,0(s0)
    80003ed8:	0000                	unimp
    80003eda:	3f80                	fld	fs0,56(a5)
    80003edc:	0000                	unimp
    80003ede:	3f80                	fld	fs0,56(a5)
    80003ee0:	0000                	unimp
    80003ee2:	4040                	lw	s0,4(s0)
    80003ee4:	0000                	unimp
    80003ee6:	0000                	unimp
    80003ee8:	0000                	unimp
    80003eea:	4000                	lw	s0,0(s0)
    80003eec:	0000                	unimp
    80003eee:	0000                	unimp
    80003ef0:	0000                	unimp
    80003ef2:	0000                	unimp
    80003ef4:	0000                	unimp
    80003ef6:	3f80                	fld	fs0,56(a5)
    80003ef8:	0000                	unimp
    80003efa:	0000                	unimp
    80003efc:	0000                	unimp
    80003efe:	4000                	lw	s0,0(s0)
    80003f00:	0000                	unimp
    80003f02:	4040                	lw	s0,4(s0)
    80003f04:	0000                	unimp
    80003f06:	4040                	lw	s0,4(s0)
    80003f08:	0000                	unimp
    80003f0a:	3f80                	fld	fs0,56(a5)
    80003f0c:	0000                	unimp
    80003f0e:	4040                	lw	s0,4(s0)
    80003f10:	0000                	unimp
    80003f12:	4040                	lw	s0,4(s0)
    80003f14:	0000                	unimp
    80003f16:	0000                	unimp
    80003f18:	0000                	unimp
    80003f1a:	0000                	unimp
    80003f1c:	0000                	unimp
    80003f1e:	4000                	lw	s0,0(s0)
    80003f20:	0000                	unimp
    80003f22:	4000                	lw	s0,0(s0)
    80003f24:	0000                	unimp
    80003f26:	0000                	unimp
    80003f28:	0000                	unimp
    80003f2a:	0000                	unimp
    80003f2c:	0000                	unimp
    80003f2e:	0000                	unimp
    80003f30:	0000                	unimp
    80003f32:	3f80                	fld	fs0,56(a5)
    80003f34:	0000                	unimp
    80003f36:	0000                	unimp
    80003f38:	0000                	unimp
    80003f3a:	0000                	unimp
    80003f3c:	0000                	unimp
    80003f3e:	3f80                	fld	fs0,56(a5)
    80003f40:	0000                	unimp
    80003f42:	4040                	lw	s0,4(s0)
    80003f44:	0000                	unimp
    80003f46:	0000                	unimp
    80003f48:	0000                	unimp
    80003f4a:	4000                	lw	s0,0(s0)
    80003f4c:	0000                	unimp
    80003f4e:	3f80                	fld	fs0,56(a5)
    80003f50:	0000                	unimp
    80003f52:	4040                	lw	s0,4(s0)
    80003f54:	0000                	unimp
    80003f56:	4000                	lw	s0,0(s0)
    80003f58:	0000                	unimp
    80003f5a:	4000                	lw	s0,0(s0)
    80003f5c:	0000                	unimp
    80003f5e:	3f80                	fld	fs0,56(a5)
    80003f60:	0000                	unimp
    80003f62:	4040                	lw	s0,4(s0)
    80003f64:	0000                	unimp
    80003f66:	4000                	lw	s0,0(s0)
    80003f68:	0000                	unimp
    80003f6a:	0000                	unimp
    80003f6c:	0000                	unimp
    80003f6e:	3f80                	fld	fs0,56(a5)
    80003f70:	0000                	unimp
    80003f72:	4000                	lw	s0,0(s0)
    80003f74:	0000                	unimp
    80003f76:	4000                	lw	s0,0(s0)
    80003f78:	0000                	unimp
    80003f7a:	4040                	lw	s0,4(s0)
    80003f7c:	0000                	unimp
    80003f7e:	4000                	lw	s0,0(s0)
    80003f80:	0000                	unimp
    80003f82:	3f80                	fld	fs0,56(a5)
    80003f84:	0000                	unimp
    80003f86:	3f80                	fld	fs0,56(a5)
    80003f88:	0000                	unimp
    80003f8a:	3f80                	fld	fs0,56(a5)
    80003f8c:	0000                	unimp
    80003f8e:	3f80                	fld	fs0,56(a5)
    80003f90:	0000                	unimp
    80003f92:	4040                	lw	s0,4(s0)
    80003f94:	0000                	unimp
    80003f96:	0000                	unimp
    80003f98:	0000                	unimp
    80003f9a:	3f80                	fld	fs0,56(a5)
    80003f9c:	0000                	unimp
    80003f9e:	4040                	lw	s0,4(s0)
    80003fa0:	0000                	unimp
    80003fa2:	4000                	lw	s0,0(s0)
    80003fa4:	0000                	unimp
    80003fa6:	4000                	lw	s0,0(s0)
    80003fa8:	0000                	unimp
    80003faa:	4040                	lw	s0,4(s0)
    80003fac:	0000                	unimp
    80003fae:	3f80                	fld	fs0,56(a5)
    80003fb0:	0000                	unimp
    80003fb2:	3f80                	fld	fs0,56(a5)
    80003fb4:	0000                	unimp
    80003fb6:	4000                	lw	s0,0(s0)
    80003fb8:	0000                	unimp
    80003fba:	0000                	unimp
    80003fbc:	0000                	unimp
    80003fbe:	4000                	lw	s0,0(s0)
    80003fc0:	0000                	unimp
    80003fc2:	3f80                	fld	fs0,56(a5)
    80003fc4:	0000                	unimp
    80003fc6:	3f80                	fld	fs0,56(a5)
    80003fc8:	0000                	unimp
    80003fca:	4000                	lw	s0,0(s0)
    80003fcc:	0000                	unimp
    80003fce:	4040                	lw	s0,4(s0)
    80003fd0:	0000                	unimp
    80003fd2:	3f80                	fld	fs0,56(a5)
    80003fd4:	0000                	unimp
    80003fd6:	0000                	unimp
    80003fd8:	0000                	unimp
    80003fda:	3f80                	fld	fs0,56(a5)
    80003fdc:	0000                	unimp
    80003fde:	0000                	unimp
    80003fe0:	0000                	unimp
    80003fe2:	3f80                	fld	fs0,56(a5)
    80003fe4:	0000                	unimp
    80003fe6:	3f80                	fld	fs0,56(a5)
    80003fe8:	0000                	unimp
    80003fea:	0000                	unimp
    80003fec:	0000                	unimp
    80003fee:	0000                	unimp
    80003ff0:	0000                	unimp
    80003ff2:	4000                	lw	s0,0(s0)
    80003ff4:	0000                	unimp
    80003ff6:	0000                	unimp
    80003ff8:	0000                	unimp
    80003ffa:	4040                	lw	s0,4(s0)
    80003ffc:	0000                	unimp
    80003ffe:	0000                	unimp
    80004000:	0000                	unimp
    80004002:	4040                	lw	s0,4(s0)
    80004004:	0000                	unimp
    80004006:	0000                	unimp
    80004008:	0000                	unimp
    8000400a:	4040                	lw	s0,4(s0)
    8000400c:	0000                	unimp
    8000400e:	4000                	lw	s0,0(s0)
    80004010:	0000                	unimp
    80004012:	4000                	lw	s0,0(s0)
    80004014:	0000                	unimp
    80004016:	4040                	lw	s0,4(s0)
    80004018:	0000                	unimp
    8000401a:	4040                	lw	s0,4(s0)
    8000401c:	0000                	unimp
    8000401e:	4000                	lw	s0,0(s0)
    80004020:	0000                	unimp
    80004022:	3f80                	fld	fs0,56(a5)
    80004024:	0000                	unimp
    80004026:	0000                	unimp
    80004028:	0000                	unimp
    8000402a:	4000                	lw	s0,0(s0)
    8000402c:	0000                	unimp
    8000402e:	4000                	lw	s0,0(s0)
    80004030:	0000                	unimp
    80004032:	3f80                	fld	fs0,56(a5)
    80004034:	0000                	unimp
    80004036:	3f80                	fld	fs0,56(a5)
    80004038:	0000                	unimp
    8000403a:	0000                	unimp
    8000403c:	0000                	unimp
    8000403e:	4040                	lw	s0,4(s0)
    80004040:	0000                	unimp
    80004042:	4040                	lw	s0,4(s0)
    80004044:	0000                	unimp
    80004046:	4000                	lw	s0,0(s0)
    80004048:	0000                	unimp
    8000404a:	4000                	lw	s0,0(s0)
    8000404c:	0000                	unimp
    8000404e:	0000                	unimp
    80004050:	0000                	unimp
    80004052:	0000                	unimp
    80004054:	0000                	unimp
    80004056:	4040                	lw	s0,4(s0)
    80004058:	0000                	unimp
    8000405a:	0000                	unimp
    8000405c:	0000                	unimp
    8000405e:	3f80                	fld	fs0,56(a5)
    80004060:	0000                	unimp
    80004062:	0000                	unimp
    80004064:	0000                	unimp
    80004066:	0000                	unimp
    80004068:	0000                	unimp
    8000406a:	3f80                	fld	fs0,56(a5)
    8000406c:	0000                	unimp
    8000406e:	4000                	lw	s0,0(s0)
    80004070:	0000                	unimp
    80004072:	0000                	unimp
    80004074:	0000                	unimp
    80004076:	3f80                	fld	fs0,56(a5)
    80004078:	0000                	unimp
    8000407a:	4040                	lw	s0,4(s0)
    8000407c:	0000                	unimp
    8000407e:	0000                	unimp
    80004080:	0000                	unimp
    80004082:	3f80                	fld	fs0,56(a5)
    80004084:	0000                	unimp
    80004086:	4000                	lw	s0,0(s0)
    80004088:	0000                	unimp
    8000408a:	4000                	lw	s0,0(s0)
    8000408c:	0000                	unimp
    8000408e:	0000                	unimp
    80004090:	0000                	unimp
    80004092:	0000                	unimp
    80004094:	0000                	unimp
    80004096:	4040                	lw	s0,4(s0)
    80004098:	0000                	unimp
    8000409a:	0000                	unimp
    8000409c:	0000                	unimp
    8000409e:	4040                	lw	s0,4(s0)
    800040a0:	0000                	unimp
    800040a2:	0000                	unimp
    800040a4:	0000                	unimp
    800040a6:	3f80                	fld	fs0,56(a5)
    800040a8:	0000                	unimp
    800040aa:	3f80                	fld	fs0,56(a5)
    800040ac:	0000                	unimp
    800040ae:	4000                	lw	s0,0(s0)
    800040b0:	0000                	unimp
    800040b2:	0000                	unimp
    800040b4:	0000                	unimp
    800040b6:	0000                	unimp
    800040b8:	0000                	unimp
    800040ba:	0000                	unimp
    800040bc:	0000                	unimp
    800040be:	4040                	lw	s0,4(s0)
    800040c0:	0000                	unimp
    800040c2:	0000                	unimp
    800040c4:	0000                	unimp
    800040c6:	0000                	unimp
    800040c8:	0000                	unimp
    800040ca:	4000                	lw	s0,0(s0)
    800040cc:	0000                	unimp
    800040ce:	3f80                	fld	fs0,56(a5)
    800040d0:	0000                	unimp
    800040d2:	3f80                	fld	fs0,56(a5)
    800040d4:	0000                	unimp
    800040d6:	3f80                	fld	fs0,56(a5)
    800040d8:	0000                	unimp
    800040da:	0000                	unimp
    800040dc:	0000                	unimp
    800040de:	4000                	lw	s0,0(s0)
    800040e0:	0000                	unimp
    800040e2:	3f80                	fld	fs0,56(a5)
    800040e4:	0000                	unimp
    800040e6:	4040                	lw	s0,4(s0)
    800040e8:	0000                	unimp
    800040ea:	3f80                	fld	fs0,56(a5)
    800040ec:	0000                	unimp
    800040ee:	4000                	lw	s0,0(s0)
    800040f0:	0000                	unimp
    800040f2:	0000                	unimp
    800040f4:	0000                	unimp
    800040f6:	4040                	lw	s0,4(s0)
    800040f8:	0000                	unimp
    800040fa:	0000                	unimp
    800040fc:	0000                	unimp
    800040fe:	4040                	lw	s0,4(s0)
    80004100:	0000                	unimp
    80004102:	3f80                	fld	fs0,56(a5)
    80004104:	0000                	unimp
    80004106:	4040                	lw	s0,4(s0)
    80004108:	0000                	unimp
    8000410a:	0000                	unimp
    8000410c:	0000                	unimp
    8000410e:	0000                	unimp
    80004110:	0000                	unimp
    80004112:	4000                	lw	s0,0(s0)
    80004114:	0000                	unimp
    80004116:	4000                	lw	s0,0(s0)
    80004118:	0000                	unimp
    8000411a:	4000                	lw	s0,0(s0)
    8000411c:	0000                	unimp
    8000411e:	4000                	lw	s0,0(s0)
    80004120:	0000                	unimp
    80004122:	4040                	lw	s0,4(s0)
    80004124:	0000                	unimp
    80004126:	4040                	lw	s0,4(s0)
    80004128:	0000                	unimp
    8000412a:	4000                	lw	s0,0(s0)
    8000412c:	0000                	unimp
    8000412e:	3f80                	fld	fs0,56(a5)
    80004130:	0000                	unimp
    80004132:	4000                	lw	s0,0(s0)
    80004134:	0000                	unimp
    80004136:	4000                	lw	s0,0(s0)
    80004138:	0000                	unimp
    8000413a:	3f80                	fld	fs0,56(a5)
    8000413c:	0000                	unimp
    8000413e:	3f80                	fld	fs0,56(a5)
    80004140:	0000                	unimp
    80004142:	4000                	lw	s0,0(s0)
    80004144:	0000                	unimp
    80004146:	4000                	lw	s0,0(s0)
    80004148:	0000                	unimp
    8000414a:	4000                	lw	s0,0(s0)
    8000414c:	0000                	unimp
    8000414e:	4000                	lw	s0,0(s0)
    80004150:	0000                	unimp
    80004152:	0000                	unimp
    80004154:	0000                	unimp
    80004156:	4040                	lw	s0,4(s0)
    80004158:	0000                	unimp
    8000415a:	0000                	unimp
    8000415c:	0000                	unimp
    8000415e:	0000                	unimp
    80004160:	0000                	unimp
    80004162:	4000                	lw	s0,0(s0)
    80004164:	0000                	unimp
    80004166:	0000                	unimp
    80004168:	0000                	unimp
    8000416a:	3f80                	fld	fs0,56(a5)
    8000416c:	0000                	unimp
    8000416e:	4000                	lw	s0,0(s0)
    80004170:	0000                	unimp
    80004172:	0000                	unimp
    80004174:	0000                	unimp
    80004176:	4040                	lw	s0,4(s0)
    80004178:	0000                	unimp
    8000417a:	4000                	lw	s0,0(s0)
    8000417c:	0000                	unimp
    8000417e:	4040                	lw	s0,4(s0)
    80004180:	0000                	unimp
    80004182:	4000                	lw	s0,0(s0)
    80004184:	0000                	unimp
    80004186:	0000                	unimp
    80004188:	0000                	unimp
    8000418a:	4000                	lw	s0,0(s0)
    8000418c:	0000                	unimp
    8000418e:	3f80                	fld	fs0,56(a5)
    80004190:	0000                	unimp
    80004192:	4000                	lw	s0,0(s0)
    80004194:	0000                	unimp
    80004196:	3f80                	fld	fs0,56(a5)
    80004198:	0000                	unimp
    8000419a:	0000                	unimp
    8000419c:	0000                	unimp
    8000419e:	4000                	lw	s0,0(s0)
    800041a0:	0000                	unimp
    800041a2:	3f80                	fld	fs0,56(a5)
    800041a4:	0000                	unimp
    800041a6:	3f80                	fld	fs0,56(a5)
    800041a8:	0000                	unimp
    800041aa:	4040                	lw	s0,4(s0)
    800041ac:	0000                	unimp
    800041ae:	4000                	lw	s0,0(s0)
    800041b0:	0000                	unimp
    800041b2:	4000                	lw	s0,0(s0)
    800041b4:	0000                	unimp
    800041b6:	4040                	lw	s0,4(s0)
    800041b8:	0000                	unimp
    800041ba:	3f80                	fld	fs0,56(a5)
    800041bc:	0000                	unimp
    800041be:	0000                	unimp
    800041c0:	0000                	unimp
    800041c2:	4040                	lw	s0,4(s0)
    800041c4:	0000                	unimp
    800041c6:	4040                	lw	s0,4(s0)
    800041c8:	0000                	unimp
    800041ca:	3f80                	fld	fs0,56(a5)
    800041cc:	0000                	unimp
    800041ce:	0000                	unimp
    800041d0:	0000                	unimp
    800041d2:	4040                	lw	s0,4(s0)
    800041d4:	0000                	unimp
    800041d6:	4000                	lw	s0,0(s0)
    800041d8:	0000                	unimp
    800041da:	4000                	lw	s0,0(s0)
    800041dc:	0000                	unimp
    800041de:	0000                	unimp
    800041e0:	0000                	unimp
    800041e2:	0000                	unimp
    800041e4:	0000                	unimp
    800041e6:	4040                	lw	s0,4(s0)
    800041e8:	0000                	unimp
    800041ea:	0000                	unimp
    800041ec:	0000                	unimp
    800041ee:	0000                	unimp
    800041f0:	0000                	unimp
    800041f2:	4000                	lw	s0,0(s0)
    800041f4:	0000                	unimp
    800041f6:	0000                	unimp
    800041f8:	0000                	unimp
    800041fa:	4040                	lw	s0,4(s0)
    800041fc:	0000                	unimp
    800041fe:	4000                	lw	s0,0(s0)
    80004200:	0000                	unimp
    80004202:	4040                	lw	s0,4(s0)
    80004204:	0000                	unimp
    80004206:	3f80                	fld	fs0,56(a5)
    80004208:	0000                	unimp
    8000420a:	3f80                	fld	fs0,56(a5)
    8000420c:	0000                	unimp
    8000420e:	0000                	unimp
    80004210:	0000                	unimp
    80004212:	0000                	unimp
    80004214:	0000                	unimp
    80004216:	4000                	lw	s0,0(s0)
    80004218:	0000                	unimp
    8000421a:	4040                	lw	s0,4(s0)
    8000421c:	0000                	unimp
    8000421e:	0000                	unimp
    80004220:	0000                	unimp
    80004222:	0000                	unimp
    80004224:	0000                	unimp
    80004226:	3f80                	fld	fs0,56(a5)
    80004228:	0000                	unimp
    8000422a:	3f80                	fld	fs0,56(a5)
    8000422c:	0000                	unimp
    8000422e:	3f80                	fld	fs0,56(a5)
    80004230:	0000                	unimp
    80004232:	4000                	lw	s0,0(s0)
    80004234:	0000                	unimp
    80004236:	3f80                	fld	fs0,56(a5)
    80004238:	0000                	unimp
    8000423a:	4040                	lw	s0,4(s0)
    8000423c:	0000                	unimp
    8000423e:	4000                	lw	s0,0(s0)
    80004240:	0000                	unimp
    80004242:	3f80                	fld	fs0,56(a5)
    80004244:	0000                	unimp
    80004246:	4040                	lw	s0,4(s0)
    80004248:	0000                	unimp
    8000424a:	0000                	unimp
    8000424c:	0000                	unimp
    8000424e:	3f80                	fld	fs0,56(a5)
    80004250:	0000                	unimp
    80004252:	4040                	lw	s0,4(s0)
    80004254:	0000                	unimp
    80004256:	4040                	lw	s0,4(s0)
    80004258:	0000                	unimp
    8000425a:	3f80                	fld	fs0,56(a5)
    8000425c:	0000                	unimp
    8000425e:	3f80                	fld	fs0,56(a5)
    80004260:	0000                	unimp
    80004262:	3f80                	fld	fs0,56(a5)
    80004264:	0000                	unimp
    80004266:	3f80                	fld	fs0,56(a5)
    80004268:	0000                	unimp
    8000426a:	3f80                	fld	fs0,56(a5)
    8000426c:	0000                	unimp
    8000426e:	3f80                	fld	fs0,56(a5)
    80004270:	0000                	unimp
    80004272:	0000                	unimp
    80004274:	0000                	unimp
    80004276:	0000                	unimp
    80004278:	0000                	unimp
    8000427a:	4000                	lw	s0,0(s0)
    8000427c:	0000                	unimp
    8000427e:	4040                	lw	s0,4(s0)
    80004280:	0000                	unimp
    80004282:	4000                	lw	s0,0(s0)
    80004284:	0000                	unimp
    80004286:	4000                	lw	s0,0(s0)
    80004288:	0000                	unimp
    8000428a:	4000                	lw	s0,0(s0)
    8000428c:	0000                	unimp
    8000428e:	4040                	lw	s0,4(s0)
    80004290:	0000                	unimp
    80004292:	4000                	lw	s0,0(s0)
    80004294:	0000                	unimp
    80004296:	4040                	lw	s0,4(s0)
    80004298:	0000                	unimp
    8000429a:	3f80                	fld	fs0,56(a5)
    8000429c:	0000                	unimp
    8000429e:	4000                	lw	s0,0(s0)
    800042a0:	0000                	unimp
    800042a2:	4040                	lw	s0,4(s0)
    800042a4:	0000                	unimp
    800042a6:	4000                	lw	s0,0(s0)
    800042a8:	0000                	unimp
    800042aa:	4000                	lw	s0,0(s0)
    800042ac:	0000                	unimp
    800042ae:	4000                	lw	s0,0(s0)
    800042b0:	0000                	unimp
    800042b2:	0000                	unimp
    800042b4:	0000                	unimp
    800042b6:	3f80                	fld	fs0,56(a5)
    800042b8:	0000                	unimp
    800042ba:	4040                	lw	s0,4(s0)
    800042bc:	0000                	unimp
    800042be:	0000                	unimp
    800042c0:	0000                	unimp
    800042c2:	3f80                	fld	fs0,56(a5)
    800042c4:	0000                	unimp
    800042c6:	3f80                	fld	fs0,56(a5)
    800042c8:	0000                	unimp
    800042ca:	0000                	unimp
    800042cc:	0000                	unimp
    800042ce:	3f80                	fld	fs0,56(a5)
    800042d0:	0000                	unimp
    800042d2:	0000                	unimp
    800042d4:	0000                	unimp
    800042d6:	3f80                	fld	fs0,56(a5)
    800042d8:	0000                	unimp
    800042da:	3f80                	fld	fs0,56(a5)
    800042dc:	0000                	unimp
    800042de:	4040                	lw	s0,4(s0)
    800042e0:	0000                	unimp
    800042e2:	4040                	lw	s0,4(s0)
    800042e4:	0000                	unimp
    800042e6:	3f80                	fld	fs0,56(a5)
    800042e8:	0000                	unimp
    800042ea:	4000                	lw	s0,0(s0)
    800042ec:	0000                	unimp
    800042ee:	4000                	lw	s0,0(s0)
    800042f0:	0000                	unimp
    800042f2:	4040                	lw	s0,4(s0)
    800042f4:	0000                	unimp
    800042f6:	4000                	lw	s0,0(s0)
    800042f8:	0000                	unimp
    800042fa:	0000                	unimp
    800042fc:	0000                	unimp
    800042fe:	4000                	lw	s0,0(s0)
    80004300:	0000                	unimp
    80004302:	4000                	lw	s0,0(s0)
    80004304:	0000                	unimp
    80004306:	0000                	unimp
    80004308:	0000                	unimp
    8000430a:	3f80                	fld	fs0,56(a5)
    8000430c:	0000                	unimp
    8000430e:	4040                	lw	s0,4(s0)
    80004310:	0000                	unimp
    80004312:	0000                	unimp
    80004314:	0000                	unimp
    80004316:	3f80                	fld	fs0,56(a5)
    80004318:	0000                	unimp
    8000431a:	4040                	lw	s0,4(s0)
    8000431c:	0000                	unimp
    8000431e:	4000                	lw	s0,0(s0)
    80004320:	0000                	unimp
    80004322:	3f80                	fld	fs0,56(a5)
    80004324:	0000                	unimp
    80004326:	4040                	lw	s0,4(s0)
    80004328:	0000                	unimp
    8000432a:	4040                	lw	s0,4(s0)
    8000432c:	0000                	unimp
    8000432e:	4000                	lw	s0,0(s0)
    80004330:	0000                	unimp
    80004332:	0000                	unimp
    80004334:	0000                	unimp
    80004336:	3f80                	fld	fs0,56(a5)
    80004338:	0000                	unimp
    8000433a:	4040                	lw	s0,4(s0)
    8000433c:	0000                	unimp
    8000433e:	4000                	lw	s0,0(s0)
    80004340:	0000                	unimp
    80004342:	0000                	unimp
    80004344:	0000                	unimp
    80004346:	4000                	lw	s0,0(s0)
    80004348:	0000                	unimp
    8000434a:	3f80                	fld	fs0,56(a5)
    8000434c:	0000                	unimp
    8000434e:	3f80                	fld	fs0,56(a5)
    80004350:	0000                	unimp
    80004352:	0000                	unimp
    80004354:	0000                	unimp
    80004356:	4040                	lw	s0,4(s0)
    80004358:	0000                	unimp
    8000435a:	0000                	unimp
    8000435c:	0000                	unimp
    8000435e:	3f80                	fld	fs0,56(a5)
    80004360:	0000                	unimp
    80004362:	3f80                	fld	fs0,56(a5)
    80004364:	0000                	unimp
    80004366:	3f80                	fld	fs0,56(a5)
    80004368:	0000                	unimp
    8000436a:	3f80                	fld	fs0,56(a5)
    8000436c:	0000                	unimp
    8000436e:	3f80                	fld	fs0,56(a5)
    80004370:	0000                	unimp
    80004372:	4040                	lw	s0,4(s0)
    80004374:	0000                	unimp
    80004376:	0000                	unimp
    80004378:	0000                	unimp
    8000437a:	0000                	unimp
    8000437c:	0000                	unimp
    8000437e:	3f80                	fld	fs0,56(a5)
    80004380:	0000                	unimp
    80004382:	0000                	unimp
    80004384:	0000                	unimp
    80004386:	4000                	lw	s0,0(s0)
    80004388:	0000                	unimp
    8000438a:	4040                	lw	s0,4(s0)
    8000438c:	0000                	unimp
    8000438e:	3f80                	fld	fs0,56(a5)
    80004390:	0000                	unimp
    80004392:	4040                	lw	s0,4(s0)
    80004394:	0000                	unimp
    80004396:	0000                	unimp
    80004398:	0000                	unimp
    8000439a:	4000                	lw	s0,0(s0)
    8000439c:	0000                	unimp
    8000439e:	3f80                	fld	fs0,56(a5)
    800043a0:	0000                	unimp
    800043a2:	4040                	lw	s0,4(s0)
    800043a4:	0000                	unimp
    800043a6:	0000                	unimp
    800043a8:	0000                	unimp
    800043aa:	4040                	lw	s0,4(s0)
    800043ac:	0000                	unimp
    800043ae:	0000                	unimp
    800043b0:	0000                	unimp
    800043b2:	4040                	lw	s0,4(s0)
    800043b4:	0000                	unimp
    800043b6:	4000                	lw	s0,0(s0)
    800043b8:	0000                	unimp
    800043ba:	4000                	lw	s0,0(s0)
    800043bc:	0000                	unimp
    800043be:	0000                	unimp
    800043c0:	0000                	unimp
    800043c2:	0000                	unimp
    800043c4:	0000                	unimp
    800043c6:	4000                	lw	s0,0(s0)
    800043c8:	0000                	unimp
    800043ca:	3f80                	fld	fs0,56(a5)
    800043cc:	0000                	unimp
    800043ce:	4040                	lw	s0,4(s0)
    800043d0:	0000                	unimp
    800043d2:	4040                	lw	s0,4(s0)
    800043d4:	0000                	unimp
    800043d6:	4000                	lw	s0,0(s0)
    800043d8:	0000                	unimp
    800043da:	4040                	lw	s0,4(s0)
    800043dc:	0000                	unimp
    800043de:	4000                	lw	s0,0(s0)
    800043e0:	0000                	unimp
    800043e2:	4000                	lw	s0,0(s0)
    800043e4:	0000                	unimp
    800043e6:	3f80                	fld	fs0,56(a5)
    800043e8:	0000                	unimp
    800043ea:	4000                	lw	s0,0(s0)
    800043ec:	0000                	unimp
    800043ee:	4000                	lw	s0,0(s0)
    800043f0:	0000                	unimp
    800043f2:	4040                	lw	s0,4(s0)
    800043f4:	0000                	unimp
    800043f6:	0000                	unimp
    800043f8:	0000                	unimp
    800043fa:	4040                	lw	s0,4(s0)
    800043fc:	0000                	unimp
    800043fe:	4000                	lw	s0,0(s0)
    80004400:	0000                	unimp
    80004402:	4000                	lw	s0,0(s0)
    80004404:	0000                	unimp
    80004406:	0000                	unimp
    80004408:	0000                	unimp
    8000440a:	4040                	lw	s0,4(s0)
    8000440c:	0000                	unimp
    8000440e:	4000                	lw	s0,0(s0)
    80004410:	0000                	unimp
    80004412:	4040                	lw	s0,4(s0)
    80004414:	0000                	unimp
    80004416:	4000                	lw	s0,0(s0)
    80004418:	0000                	unimp
    8000441a:	0000                	unimp
    8000441c:	0000                	unimp
    8000441e:	0000                	unimp
    80004420:	0000                	unimp
    80004422:	3f80                	fld	fs0,56(a5)
    80004424:	0000                	unimp
    80004426:	4000                	lw	s0,0(s0)
    80004428:	0000                	unimp
    8000442a:	0000                	unimp
    8000442c:	0000                	unimp
    8000442e:	0000                	unimp
    80004430:	0000                	unimp
    80004432:	4000                	lw	s0,0(s0)
    80004434:	0000                	unimp
    80004436:	0000                	unimp
    80004438:	0000                	unimp
    8000443a:	0000                	unimp
    8000443c:	0000                	unimp
    8000443e:	4040                	lw	s0,4(s0)
    80004440:	0000                	unimp
    80004442:	4040                	lw	s0,4(s0)
    80004444:	0000                	unimp
    80004446:	4000                	lw	s0,0(s0)
    80004448:	0000                	unimp
    8000444a:	0000                	unimp
    8000444c:	0000                	unimp
    8000444e:	0000                	unimp
    80004450:	0000                	unimp
    80004452:	4040                	lw	s0,4(s0)
    80004454:	0000                	unimp
    80004456:	4040                	lw	s0,4(s0)
    80004458:	0000                	unimp
    8000445a:	0000                	unimp
    8000445c:	0000                	unimp
    8000445e:	4000                	lw	s0,0(s0)
    80004460:	0000                	unimp
    80004462:	4040                	lw	s0,4(s0)
    80004464:	0000                	unimp
    80004466:	3f80                	fld	fs0,56(a5)
    80004468:	0000                	unimp
    8000446a:	0000                	unimp
    8000446c:	0000                	unimp
    8000446e:	3f80                	fld	fs0,56(a5)
    80004470:	0000                	unimp
    80004472:	0000                	unimp
    80004474:	0000                	unimp
    80004476:	4000                	lw	s0,0(s0)
    80004478:	0000                	unimp
    8000447a:	3f80                	fld	fs0,56(a5)
    8000447c:	0000                	unimp
    8000447e:	0000                	unimp
    80004480:	0000                	unimp
    80004482:	4000                	lw	s0,0(s0)
    80004484:	0000                	unimp
    80004486:	3f80                	fld	fs0,56(a5)
    80004488:	0000                	unimp
    8000448a:	0000                	unimp
    8000448c:	0000                	unimp
    8000448e:	3f80                	fld	fs0,56(a5)
    80004490:	0000                	unimp
    80004492:	0000                	unimp
    80004494:	0000                	unimp
    80004496:	4040                	lw	s0,4(s0)
    80004498:	0000                	unimp
    8000449a:	0000                	unimp
    8000449c:	0000                	unimp
    8000449e:	4000                	lw	s0,0(s0)
    800044a0:	0000                	unimp
    800044a2:	4000                	lw	s0,0(s0)
    800044a4:	0000                	unimp
    800044a6:	4040                	lw	s0,4(s0)
    800044a8:	0000                	unimp
    800044aa:	0000                	unimp
    800044ac:	0000                	unimp
    800044ae:	0000                	unimp
    800044b0:	0000                	unimp
    800044b2:	4000                	lw	s0,0(s0)
    800044b4:	0000                	unimp
    800044b6:	3f80                	fld	fs0,56(a5)
    800044b8:	0000                	unimp
    800044ba:	0000                	unimp
    800044bc:	0000                	unimp
    800044be:	3f80                	fld	fs0,56(a5)
    800044c0:	0000                	unimp
    800044c2:	0000                	unimp
    800044c4:	0000                	unimp
    800044c6:	0000                	unimp
    800044c8:	0000                	unimp
    800044ca:	0000                	unimp
    800044cc:	0000                	unimp
    800044ce:	4000                	lw	s0,0(s0)
    800044d0:	0000                	unimp
    800044d2:	4000                	lw	s0,0(s0)
    800044d4:	0000                	unimp
    800044d6:	4040                	lw	s0,4(s0)
    800044d8:	0000                	unimp
    800044da:	4000                	lw	s0,0(s0)
    800044dc:	0000                	unimp
    800044de:	0000                	unimp
    800044e0:	0000                	unimp
    800044e2:	4040                	lw	s0,4(s0)
    800044e4:	0000                	unimp
    800044e6:	4040                	lw	s0,4(s0)
    800044e8:	0000                	unimp
    800044ea:	4000                	lw	s0,0(s0)
    800044ec:	0000                	unimp
    800044ee:	3f80                	fld	fs0,56(a5)
    800044f0:	0000                	unimp
    800044f2:	0000                	unimp
    800044f4:	0000                	unimp
    800044f6:	0000                	unimp
    800044f8:	0000                	unimp
    800044fa:	4040                	lw	s0,4(s0)
    800044fc:	0000                	unimp
    800044fe:	3f80                	fld	fs0,56(a5)
    80004500:	0000                	unimp
    80004502:	4000                	lw	s0,0(s0)
    80004504:	0000                	unimp
    80004506:	4040                	lw	s0,4(s0)
    80004508:	0000                	unimp
    8000450a:	4040                	lw	s0,4(s0)
    8000450c:	0000                	unimp
    8000450e:	3f80                	fld	fs0,56(a5)
    80004510:	0000                	unimp
    80004512:	0000                	unimp
    80004514:	0000                	unimp
    80004516:	4040                	lw	s0,4(s0)
    80004518:	0000                	unimp
    8000451a:	3f80                	fld	fs0,56(a5)
    8000451c:	0000                	unimp
    8000451e:	3f80                	fld	fs0,56(a5)
    80004520:	0000                	unimp
    80004522:	0000                	unimp
    80004524:	0000                	unimp
    80004526:	4040                	lw	s0,4(s0)
    80004528:	0000                	unimp
    8000452a:	4040                	lw	s0,4(s0)
    8000452c:	0000                	unimp
    8000452e:	4040                	lw	s0,4(s0)
    80004530:	0000                	unimp
    80004532:	4000                	lw	s0,0(s0)
    80004534:	0000                	unimp
    80004536:	4000                	lw	s0,0(s0)
    80004538:	0000                	unimp
    8000453a:	4000                	lw	s0,0(s0)
    8000453c:	0000                	unimp
    8000453e:	0000                	unimp
    80004540:	0000                	unimp
    80004542:	3f80                	fld	fs0,56(a5)
    80004544:	0000                	unimp
    80004546:	4000                	lw	s0,0(s0)
    80004548:	0000                	unimp
    8000454a:	0000                	unimp
    8000454c:	0000                	unimp
    8000454e:	4040                	lw	s0,4(s0)
    80004550:	0000                	unimp
    80004552:	0000                	unimp
    80004554:	0000                	unimp
    80004556:	3f80                	fld	fs0,56(a5)
    80004558:	0000                	unimp
    8000455a:	0000                	unimp
    8000455c:	0000                	unimp
    8000455e:	3f80                	fld	fs0,56(a5)
    80004560:	0000                	unimp
    80004562:	3f80                	fld	fs0,56(a5)
    80004564:	0000                	unimp
    80004566:	0000                	unimp
    80004568:	0000                	unimp
    8000456a:	3f80                	fld	fs0,56(a5)
    8000456c:	0000                	unimp
    8000456e:	4000                	lw	s0,0(s0)
    80004570:	0000                	unimp
    80004572:	0000                	unimp
    80004574:	0000                	unimp
    80004576:	4040                	lw	s0,4(s0)
    80004578:	0000                	unimp
    8000457a:	4000                	lw	s0,0(s0)
    8000457c:	0000                	unimp
    8000457e:	0000                	unimp
    80004580:	0000                	unimp
    80004582:	3f80                	fld	fs0,56(a5)
    80004584:	0000                	unimp
    80004586:	4000                	lw	s0,0(s0)
    80004588:	0000                	unimp
    8000458a:	4000                	lw	s0,0(s0)
    8000458c:	0000                	unimp
    8000458e:	0000                	unimp
    80004590:	0000                	unimp
    80004592:	4000                	lw	s0,0(s0)
    80004594:	0000                	unimp
    80004596:	0000                	unimp
    80004598:	0000                	unimp
    8000459a:	0000                	unimp
    8000459c:	0000                	unimp
    8000459e:	3f80                	fld	fs0,56(a5)
    800045a0:	0000                	unimp
    800045a2:	0000                	unimp
    800045a4:	0000                	unimp
    800045a6:	4040                	lw	s0,4(s0)
    800045a8:	0000                	unimp
    800045aa:	0000                	unimp
    800045ac:	0000                	unimp
    800045ae:	4040                	lw	s0,4(s0)
    800045b0:	0000                	unimp
    800045b2:	4000                	lw	s0,0(s0)
    800045b4:	0000                	unimp
    800045b6:	3f80                	fld	fs0,56(a5)
    800045b8:	0000                	unimp
    800045ba:	3f80                	fld	fs0,56(a5)
    800045bc:	0000                	unimp
    800045be:	3f80                	fld	fs0,56(a5)
    800045c0:	0000                	unimp
    800045c2:	3f80                	fld	fs0,56(a5)
    800045c4:	0000                	unimp
    800045c6:	4040                	lw	s0,4(s0)
    800045c8:	0000                	unimp
    800045ca:	4000                	lw	s0,0(s0)
    800045cc:	0000                	unimp
    800045ce:	3f80                	fld	fs0,56(a5)
    800045d0:	0000                	unimp
    800045d2:	3f80                	fld	fs0,56(a5)
    800045d4:	0000                	unimp
    800045d6:	3f80                	fld	fs0,56(a5)
    800045d8:	0000                	unimp
    800045da:	3f80                	fld	fs0,56(a5)
    800045dc:	0000                	unimp
    800045de:	0000                	unimp
    800045e0:	0000                	unimp
    800045e2:	4000                	lw	s0,0(s0)
    800045e4:	0000                	unimp
    800045e6:	3f80                	fld	fs0,56(a5)
    800045e8:	0000                	unimp
    800045ea:	3f80                	fld	fs0,56(a5)
    800045ec:	0000                	unimp
    800045ee:	4040                	lw	s0,4(s0)
    800045f0:	0000                	unimp
    800045f2:	4000                	lw	s0,0(s0)
    800045f4:	0000                	unimp
    800045f6:	0000                	unimp
    800045f8:	0000                	unimp
    800045fa:	4000                	lw	s0,0(s0)
    800045fc:	0000                	unimp
    800045fe:	3f80                	fld	fs0,56(a5)
    80004600:	0000                	unimp
    80004602:	3f80                	fld	fs0,56(a5)
    80004604:	0000                	unimp
    80004606:	0000                	unimp
    80004608:	0000                	unimp
    8000460a:	4000                	lw	s0,0(s0)
    8000460c:	0000                	unimp
    8000460e:	4000                	lw	s0,0(s0)
    80004610:	0000                	unimp
    80004612:	3f80                	fld	fs0,56(a5)
    80004614:	0000                	unimp
    80004616:	4040                	lw	s0,4(s0)
    80004618:	0000                	unimp
    8000461a:	0000                	unimp
    8000461c:	0000                	unimp
    8000461e:	4000                	lw	s0,0(s0)
    80004620:	0000                	unimp
    80004622:	3f80                	fld	fs0,56(a5)
    80004624:	0000                	unimp
    80004626:	0000                	unimp
    80004628:	0000                	unimp
    8000462a:	3f80                	fld	fs0,56(a5)
    8000462c:	0000                	unimp
    8000462e:	4000                	lw	s0,0(s0)
    80004630:	0000                	unimp
    80004632:	0000                	unimp
    80004634:	0000                	unimp
    80004636:	3f80                	fld	fs0,56(a5)
    80004638:	0000                	unimp
    8000463a:	4040                	lw	s0,4(s0)
    8000463c:	0000                	unimp
    8000463e:	4000                	lw	s0,0(s0)
    80004640:	0000                	unimp
    80004642:	4040                	lw	s0,4(s0)
    80004644:	0000                	unimp
    80004646:	4000                	lw	s0,0(s0)
    80004648:	0000                	unimp
    8000464a:	3f80                	fld	fs0,56(a5)
    8000464c:	0000                	unimp
    8000464e:	0000                	unimp
    80004650:	0000                	unimp
    80004652:	4000                	lw	s0,0(s0)
    80004654:	0000                	unimp
    80004656:	0000                	unimp
    80004658:	0000                	unimp
    8000465a:	4000                	lw	s0,0(s0)
    8000465c:	0000                	unimp
    8000465e:	4000                	lw	s0,0(s0)
    80004660:	0000                	unimp
    80004662:	4040                	lw	s0,4(s0)
    80004664:	0000                	unimp
    80004666:	3f80                	fld	fs0,56(a5)
    80004668:	0000                	unimp
    8000466a:	3f80                	fld	fs0,56(a5)
    8000466c:	0000                	unimp
    8000466e:	4040                	lw	s0,4(s0)
    80004670:	0000                	unimp
    80004672:	4000                	lw	s0,0(s0)
    80004674:	0000                	unimp
    80004676:	4040                	lw	s0,4(s0)
    80004678:	0000                	unimp
    8000467a:	4000                	lw	s0,0(s0)
    8000467c:	0000                	unimp
    8000467e:	4000                	lw	s0,0(s0)
    80004680:	0000                	unimp
    80004682:	0000                	unimp
    80004684:	0000                	unimp
    80004686:	4000                	lw	s0,0(s0)
    80004688:	0000                	unimp
    8000468a:	0000                	unimp
    8000468c:	0000                	unimp
    8000468e:	0000                	unimp
    80004690:	0000                	unimp
    80004692:	0000                	unimp
    80004694:	0000                	unimp
    80004696:	4040                	lw	s0,4(s0)
    80004698:	0000                	unimp
    8000469a:	4000                	lw	s0,0(s0)
    8000469c:	0000                	unimp
    8000469e:	0000                	unimp
    800046a0:	0000                	unimp
    800046a2:	4000                	lw	s0,0(s0)
    800046a4:	0000                	unimp
    800046a6:	4000                	lw	s0,0(s0)
    800046a8:	0000                	unimp
    800046aa:	4040                	lw	s0,4(s0)
    800046ac:	0000                	unimp
    800046ae:	4040                	lw	s0,4(s0)
    800046b0:	0000                	unimp
    800046b2:	4040                	lw	s0,4(s0)
    800046b4:	0000                	unimp
    800046b6:	4000                	lw	s0,0(s0)
    800046b8:	0000                	unimp
    800046ba:	3f80                	fld	fs0,56(a5)
    800046bc:	0000                	unimp
    800046be:	4000                	lw	s0,0(s0)
    800046c0:	0000                	unimp
    800046c2:	0000                	unimp
    800046c4:	0000                	unimp
    800046c6:	0000                	unimp
    800046c8:	0000                	unimp
    800046ca:	4040                	lw	s0,4(s0)
    800046cc:	0000                	unimp
    800046ce:	0000                	unimp
    800046d0:	0000                	unimp
    800046d2:	4000                	lw	s0,0(s0)
    800046d4:	0000                	unimp
    800046d6:	0000                	unimp
    800046d8:	0000                	unimp
    800046da:	4040                	lw	s0,4(s0)
    800046dc:	0000                	unimp
    800046de:	4000                	lw	s0,0(s0)
    800046e0:	0000                	unimp
    800046e2:	4000                	lw	s0,0(s0)
    800046e4:	0000                	unimp
    800046e6:	4040                	lw	s0,4(s0)
    800046e8:	0000                	unimp
    800046ea:	0000                	unimp
    800046ec:	0000                	unimp
    800046ee:	4040                	lw	s0,4(s0)
    800046f0:	0000                	unimp
    800046f2:	4000                	lw	s0,0(s0)
    800046f4:	0000                	unimp
    800046f6:	3f80                	fld	fs0,56(a5)
    800046f8:	0000                	unimp
    800046fa:	4000                	lw	s0,0(s0)
    800046fc:	0000                	unimp
    800046fe:	4000                	lw	s0,0(s0)
    80004700:	0000                	unimp
    80004702:	3f80                	fld	fs0,56(a5)
    80004704:	0000                	unimp
    80004706:	4000                	lw	s0,0(s0)
    80004708:	0000                	unimp
    8000470a:	0000                	unimp
    8000470c:	0000                	unimp
    8000470e:	0000                	unimp
    80004710:	0000                	unimp
    80004712:	4040                	lw	s0,4(s0)
    80004714:	0000                	unimp
    80004716:	3f80                	fld	fs0,56(a5)
    80004718:	0000                	unimp
    8000471a:	4000                	lw	s0,0(s0)
    8000471c:	0000                	unimp
    8000471e:	0000                	unimp
    80004720:	0000                	unimp
    80004722:	4000                	lw	s0,0(s0)
    80004724:	0000                	unimp
    80004726:	4040                	lw	s0,4(s0)
    80004728:	0000                	unimp
    8000472a:	4000                	lw	s0,0(s0)
    8000472c:	0000                	unimp
    8000472e:	4000                	lw	s0,0(s0)
    80004730:	0000                	unimp
    80004732:	3f80                	fld	fs0,56(a5)
    80004734:	0000                	unimp
    80004736:	3f80                	fld	fs0,56(a5)
    80004738:	0000                	unimp
    8000473a:	3f80                	fld	fs0,56(a5)
    8000473c:	0000                	unimp
    8000473e:	4040                	lw	s0,4(s0)
    80004740:	0000                	unimp
    80004742:	4040                	lw	s0,4(s0)
    80004744:	0000                	unimp
    80004746:	4040                	lw	s0,4(s0)
    80004748:	0000                	unimp
    8000474a:	4040                	lw	s0,4(s0)
    8000474c:	0000                	unimp
    8000474e:	4040                	lw	s0,4(s0)
    80004750:	0000                	unimp
    80004752:	3f80                	fld	fs0,56(a5)
    80004754:	0000                	unimp
    80004756:	4040                	lw	s0,4(s0)
    80004758:	0000                	unimp
    8000475a:	0000                	unimp
    8000475c:	0000                	unimp
    8000475e:	3f80                	fld	fs0,56(a5)
    80004760:	0000                	unimp
    80004762:	4040                	lw	s0,4(s0)
    80004764:	0000                	unimp
    80004766:	4000                	lw	s0,0(s0)
    80004768:	0000                	unimp
    8000476a:	4000                	lw	s0,0(s0)
    8000476c:	0000                	unimp
    8000476e:	3f80                	fld	fs0,56(a5)
    80004770:	0000                	unimp
    80004772:	0000                	unimp
    80004774:	0000                	unimp
    80004776:	3f80                	fld	fs0,56(a5)
    80004778:	0000                	unimp
    8000477a:	3f80                	fld	fs0,56(a5)
    8000477c:	0000                	unimp
    8000477e:	4000                	lw	s0,0(s0)
    80004780:	0000                	unimp
    80004782:	3f80                	fld	fs0,56(a5)
    80004784:	0000                	unimp
    80004786:	4000                	lw	s0,0(s0)
    80004788:	0000                	unimp
    8000478a:	4040                	lw	s0,4(s0)
    8000478c:	0000                	unimp
    8000478e:	3f80                	fld	fs0,56(a5)
    80004790:	0000                	unimp
    80004792:	4000                	lw	s0,0(s0)
    80004794:	0000                	unimp
    80004796:	4000                	lw	s0,0(s0)
    80004798:	0000                	unimp
    8000479a:	3f80                	fld	fs0,56(a5)
    8000479c:	0000                	unimp
    8000479e:	4000                	lw	s0,0(s0)
    800047a0:	0000                	unimp
    800047a2:	3f80                	fld	fs0,56(a5)
    800047a4:	0000                	unimp
    800047a6:	3f80                	fld	fs0,56(a5)
    800047a8:	0000                	unimp
    800047aa:	0000                	unimp
    800047ac:	0000                	unimp
    800047ae:	4040                	lw	s0,4(s0)
    800047b0:	0000                	unimp
    800047b2:	4040                	lw	s0,4(s0)
    800047b4:	0000                	unimp
    800047b6:	3f80                	fld	fs0,56(a5)
    800047b8:	0000                	unimp
    800047ba:	3f80                	fld	fs0,56(a5)
    800047bc:	0000                	unimp
    800047be:	4040                	lw	s0,4(s0)
    800047c0:	0000                	unimp
    800047c2:	4000                	lw	s0,0(s0)
    800047c4:	0000                	unimp
    800047c6:	0000                	unimp
    800047c8:	0000                	unimp
    800047ca:	0000                	unimp
    800047cc:	0000                	unimp
    800047ce:	3f80                	fld	fs0,56(a5)
    800047d0:	0000                	unimp
    800047d2:	4000                	lw	s0,0(s0)
    800047d4:	0000                	unimp
    800047d6:	0000                	unimp
    800047d8:	0000                	unimp
    800047da:	3f80                	fld	fs0,56(a5)
    800047dc:	0000                	unimp
    800047de:	4040                	lw	s0,4(s0)
    800047e0:	0000                	unimp
    800047e2:	3f80                	fld	fs0,56(a5)
    800047e4:	0000                	unimp
    800047e6:	0000                	unimp
    800047e8:	0000                	unimp
    800047ea:	0000                	unimp
    800047ec:	0000                	unimp
    800047ee:	4000                	lw	s0,0(s0)
    800047f0:	0000                	unimp
    800047f2:	4000                	lw	s0,0(s0)
    800047f4:	0000                	unimp
    800047f6:	4040                	lw	s0,4(s0)
    800047f8:	0000                	unimp
    800047fa:	4040                	lw	s0,4(s0)
    800047fc:	0000                	unimp
    800047fe:	0000                	unimp
    80004800:	0000                	unimp
    80004802:	4000                	lw	s0,0(s0)
    80004804:	0000                	unimp
    80004806:	4040                	lw	s0,4(s0)
    80004808:	0000                	unimp
    8000480a:	4000                	lw	s0,0(s0)
    8000480c:	0000                	unimp
    8000480e:	3f80                	fld	fs0,56(a5)
    80004810:	0000                	unimp
    80004812:	3f80                	fld	fs0,56(a5)
    80004814:	0000                	unimp
    80004816:	4040                	lw	s0,4(s0)
    80004818:	0000                	unimp
    8000481a:	0000                	unimp
    8000481c:	0000                	unimp
    8000481e:	4000                	lw	s0,0(s0)
    80004820:	0000                	unimp
    80004822:	4000                	lw	s0,0(s0)
    80004824:	0000                	unimp
    80004826:	4040                	lw	s0,4(s0)
    80004828:	0000                	unimp
    8000482a:	4040                	lw	s0,4(s0)
    8000482c:	0000                	unimp
    8000482e:	3f80                	fld	fs0,56(a5)
    80004830:	0000                	unimp
    80004832:	4000                	lw	s0,0(s0)
    80004834:	0000                	unimp
    80004836:	4040                	lw	s0,4(s0)
    80004838:	0000                	unimp
    8000483a:	4040                	lw	s0,4(s0)
    8000483c:	0000                	unimp
    8000483e:	4040                	lw	s0,4(s0)
    80004840:	0000                	unimp
    80004842:	3f80                	fld	fs0,56(a5)
    80004844:	0000                	unimp
    80004846:	4040                	lw	s0,4(s0)
    80004848:	0000                	unimp
    8000484a:	0000                	unimp
    8000484c:	0000                	unimp
    8000484e:	4040                	lw	s0,4(s0)
    80004850:	0000                	unimp
    80004852:	3f80                	fld	fs0,56(a5)
    80004854:	0000                	unimp
    80004856:	3f80                	fld	fs0,56(a5)
    80004858:	0000                	unimp
    8000485a:	4000                	lw	s0,0(s0)
    8000485c:	0000                	unimp
    8000485e:	4000                	lw	s0,0(s0)
    80004860:	0000                	unimp
    80004862:	4000                	lw	s0,0(s0)
    80004864:	0000                	unimp
    80004866:	3f80                	fld	fs0,56(a5)
    80004868:	0000                	unimp
    8000486a:	0000                	unimp
    8000486c:	0000                	unimp
    8000486e:	4040                	lw	s0,4(s0)
    80004870:	0000                	unimp
    80004872:	4000                	lw	s0,0(s0)
    80004874:	0000                	unimp
    80004876:	4040                	lw	s0,4(s0)
    80004878:	0000                	unimp
    8000487a:	0000                	unimp
    8000487c:	0000                	unimp
    8000487e:	4000                	lw	s0,0(s0)
    80004880:	0000                	unimp
    80004882:	4040                	lw	s0,4(s0)
    80004884:	0000                	unimp
    80004886:	4000                	lw	s0,0(s0)
    80004888:	0000                	unimp
    8000488a:	4040                	lw	s0,4(s0)
    8000488c:	0000                	unimp
    8000488e:	3f80                	fld	fs0,56(a5)
    80004890:	0000                	unimp
    80004892:	4000                	lw	s0,0(s0)
    80004894:	0000                	unimp
    80004896:	4040                	lw	s0,4(s0)
    80004898:	0000                	unimp
    8000489a:	4040                	lw	s0,4(s0)
    8000489c:	0000                	unimp
    8000489e:	3f80                	fld	fs0,56(a5)
    800048a0:	0000                	unimp
    800048a2:	4000                	lw	s0,0(s0)
    800048a4:	0000                	unimp
    800048a6:	3f80                	fld	fs0,56(a5)
    800048a8:	0000                	unimp
    800048aa:	0000                	unimp
    800048ac:	0000                	unimp
    800048ae:	0000                	unimp
    800048b0:	0000                	unimp
    800048b2:	0000                	unimp
    800048b4:	0000                	unimp
    800048b6:	4040                	lw	s0,4(s0)
    800048b8:	0000                	unimp
    800048ba:	4040                	lw	s0,4(s0)
    800048bc:	0000                	unimp
    800048be:	4040                	lw	s0,4(s0)
    800048c0:	0000                	unimp
    800048c2:	4040                	lw	s0,4(s0)
    800048c4:	0000                	unimp
    800048c6:	0000                	unimp
    800048c8:	0000                	unimp
    800048ca:	4040                	lw	s0,4(s0)
    800048cc:	0000                	unimp
    800048ce:	4040                	lw	s0,4(s0)
    800048d0:	0000                	unimp
    800048d2:	4040                	lw	s0,4(s0)
    800048d4:	0000                	unimp
    800048d6:	4040                	lw	s0,4(s0)
    800048d8:	0000                	unimp
    800048da:	4000                	lw	s0,0(s0)
    800048dc:	0000                	unimp
    800048de:	3f80                	fld	fs0,56(a5)
    800048e0:	0000                	unimp
    800048e2:	0000                	unimp
    800048e4:	0000                	unimp
    800048e6:	4040                	lw	s0,4(s0)
    800048e8:	0000                	unimp
    800048ea:	0000                	unimp
    800048ec:	0000                	unimp
    800048ee:	4040                	lw	s0,4(s0)
    800048f0:	0000                	unimp
    800048f2:	4000                	lw	s0,0(s0)
    800048f4:	0000                	unimp
    800048f6:	4040                	lw	s0,4(s0)
    800048f8:	0000                	unimp
    800048fa:	3f80                	fld	fs0,56(a5)
    800048fc:	0000                	unimp
    800048fe:	0000                	unimp
    80004900:	0000                	unimp
    80004902:	0000                	unimp
    80004904:	0000                	unimp
    80004906:	3f80                	fld	fs0,56(a5)
    80004908:	0000                	unimp
    8000490a:	4040                	lw	s0,4(s0)
    8000490c:	0000                	unimp
    8000490e:	3f80                	fld	fs0,56(a5)
    80004910:	0000                	unimp
    80004912:	0000                	unimp
    80004914:	0000                	unimp
    80004916:	4000                	lw	s0,0(s0)
    80004918:	0000                	unimp
    8000491a:	4000                	lw	s0,0(s0)
    8000491c:	0000                	unimp
    8000491e:	4040                	lw	s0,4(s0)
    80004920:	0000                	unimp
    80004922:	3f80                	fld	fs0,56(a5)
    80004924:	0000                	unimp
    80004926:	0000                	unimp
    80004928:	0000                	unimp
    8000492a:	4000                	lw	s0,0(s0)
    8000492c:	0000                	unimp
    8000492e:	3f80                	fld	fs0,56(a5)
    80004930:	0000                	unimp
    80004932:	3f80                	fld	fs0,56(a5)
    80004934:	0000                	unimp
    80004936:	4040                	lw	s0,4(s0)
    80004938:	0000                	unimp
    8000493a:	3f80                	fld	fs0,56(a5)
    8000493c:	0000                	unimp
    8000493e:	3f80                	fld	fs0,56(a5)
    80004940:	0000                	unimp
    80004942:	4040                	lw	s0,4(s0)
    80004944:	0000                	unimp
    80004946:	3f80                	fld	fs0,56(a5)
    80004948:	0000                	unimp
    8000494a:	4000                	lw	s0,0(s0)
    8000494c:	0000                	unimp
    8000494e:	3f80                	fld	fs0,56(a5)
    80004950:	0000                	unimp
    80004952:	0000                	unimp
    80004954:	0000                	unimp
    80004956:	0000                	unimp
    80004958:	0000                	unimp
    8000495a:	4040                	lw	s0,4(s0)
    8000495c:	0000                	unimp
    8000495e:	4000                	lw	s0,0(s0)
    80004960:	0000                	unimp
    80004962:	3f80                	fld	fs0,56(a5)
    80004964:	0000                	unimp
    80004966:	3f80                	fld	fs0,56(a5)
    80004968:	0000                	unimp
    8000496a:	3f80                	fld	fs0,56(a5)
    8000496c:	0000                	unimp
    8000496e:	3f80                	fld	fs0,56(a5)
    80004970:	0000                	unimp
    80004972:	4040                	lw	s0,4(s0)
    80004974:	0000                	unimp
    80004976:	4000                	lw	s0,0(s0)
    80004978:	0000                	unimp
    8000497a:	3f80                	fld	fs0,56(a5)
    8000497c:	0000                	unimp
    8000497e:	4040                	lw	s0,4(s0)
    80004980:	0000                	unimp
    80004982:	4040                	lw	s0,4(s0)
    80004984:	0000                	unimp
    80004986:	3f80                	fld	fs0,56(a5)
    80004988:	0000                	unimp
    8000498a:	0000                	unimp
    8000498c:	0000                	unimp
    8000498e:	4040                	lw	s0,4(s0)
    80004990:	0000                	unimp
    80004992:	3f80                	fld	fs0,56(a5)
    80004994:	0000                	unimp
    80004996:	3f80                	fld	fs0,56(a5)
    80004998:	0000                	unimp
    8000499a:	4000                	lw	s0,0(s0)
    8000499c:	0000                	unimp
    8000499e:	0000                	unimp
    800049a0:	0000                	unimp
    800049a2:	0000                	unimp
    800049a4:	0000                	unimp
    800049a6:	0000                	unimp
    800049a8:	0000                	unimp
    800049aa:	4000                	lw	s0,0(s0)
    800049ac:	0000                	unimp
    800049ae:	4040                	lw	s0,4(s0)
    800049b0:	0000                	unimp
    800049b2:	4040                	lw	s0,4(s0)
    800049b4:	0000                	unimp
    800049b6:	4000                	lw	s0,0(s0)
    800049b8:	0000                	unimp
    800049ba:	4000                	lw	s0,0(s0)
    800049bc:	0000                	unimp
    800049be:	4040                	lw	s0,4(s0)
    800049c0:	0000                	unimp
    800049c2:	0000                	unimp
    800049c4:	0000                	unimp
    800049c6:	4000                	lw	s0,0(s0)
    800049c8:	0000                	unimp
    800049ca:	4040                	lw	s0,4(s0)
    800049cc:	0000                	unimp
    800049ce:	3f80                	fld	fs0,56(a5)
    800049d0:	0000                	unimp
    800049d2:	4040                	lw	s0,4(s0)
    800049d4:	0000                	unimp
    800049d6:	4040                	lw	s0,4(s0)
    800049d8:	0000                	unimp
    800049da:	0000                	unimp
    800049dc:	0000                	unimp
    800049de:	4000                	lw	s0,0(s0)
    800049e0:	0000                	unimp
    800049e2:	3f80                	fld	fs0,56(a5)
    800049e4:	0000                	unimp
    800049e6:	4000                	lw	s0,0(s0)
    800049e8:	0000                	unimp
    800049ea:	4000                	lw	s0,0(s0)
    800049ec:	0000                	unimp
    800049ee:	4000                	lw	s0,0(s0)
    800049f0:	0000                	unimp
    800049f2:	3f80                	fld	fs0,56(a5)
    800049f4:	0000                	unimp
    800049f6:	0000                	unimp
    800049f8:	0000                	unimp
    800049fa:	3f80                	fld	fs0,56(a5)
    800049fc:	0000                	unimp
    800049fe:	4040                	lw	s0,4(s0)
    80004a00:	0000                	unimp
    80004a02:	4000                	lw	s0,0(s0)
    80004a04:	0000                	unimp
    80004a06:	4040                	lw	s0,4(s0)
    80004a08:	0000                	unimp
    80004a0a:	3f80                	fld	fs0,56(a5)
    80004a0c:	0000                	unimp
    80004a0e:	3f80                	fld	fs0,56(a5)
    80004a10:	0000                	unimp
    80004a12:	4000                	lw	s0,0(s0)
    80004a14:	0000                	unimp
    80004a16:	3f80                	fld	fs0,56(a5)
    80004a18:	0000                	unimp
    80004a1a:	3f80                	fld	fs0,56(a5)
    80004a1c:	0000                	unimp
    80004a1e:	0000                	unimp
    80004a20:	0000                	unimp
    80004a22:	0000                	unimp
    80004a24:	0000                	unimp
    80004a26:	4000                	lw	s0,0(s0)
    80004a28:	0000                	unimp
    80004a2a:	4040                	lw	s0,4(s0)
    80004a2c:	0000                	unimp
    80004a2e:	4000                	lw	s0,0(s0)
    80004a30:	0000                	unimp
    80004a32:	3f80                	fld	fs0,56(a5)
    80004a34:	0000                	unimp
    80004a36:	0000                	unimp
    80004a38:	0000                	unimp
    80004a3a:	4040                	lw	s0,4(s0)
    80004a3c:	0000                	unimp
    80004a3e:	3f80                	fld	fs0,56(a5)
    80004a40:	0000                	unimp
    80004a42:	4040                	lw	s0,4(s0)
    80004a44:	0000                	unimp
    80004a46:	0000                	unimp
    80004a48:	0000                	unimp
    80004a4a:	3f80                	fld	fs0,56(a5)
    80004a4c:	0000                	unimp
    80004a4e:	3f80                	fld	fs0,56(a5)
    80004a50:	0000                	unimp
    80004a52:	4000                	lw	s0,0(s0)
    80004a54:	0000                	unimp
    80004a56:	4000                	lw	s0,0(s0)
    80004a58:	0000                	unimp
    80004a5a:	3f80                	fld	fs0,56(a5)
    80004a5c:	0000                	unimp
    80004a5e:	4040                	lw	s0,4(s0)
    80004a60:	0000                	unimp
    80004a62:	4040                	lw	s0,4(s0)
    80004a64:	0000                	unimp
    80004a66:	3f80                	fld	fs0,56(a5)
    80004a68:	0000                	unimp
    80004a6a:	3f80                	fld	fs0,56(a5)
    80004a6c:	0000                	unimp
    80004a6e:	0000                	unimp
    80004a70:	0000                	unimp
    80004a72:	0000                	unimp
    80004a74:	0000                	unimp
    80004a76:	4040                	lw	s0,4(s0)
    80004a78:	0000                	unimp
    80004a7a:	4040                	lw	s0,4(s0)
    80004a7c:	0000                	unimp
    80004a7e:	0000                	unimp
    80004a80:	0000                	unimp
    80004a82:	0000                	unimp
    80004a84:	0000                	unimp
    80004a86:	0000                	unimp
    80004a88:	0000                	unimp
    80004a8a:	0000                	unimp
    80004a8c:	0000                	unimp
    80004a8e:	0000                	unimp
    80004a90:	0000                	unimp
    80004a92:	4040                	lw	s0,4(s0)
    80004a94:	0000                	unimp
    80004a96:	3f80                	fld	fs0,56(a5)
    80004a98:	0000                	unimp
    80004a9a:	4040                	lw	s0,4(s0)
    80004a9c:	0000                	unimp
    80004a9e:	0000                	unimp
    80004aa0:	0000                	unimp
    80004aa2:	0000                	unimp
    80004aa4:	0000                	unimp
    80004aa6:	0000                	unimp
    80004aa8:	0000                	unimp
    80004aaa:	4040                	lw	s0,4(s0)
    80004aac:	0000                	unimp
    80004aae:	4040                	lw	s0,4(s0)
    80004ab0:	0000                	unimp
    80004ab2:	4000                	lw	s0,0(s0)
    80004ab4:	0000                	unimp
    80004ab6:	3f80                	fld	fs0,56(a5)
    80004ab8:	0000                	unimp
    80004aba:	4040                	lw	s0,4(s0)
    80004abc:	0000                	unimp
    80004abe:	0000                	unimp
    80004ac0:	0000                	unimp
    80004ac2:	3f80                	fld	fs0,56(a5)
    80004ac4:	0000                	unimp
    80004ac6:	4040                	lw	s0,4(s0)
    80004ac8:	0000                	unimp
    80004aca:	3f80                	fld	fs0,56(a5)
    80004acc:	0000                	unimp
    80004ace:	3f80                	fld	fs0,56(a5)
    80004ad0:	0000                	unimp
    80004ad2:	3f80                	fld	fs0,56(a5)
    80004ad4:	0000                	unimp
    80004ad6:	0000                	unimp
    80004ad8:	0000                	unimp
    80004ada:	3f80                	fld	fs0,56(a5)
    80004adc:	0000                	unimp
    80004ade:	0000                	unimp
    80004ae0:	0000                	unimp
    80004ae2:	3f80                	fld	fs0,56(a5)
    80004ae4:	0000                	unimp
    80004ae6:	4000                	lw	s0,0(s0)
    80004ae8:	0000                	unimp
    80004aea:	4000                	lw	s0,0(s0)
    80004aec:	0000                	unimp
    80004aee:	4000                	lw	s0,0(s0)
    80004af0:	0000                	unimp
    80004af2:	4040                	lw	s0,4(s0)
    80004af4:	0000                	unimp
    80004af6:	4040                	lw	s0,4(s0)
    80004af8:	0000                	unimp
    80004afa:	0000                	unimp
    80004afc:	0000                	unimp
    80004afe:	4000                	lw	s0,0(s0)
    80004b00:	0000                	unimp
    80004b02:	4040                	lw	s0,4(s0)
    80004b04:	0000                	unimp
    80004b06:	4000                	lw	s0,0(s0)
    80004b08:	0000                	unimp
    80004b0a:	3f80                	fld	fs0,56(a5)
    80004b0c:	0000                	unimp
    80004b0e:	4040                	lw	s0,4(s0)
    80004b10:	0000                	unimp
    80004b12:	4040                	lw	s0,4(s0)
    80004b14:	0000                	unimp
    80004b16:	3f80                	fld	fs0,56(a5)
    80004b18:	0000                	unimp
    80004b1a:	3f80                	fld	fs0,56(a5)
    80004b1c:	0000                	unimp
    80004b1e:	4040                	lw	s0,4(s0)
    80004b20:	0000                	unimp
    80004b22:	0000                	unimp
    80004b24:	0000                	unimp
    80004b26:	4040                	lw	s0,4(s0)
    80004b28:	0000                	unimp
    80004b2a:	4040                	lw	s0,4(s0)
    80004b2c:	0000                	unimp
    80004b2e:	4000                	lw	s0,0(s0)
    80004b30:	0000                	unimp
    80004b32:	3f80                	fld	fs0,56(a5)
    80004b34:	0000                	unimp
    80004b36:	3f80                	fld	fs0,56(a5)
    80004b38:	0000                	unimp
    80004b3a:	4000                	lw	s0,0(s0)
    80004b3c:	0000                	unimp
    80004b3e:	0000                	unimp
    80004b40:	0000                	unimp
    80004b42:	4040                	lw	s0,4(s0)
    80004b44:	0000                	unimp
    80004b46:	0000                	unimp
    80004b48:	0000                	unimp
    80004b4a:	3f80                	fld	fs0,56(a5)
    80004b4c:	0000                	unimp
    80004b4e:	4000                	lw	s0,0(s0)
    80004b50:	0000                	unimp
    80004b52:	3f80                	fld	fs0,56(a5)
    80004b54:	0000                	unimp
    80004b56:	3f80                	fld	fs0,56(a5)
    80004b58:	0000                	unimp
    80004b5a:	0000                	unimp
    80004b5c:	0000                	unimp
    80004b5e:	0000                	unimp
    80004b60:	0000                	unimp
    80004b62:	3f80                	fld	fs0,56(a5)
    80004b64:	0000                	unimp
    80004b66:	4000                	lw	s0,0(s0)
    80004b68:	0000                	unimp
    80004b6a:	4000                	lw	s0,0(s0)
    80004b6c:	0000                	unimp
    80004b6e:	0000                	unimp
    80004b70:	0000                	unimp
    80004b72:	4040                	lw	s0,4(s0)
    80004b74:	0000                	unimp
    80004b76:	3f80                	fld	fs0,56(a5)
    80004b78:	0000                	unimp
    80004b7a:	3f80                	fld	fs0,56(a5)
    80004b7c:	0000                	unimp
    80004b7e:	3f80                	fld	fs0,56(a5)
    80004b80:	0000                	unimp
    80004b82:	4040                	lw	s0,4(s0)
    80004b84:	0000                	unimp
    80004b86:	4040                	lw	s0,4(s0)
    80004b88:	0000                	unimp
    80004b8a:	4040                	lw	s0,4(s0)
    80004b8c:	0000                	unimp
    80004b8e:	3f80                	fld	fs0,56(a5)
    80004b90:	0000                	unimp
    80004b92:	0000                	unimp
    80004b94:	0000                	unimp
    80004b96:	4040                	lw	s0,4(s0)
    80004b98:	0000                	unimp
    80004b9a:	4040                	lw	s0,4(s0)
    80004b9c:	0000                	unimp
    80004b9e:	4000                	lw	s0,0(s0)
    80004ba0:	0000                	unimp
    80004ba2:	4000                	lw	s0,0(s0)
    80004ba4:	0000                	unimp
    80004ba6:	4000                	lw	s0,0(s0)
    80004ba8:	0000                	unimp
    80004baa:	3f80                	fld	fs0,56(a5)
    80004bac:	0000                	unimp
    80004bae:	4000                	lw	s0,0(s0)
    80004bb0:	0000                	unimp
    80004bb2:	0000                	unimp
    80004bb4:	0000                	unimp
    80004bb6:	3f80                	fld	fs0,56(a5)
    80004bb8:	0000                	unimp
    80004bba:	3f80                	fld	fs0,56(a5)
    80004bbc:	0000                	unimp
    80004bbe:	4040                	lw	s0,4(s0)
    80004bc0:	0000                	unimp
    80004bc2:	0000                	unimp
    80004bc4:	0000                	unimp
    80004bc6:	4040                	lw	s0,4(s0)
    80004bc8:	0000                	unimp
    80004bca:	3f80                	fld	fs0,56(a5)
    80004bcc:	0000                	unimp
    80004bce:	0000                	unimp
    80004bd0:	0000                	unimp
    80004bd2:	4000                	lw	s0,0(s0)
    80004bd4:	0000                	unimp
    80004bd6:	4000                	lw	s0,0(s0)
    80004bd8:	0000                	unimp
    80004bda:	0000                	unimp
    80004bdc:	0000                	unimp
    80004bde:	3f80                	fld	fs0,56(a5)
    80004be0:	0000                	unimp
    80004be2:	4000                	lw	s0,0(s0)
    80004be4:	0000                	unimp
    80004be6:	4040                	lw	s0,4(s0)
    80004be8:	0000                	unimp
    80004bea:	4000                	lw	s0,0(s0)
    80004bec:	0000                	unimp
    80004bee:	3f80                	fld	fs0,56(a5)
    80004bf0:	0000                	unimp
    80004bf2:	4000                	lw	s0,0(s0)
    80004bf4:	0000                	unimp
    80004bf6:	0000                	unimp
    80004bf8:	0000                	unimp
    80004bfa:	4040                	lw	s0,4(s0)
    80004bfc:	0000                	unimp
    80004bfe:	4000                	lw	s0,0(s0)
    80004c00:	0000                	unimp
    80004c02:	3f80                	fld	fs0,56(a5)
    80004c04:	0000                	unimp
    80004c06:	4040                	lw	s0,4(s0)
    80004c08:	0000                	unimp
    80004c0a:	0000                	unimp
    80004c0c:	0000                	unimp
    80004c0e:	3f80                	fld	fs0,56(a5)
    80004c10:	0000                	unimp
    80004c12:	4000                	lw	s0,0(s0)
    80004c14:	0000                	unimp
    80004c16:	0000                	unimp
    80004c18:	0000                	unimp
    80004c1a:	4040                	lw	s0,4(s0)
    80004c1c:	0000                	unimp
    80004c1e:	0000                	unimp
    80004c20:	0000                	unimp
    80004c22:	3f80                	fld	fs0,56(a5)
    80004c24:	0000                	unimp
    80004c26:	3f80                	fld	fs0,56(a5)
    80004c28:	0000                	unimp
    80004c2a:	4000                	lw	s0,0(s0)
    80004c2c:	0000                	unimp
    80004c2e:	3f80                	fld	fs0,56(a5)

0000000080004c30 <input1_data>:
    80004c30:	0000                	unimp
    80004c32:	0000                	unimp
    80004c34:	0000                	unimp
    80004c36:	4040                	lw	s0,4(s0)
    80004c38:	0000                	unimp
    80004c3a:	4000                	lw	s0,0(s0)
    80004c3c:	0000                	unimp
    80004c3e:	0000                	unimp
    80004c40:	0000                	unimp
    80004c42:	4040                	lw	s0,4(s0)
    80004c44:	0000                	unimp
    80004c46:	3f80                	fld	fs0,56(a5)
    80004c48:	0000                	unimp
    80004c4a:	0000                	unimp
    80004c4c:	0000                	unimp
    80004c4e:	4040                	lw	s0,4(s0)
    80004c50:	0000                	unimp
    80004c52:	4000                	lw	s0,0(s0)
    80004c54:	0000                	unimp
    80004c56:	4040                	lw	s0,4(s0)
    80004c58:	0000                	unimp
    80004c5a:	4000                	lw	s0,0(s0)
    80004c5c:	0000                	unimp
    80004c5e:	0000                	unimp
    80004c60:	0000                	unimp
    80004c62:	4040                	lw	s0,4(s0)
    80004c64:	0000                	unimp
    80004c66:	4040                	lw	s0,4(s0)
    80004c68:	0000                	unimp
    80004c6a:	3f80                	fld	fs0,56(a5)
    80004c6c:	0000                	unimp
    80004c6e:	4000                	lw	s0,0(s0)
    80004c70:	0000                	unimp
    80004c72:	4040                	lw	s0,4(s0)
    80004c74:	0000                	unimp
    80004c76:	0000                	unimp
    80004c78:	0000                	unimp
    80004c7a:	0000                	unimp
    80004c7c:	0000                	unimp
    80004c7e:	3f80                	fld	fs0,56(a5)
    80004c80:	0000                	unimp
    80004c82:	3f80                	fld	fs0,56(a5)
    80004c84:	0000                	unimp
    80004c86:	3f80                	fld	fs0,56(a5)
    80004c88:	0000                	unimp
    80004c8a:	4000                	lw	s0,0(s0)
    80004c8c:	0000                	unimp
    80004c8e:	4040                	lw	s0,4(s0)
    80004c90:	0000                	unimp
    80004c92:	3f80                	fld	fs0,56(a5)
    80004c94:	0000                	unimp
    80004c96:	4000                	lw	s0,0(s0)
    80004c98:	0000                	unimp
    80004c9a:	4040                	lw	s0,4(s0)
    80004c9c:	0000                	unimp
    80004c9e:	3f80                	fld	fs0,56(a5)
    80004ca0:	0000                	unimp
    80004ca2:	3f80                	fld	fs0,56(a5)
    80004ca4:	0000                	unimp
    80004ca6:	4040                	lw	s0,4(s0)
    80004ca8:	0000                	unimp
    80004caa:	4000                	lw	s0,0(s0)
    80004cac:	0000                	unimp
    80004cae:	4000                	lw	s0,0(s0)
    80004cb0:	0000                	unimp
    80004cb2:	0000                	unimp
    80004cb4:	0000                	unimp
    80004cb6:	3f80                	fld	fs0,56(a5)
    80004cb8:	0000                	unimp
    80004cba:	4040                	lw	s0,4(s0)
    80004cbc:	0000                	unimp
    80004cbe:	4000                	lw	s0,0(s0)
    80004cc0:	0000                	unimp
    80004cc2:	4000                	lw	s0,0(s0)
    80004cc4:	0000                	unimp
    80004cc6:	4000                	lw	s0,0(s0)
    80004cc8:	0000                	unimp
    80004cca:	0000                	unimp
    80004ccc:	0000                	unimp
    80004cce:	0000                	unimp
    80004cd0:	0000                	unimp
    80004cd2:	3f80                	fld	fs0,56(a5)
    80004cd4:	0000                	unimp
    80004cd6:	0000                	unimp
    80004cd8:	0000                	unimp
    80004cda:	3f80                	fld	fs0,56(a5)
    80004cdc:	0000                	unimp
    80004cde:	4040                	lw	s0,4(s0)
    80004ce0:	0000                	unimp
    80004ce2:	4040                	lw	s0,4(s0)
    80004ce4:	0000                	unimp
    80004ce6:	0000                	unimp
    80004ce8:	0000                	unimp
    80004cea:	4040                	lw	s0,4(s0)
    80004cec:	0000                	unimp
    80004cee:	4040                	lw	s0,4(s0)
    80004cf0:	0000                	unimp
    80004cf2:	4040                	lw	s0,4(s0)
    80004cf4:	0000                	unimp
    80004cf6:	4040                	lw	s0,4(s0)
    80004cf8:	0000                	unimp
    80004cfa:	0000                	unimp
    80004cfc:	0000                	unimp
    80004cfe:	4040                	lw	s0,4(s0)
    80004d00:	0000                	unimp
    80004d02:	4000                	lw	s0,0(s0)
    80004d04:	0000                	unimp
    80004d06:	3f80                	fld	fs0,56(a5)
    80004d08:	0000                	unimp
    80004d0a:	4000                	lw	s0,0(s0)
    80004d0c:	0000                	unimp
    80004d0e:	4000                	lw	s0,0(s0)
    80004d10:	0000                	unimp
    80004d12:	0000                	unimp
    80004d14:	0000                	unimp
    80004d16:	0000                	unimp
    80004d18:	0000                	unimp
    80004d1a:	4040                	lw	s0,4(s0)
    80004d1c:	0000                	unimp
    80004d1e:	0000                	unimp
    80004d20:	0000                	unimp
    80004d22:	3f80                	fld	fs0,56(a5)
    80004d24:	0000                	unimp
    80004d26:	3f80                	fld	fs0,56(a5)
    80004d28:	0000                	unimp
    80004d2a:	0000                	unimp
    80004d2c:	0000                	unimp
    80004d2e:	4040                	lw	s0,4(s0)
    80004d30:	0000                	unimp
    80004d32:	4040                	lw	s0,4(s0)
    80004d34:	0000                	unimp
    80004d36:	3f80                	fld	fs0,56(a5)
    80004d38:	0000                	unimp
    80004d3a:	4000                	lw	s0,0(s0)
    80004d3c:	0000                	unimp
    80004d3e:	4040                	lw	s0,4(s0)
    80004d40:	0000                	unimp
    80004d42:	4040                	lw	s0,4(s0)
    80004d44:	0000                	unimp
    80004d46:	0000                	unimp
    80004d48:	0000                	unimp
    80004d4a:	3f80                	fld	fs0,56(a5)
    80004d4c:	0000                	unimp
    80004d4e:	4000                	lw	s0,0(s0)
    80004d50:	0000                	unimp
    80004d52:	3f80                	fld	fs0,56(a5)
    80004d54:	0000                	unimp
    80004d56:	0000                	unimp
    80004d58:	0000                	unimp
    80004d5a:	3f80                	fld	fs0,56(a5)
    80004d5c:	0000                	unimp
    80004d5e:	4000                	lw	s0,0(s0)
    80004d60:	0000                	unimp
    80004d62:	4000                	lw	s0,0(s0)
    80004d64:	0000                	unimp
    80004d66:	3f80                	fld	fs0,56(a5)
    80004d68:	0000                	unimp
    80004d6a:	0000                	unimp
    80004d6c:	0000                	unimp
    80004d6e:	4040                	lw	s0,4(s0)
    80004d70:	0000                	unimp
    80004d72:	3f80                	fld	fs0,56(a5)
    80004d74:	0000                	unimp
    80004d76:	0000                	unimp
    80004d78:	0000                	unimp
    80004d7a:	4000                	lw	s0,0(s0)
    80004d7c:	0000                	unimp
    80004d7e:	4000                	lw	s0,0(s0)
    80004d80:	0000                	unimp
    80004d82:	3f80                	fld	fs0,56(a5)
    80004d84:	0000                	unimp
    80004d86:	3f80                	fld	fs0,56(a5)
    80004d88:	0000                	unimp
    80004d8a:	3f80                	fld	fs0,56(a5)
    80004d8c:	0000                	unimp
    80004d8e:	3f80                	fld	fs0,56(a5)
    80004d90:	0000                	unimp
    80004d92:	3f80                	fld	fs0,56(a5)
    80004d94:	0000                	unimp
    80004d96:	3f80                	fld	fs0,56(a5)
    80004d98:	0000                	unimp
    80004d9a:	4000                	lw	s0,0(s0)
    80004d9c:	0000                	unimp
    80004d9e:	0000                	unimp
    80004da0:	0000                	unimp
    80004da2:	4040                	lw	s0,4(s0)
    80004da4:	0000                	unimp
    80004da6:	3f80                	fld	fs0,56(a5)
    80004da8:	0000                	unimp
    80004daa:	3f80                	fld	fs0,56(a5)
    80004dac:	0000                	unimp
    80004dae:	4000                	lw	s0,0(s0)
    80004db0:	0000                	unimp
    80004db2:	4000                	lw	s0,0(s0)
    80004db4:	0000                	unimp
    80004db6:	4040                	lw	s0,4(s0)
    80004db8:	0000                	unimp
    80004dba:	4040                	lw	s0,4(s0)
    80004dbc:	0000                	unimp
    80004dbe:	3f80                	fld	fs0,56(a5)
    80004dc0:	0000                	unimp
    80004dc2:	4040                	lw	s0,4(s0)
    80004dc4:	0000                	unimp
    80004dc6:	4000                	lw	s0,0(s0)
    80004dc8:	0000                	unimp
    80004dca:	0000                	unimp
    80004dcc:	0000                	unimp
    80004dce:	0000                	unimp
    80004dd0:	0000                	unimp
    80004dd2:	0000                	unimp
    80004dd4:	0000                	unimp
    80004dd6:	4040                	lw	s0,4(s0)
    80004dd8:	0000                	unimp
    80004dda:	4040                	lw	s0,4(s0)
    80004ddc:	0000                	unimp
    80004dde:	4040                	lw	s0,4(s0)
    80004de0:	0000                	unimp
    80004de2:	4000                	lw	s0,0(s0)
    80004de4:	0000                	unimp
    80004de6:	3f80                	fld	fs0,56(a5)
    80004de8:	0000                	unimp
    80004dea:	4000                	lw	s0,0(s0)
    80004dec:	0000                	unimp
    80004dee:	4040                	lw	s0,4(s0)
    80004df0:	0000                	unimp
    80004df2:	3f80                	fld	fs0,56(a5)
    80004df4:	0000                	unimp
    80004df6:	0000                	unimp
    80004df8:	0000                	unimp
    80004dfa:	0000                	unimp
    80004dfc:	0000                	unimp
    80004dfe:	0000                	unimp
    80004e00:	0000                	unimp
    80004e02:	0000                	unimp
    80004e04:	0000                	unimp
    80004e06:	3f80                	fld	fs0,56(a5)
    80004e08:	0000                	unimp
    80004e0a:	4000                	lw	s0,0(s0)
    80004e0c:	0000                	unimp
    80004e0e:	4000                	lw	s0,0(s0)
    80004e10:	0000                	unimp
    80004e12:	3f80                	fld	fs0,56(a5)
    80004e14:	0000                	unimp
    80004e16:	3f80                	fld	fs0,56(a5)
    80004e18:	0000                	unimp
    80004e1a:	4040                	lw	s0,4(s0)
    80004e1c:	0000                	unimp
    80004e1e:	4040                	lw	s0,4(s0)
    80004e20:	0000                	unimp
    80004e22:	4040                	lw	s0,4(s0)
    80004e24:	0000                	unimp
    80004e26:	3f80                	fld	fs0,56(a5)
    80004e28:	0000                	unimp
    80004e2a:	3f80                	fld	fs0,56(a5)
    80004e2c:	0000                	unimp
    80004e2e:	4000                	lw	s0,0(s0)
    80004e30:	0000                	unimp
    80004e32:	4040                	lw	s0,4(s0)
    80004e34:	0000                	unimp
    80004e36:	3f80                	fld	fs0,56(a5)
    80004e38:	0000                	unimp
    80004e3a:	4040                	lw	s0,4(s0)
    80004e3c:	0000                	unimp
    80004e3e:	4040                	lw	s0,4(s0)
    80004e40:	0000                	unimp
    80004e42:	4000                	lw	s0,0(s0)
    80004e44:	0000                	unimp
    80004e46:	4040                	lw	s0,4(s0)
    80004e48:	0000                	unimp
    80004e4a:	4000                	lw	s0,0(s0)
    80004e4c:	0000                	unimp
    80004e4e:	3f80                	fld	fs0,56(a5)
    80004e50:	0000                	unimp
    80004e52:	4000                	lw	s0,0(s0)
    80004e54:	0000                	unimp
    80004e56:	4040                	lw	s0,4(s0)
    80004e58:	0000                	unimp
    80004e5a:	0000                	unimp
    80004e5c:	0000                	unimp
    80004e5e:	4000                	lw	s0,0(s0)
    80004e60:	0000                	unimp
    80004e62:	4000                	lw	s0,0(s0)
    80004e64:	0000                	unimp
    80004e66:	3f80                	fld	fs0,56(a5)
    80004e68:	0000                	unimp
    80004e6a:	3f80                	fld	fs0,56(a5)
    80004e6c:	0000                	unimp
    80004e6e:	0000                	unimp
    80004e70:	0000                	unimp
    80004e72:	0000                	unimp
    80004e74:	0000                	unimp
    80004e76:	0000                	unimp
    80004e78:	0000                	unimp
    80004e7a:	0000                	unimp
    80004e7c:	0000                	unimp
    80004e7e:	0000                	unimp
    80004e80:	0000                	unimp
    80004e82:	3f80                	fld	fs0,56(a5)
    80004e84:	0000                	unimp
    80004e86:	4040                	lw	s0,4(s0)
    80004e88:	0000                	unimp
    80004e8a:	4040                	lw	s0,4(s0)
    80004e8c:	0000                	unimp
    80004e8e:	3f80                	fld	fs0,56(a5)
    80004e90:	0000                	unimp
    80004e92:	3f80                	fld	fs0,56(a5)
    80004e94:	0000                	unimp
    80004e96:	3f80                	fld	fs0,56(a5)
    80004e98:	0000                	unimp
    80004e9a:	4000                	lw	s0,0(s0)
    80004e9c:	0000                	unimp
    80004e9e:	4000                	lw	s0,0(s0)
    80004ea0:	0000                	unimp
    80004ea2:	4040                	lw	s0,4(s0)
    80004ea4:	0000                	unimp
    80004ea6:	4000                	lw	s0,0(s0)
    80004ea8:	0000                	unimp
    80004eaa:	3f80                	fld	fs0,56(a5)
    80004eac:	0000                	unimp
    80004eae:	3f80                	fld	fs0,56(a5)
    80004eb0:	0000                	unimp
    80004eb2:	3f80                	fld	fs0,56(a5)
    80004eb4:	0000                	unimp
    80004eb6:	3f80                	fld	fs0,56(a5)
    80004eb8:	0000                	unimp
    80004eba:	4040                	lw	s0,4(s0)
    80004ebc:	0000                	unimp
    80004ebe:	0000                	unimp
    80004ec0:	0000                	unimp
    80004ec2:	4000                	lw	s0,0(s0)
    80004ec4:	0000                	unimp
    80004ec6:	4000                	lw	s0,0(s0)
    80004ec8:	0000                	unimp
    80004eca:	3f80                	fld	fs0,56(a5)
    80004ecc:	0000                	unimp
    80004ece:	4040                	lw	s0,4(s0)
    80004ed0:	0000                	unimp
    80004ed2:	4000                	lw	s0,0(s0)
    80004ed4:	0000                	unimp
    80004ed6:	3f80                	fld	fs0,56(a5)
    80004ed8:	0000                	unimp
    80004eda:	4000                	lw	s0,0(s0)
    80004edc:	0000                	unimp
    80004ede:	4000                	lw	s0,0(s0)
    80004ee0:	0000                	unimp
    80004ee2:	3f80                	fld	fs0,56(a5)
    80004ee4:	0000                	unimp
    80004ee6:	4040                	lw	s0,4(s0)
    80004ee8:	0000                	unimp
    80004eea:	3f80                	fld	fs0,56(a5)
    80004eec:	0000                	unimp
    80004eee:	4040                	lw	s0,4(s0)
    80004ef0:	0000                	unimp
    80004ef2:	3f80                	fld	fs0,56(a5)
    80004ef4:	0000                	unimp
    80004ef6:	4040                	lw	s0,4(s0)
    80004ef8:	0000                	unimp
    80004efa:	4000                	lw	s0,0(s0)
    80004efc:	0000                	unimp
    80004efe:	4040                	lw	s0,4(s0)
    80004f00:	0000                	unimp
    80004f02:	3f80                	fld	fs0,56(a5)
    80004f04:	0000                	unimp
    80004f06:	4000                	lw	s0,0(s0)
    80004f08:	0000                	unimp
    80004f0a:	3f80                	fld	fs0,56(a5)
    80004f0c:	0000                	unimp
    80004f0e:	4040                	lw	s0,4(s0)
    80004f10:	0000                	unimp
    80004f12:	4000                	lw	s0,0(s0)
    80004f14:	0000                	unimp
    80004f16:	4000                	lw	s0,0(s0)
    80004f18:	0000                	unimp
    80004f1a:	0000                	unimp
    80004f1c:	0000                	unimp
    80004f1e:	3f80                	fld	fs0,56(a5)
    80004f20:	0000                	unimp
    80004f22:	0000                	unimp
    80004f24:	0000                	unimp
    80004f26:	0000                	unimp
    80004f28:	0000                	unimp
    80004f2a:	3f80                	fld	fs0,56(a5)
    80004f2c:	0000                	unimp
    80004f2e:	4000                	lw	s0,0(s0)
    80004f30:	0000                	unimp
    80004f32:	4040                	lw	s0,4(s0)
    80004f34:	0000                	unimp
    80004f36:	4040                	lw	s0,4(s0)
    80004f38:	0000                	unimp
    80004f3a:	3f80                	fld	fs0,56(a5)
    80004f3c:	0000                	unimp
    80004f3e:	0000                	unimp
    80004f40:	0000                	unimp
    80004f42:	0000                	unimp
    80004f44:	0000                	unimp
    80004f46:	0000                	unimp
    80004f48:	0000                	unimp
    80004f4a:	4040                	lw	s0,4(s0)
    80004f4c:	0000                	unimp
    80004f4e:	3f80                	fld	fs0,56(a5)
    80004f50:	0000                	unimp
    80004f52:	4000                	lw	s0,0(s0)
    80004f54:	0000                	unimp
    80004f56:	4040                	lw	s0,4(s0)
    80004f58:	0000                	unimp
    80004f5a:	4000                	lw	s0,0(s0)
    80004f5c:	0000                	unimp
    80004f5e:	4040                	lw	s0,4(s0)
    80004f60:	0000                	unimp
    80004f62:	4000                	lw	s0,0(s0)
    80004f64:	0000                	unimp
    80004f66:	0000                	unimp
    80004f68:	0000                	unimp
    80004f6a:	0000                	unimp
    80004f6c:	0000                	unimp
    80004f6e:	0000                	unimp
    80004f70:	0000                	unimp
    80004f72:	0000                	unimp
    80004f74:	0000                	unimp
    80004f76:	0000                	unimp
    80004f78:	0000                	unimp
    80004f7a:	4040                	lw	s0,4(s0)
    80004f7c:	0000                	unimp
    80004f7e:	3f80                	fld	fs0,56(a5)
    80004f80:	0000                	unimp
    80004f82:	4040                	lw	s0,4(s0)
    80004f84:	0000                	unimp
    80004f86:	0000                	unimp
    80004f88:	0000                	unimp
    80004f8a:	0000                	unimp
    80004f8c:	0000                	unimp
    80004f8e:	0000                	unimp
    80004f90:	0000                	unimp
    80004f92:	4040                	lw	s0,4(s0)
    80004f94:	0000                	unimp
    80004f96:	3f80                	fld	fs0,56(a5)
    80004f98:	0000                	unimp
    80004f9a:	3f80                	fld	fs0,56(a5)
    80004f9c:	0000                	unimp
    80004f9e:	3f80                	fld	fs0,56(a5)
    80004fa0:	0000                	unimp
    80004fa2:	3f80                	fld	fs0,56(a5)
    80004fa4:	0000                	unimp
    80004fa6:	4000                	lw	s0,0(s0)
    80004fa8:	0000                	unimp
    80004faa:	3f80                	fld	fs0,56(a5)
    80004fac:	0000                	unimp
    80004fae:	4000                	lw	s0,0(s0)
    80004fb0:	0000                	unimp
    80004fb2:	4040                	lw	s0,4(s0)
    80004fb4:	0000                	unimp
    80004fb6:	4000                	lw	s0,0(s0)
    80004fb8:	0000                	unimp
    80004fba:	0000                	unimp
    80004fbc:	0000                	unimp
    80004fbe:	0000                	unimp
    80004fc0:	0000                	unimp
    80004fc2:	4000                	lw	s0,0(s0)
    80004fc4:	0000                	unimp
    80004fc6:	4000                	lw	s0,0(s0)
    80004fc8:	0000                	unimp
    80004fca:	4040                	lw	s0,4(s0)
    80004fcc:	0000                	unimp
    80004fce:	0000                	unimp
    80004fd0:	0000                	unimp
    80004fd2:	4040                	lw	s0,4(s0)
    80004fd4:	0000                	unimp
    80004fd6:	0000                	unimp
    80004fd8:	0000                	unimp
    80004fda:	0000                	unimp
    80004fdc:	0000                	unimp
    80004fde:	4040                	lw	s0,4(s0)
    80004fe0:	0000                	unimp
    80004fe2:	0000                	unimp
    80004fe4:	0000                	unimp
    80004fe6:	4040                	lw	s0,4(s0)
    80004fe8:	0000                	unimp
    80004fea:	3f80                	fld	fs0,56(a5)
    80004fec:	0000                	unimp
    80004fee:	4040                	lw	s0,4(s0)
    80004ff0:	0000                	unimp
    80004ff2:	4040                	lw	s0,4(s0)
    80004ff4:	0000                	unimp
    80004ff6:	3f80                	fld	fs0,56(a5)
    80004ff8:	0000                	unimp
    80004ffa:	3f80                	fld	fs0,56(a5)
    80004ffc:	0000                	unimp
    80004ffe:	3f80                	fld	fs0,56(a5)
    80005000:	0000                	unimp
    80005002:	4000                	lw	s0,0(s0)
    80005004:	0000                	unimp
    80005006:	4000                	lw	s0,0(s0)
    80005008:	0000                	unimp
    8000500a:	3f80                	fld	fs0,56(a5)
    8000500c:	0000                	unimp
    8000500e:	4040                	lw	s0,4(s0)
    80005010:	0000                	unimp
    80005012:	0000                	unimp
    80005014:	0000                	unimp
    80005016:	4040                	lw	s0,4(s0)
    80005018:	0000                	unimp
    8000501a:	4040                	lw	s0,4(s0)
    8000501c:	0000                	unimp
    8000501e:	3f80                	fld	fs0,56(a5)
    80005020:	0000                	unimp
    80005022:	0000                	unimp
    80005024:	0000                	unimp
    80005026:	0000                	unimp
    80005028:	0000                	unimp
    8000502a:	4040                	lw	s0,4(s0)
    8000502c:	0000                	unimp
    8000502e:	4000                	lw	s0,0(s0)
    80005030:	0000                	unimp
    80005032:	3f80                	fld	fs0,56(a5)
    80005034:	0000                	unimp
    80005036:	4040                	lw	s0,4(s0)
    80005038:	0000                	unimp
    8000503a:	4040                	lw	s0,4(s0)
    8000503c:	0000                	unimp
    8000503e:	4040                	lw	s0,4(s0)
    80005040:	0000                	unimp
    80005042:	3f80                	fld	fs0,56(a5)
    80005044:	0000                	unimp
    80005046:	0000                	unimp
    80005048:	0000                	unimp
    8000504a:	3f80                	fld	fs0,56(a5)
    8000504c:	0000                	unimp
    8000504e:	3f80                	fld	fs0,56(a5)
    80005050:	0000                	unimp
    80005052:	4000                	lw	s0,0(s0)
    80005054:	0000                	unimp
    80005056:	3f80                	fld	fs0,56(a5)
    80005058:	0000                	unimp
    8000505a:	0000                	unimp
    8000505c:	0000                	unimp
    8000505e:	3f80                	fld	fs0,56(a5)
    80005060:	0000                	unimp
    80005062:	3f80                	fld	fs0,56(a5)
    80005064:	0000                	unimp
    80005066:	4000                	lw	s0,0(s0)
    80005068:	0000                	unimp
    8000506a:	4000                	lw	s0,0(s0)
    8000506c:	0000                	unimp
    8000506e:	4040                	lw	s0,4(s0)
    80005070:	0000                	unimp
    80005072:	3f80                	fld	fs0,56(a5)
    80005074:	0000                	unimp
    80005076:	4000                	lw	s0,0(s0)
    80005078:	0000                	unimp
    8000507a:	4000                	lw	s0,0(s0)
    8000507c:	0000                	unimp
    8000507e:	4000                	lw	s0,0(s0)
    80005080:	0000                	unimp
    80005082:	0000                	unimp
    80005084:	0000                	unimp
    80005086:	3f80                	fld	fs0,56(a5)
    80005088:	0000                	unimp
    8000508a:	4040                	lw	s0,4(s0)
    8000508c:	0000                	unimp
    8000508e:	4040                	lw	s0,4(s0)
    80005090:	0000                	unimp
    80005092:	4040                	lw	s0,4(s0)
    80005094:	0000                	unimp
    80005096:	4000                	lw	s0,0(s0)
    80005098:	0000                	unimp
    8000509a:	4000                	lw	s0,0(s0)
    8000509c:	0000                	unimp
    8000509e:	3f80                	fld	fs0,56(a5)
    800050a0:	0000                	unimp
    800050a2:	0000                	unimp
    800050a4:	0000                	unimp
    800050a6:	3f80                	fld	fs0,56(a5)
    800050a8:	0000                	unimp
    800050aa:	4000                	lw	s0,0(s0)
    800050ac:	0000                	unimp
    800050ae:	0000                	unimp
    800050b0:	0000                	unimp
    800050b2:	3f80                	fld	fs0,56(a5)
    800050b4:	0000                	unimp
    800050b6:	3f80                	fld	fs0,56(a5)
    800050b8:	0000                	unimp
    800050ba:	3f80                	fld	fs0,56(a5)
    800050bc:	0000                	unimp
    800050be:	3f80                	fld	fs0,56(a5)
    800050c0:	0000                	unimp
    800050c2:	4000                	lw	s0,0(s0)
    800050c4:	0000                	unimp
    800050c6:	4040                	lw	s0,4(s0)
    800050c8:	0000                	unimp
    800050ca:	4000                	lw	s0,0(s0)
    800050cc:	0000                	unimp
    800050ce:	4000                	lw	s0,0(s0)
    800050d0:	0000                	unimp
    800050d2:	4040                	lw	s0,4(s0)
    800050d4:	0000                	unimp
    800050d6:	4040                	lw	s0,4(s0)
    800050d8:	0000                	unimp
    800050da:	0000                	unimp
    800050dc:	0000                	unimp
    800050de:	0000                	unimp
    800050e0:	0000                	unimp
    800050e2:	4000                	lw	s0,0(s0)
    800050e4:	0000                	unimp
    800050e6:	0000                	unimp
    800050e8:	0000                	unimp
    800050ea:	0000                	unimp
    800050ec:	0000                	unimp
    800050ee:	0000                	unimp
    800050f0:	0000                	unimp
    800050f2:	4040                	lw	s0,4(s0)
    800050f4:	0000                	unimp
    800050f6:	0000                	unimp
    800050f8:	0000                	unimp
    800050fa:	3f80                	fld	fs0,56(a5)
    800050fc:	0000                	unimp
    800050fe:	0000                	unimp
    80005100:	0000                	unimp
    80005102:	4040                	lw	s0,4(s0)
    80005104:	0000                	unimp
    80005106:	0000                	unimp
    80005108:	0000                	unimp
    8000510a:	0000                	unimp
    8000510c:	0000                	unimp
    8000510e:	0000                	unimp
    80005110:	0000                	unimp
    80005112:	4040                	lw	s0,4(s0)
    80005114:	0000                	unimp
    80005116:	0000                	unimp
    80005118:	0000                	unimp
    8000511a:	0000                	unimp
    8000511c:	0000                	unimp
    8000511e:	4000                	lw	s0,0(s0)
    80005120:	0000                	unimp
    80005122:	0000                	unimp
    80005124:	0000                	unimp
    80005126:	4000                	lw	s0,0(s0)
    80005128:	0000                	unimp
    8000512a:	0000                	unimp
    8000512c:	0000                	unimp
    8000512e:	0000                	unimp
    80005130:	0000                	unimp
    80005132:	4000                	lw	s0,0(s0)
    80005134:	0000                	unimp
    80005136:	4040                	lw	s0,4(s0)
    80005138:	0000                	unimp
    8000513a:	4000                	lw	s0,0(s0)
    8000513c:	0000                	unimp
    8000513e:	0000                	unimp
    80005140:	0000                	unimp
    80005142:	0000                	unimp
    80005144:	0000                	unimp
    80005146:	4040                	lw	s0,4(s0)
    80005148:	0000                	unimp
    8000514a:	4040                	lw	s0,4(s0)
    8000514c:	0000                	unimp
    8000514e:	4000                	lw	s0,0(s0)
    80005150:	0000                	unimp
    80005152:	3f80                	fld	fs0,56(a5)
    80005154:	0000                	unimp
    80005156:	3f80                	fld	fs0,56(a5)
    80005158:	0000                	unimp
    8000515a:	0000                	unimp
    8000515c:	0000                	unimp
    8000515e:	4000                	lw	s0,0(s0)
    80005160:	0000                	unimp
    80005162:	0000                	unimp
    80005164:	0000                	unimp
    80005166:	0000                	unimp
    80005168:	0000                	unimp
    8000516a:	4040                	lw	s0,4(s0)
    8000516c:	0000                	unimp
    8000516e:	4040                	lw	s0,4(s0)
    80005170:	0000                	unimp
    80005172:	4000                	lw	s0,0(s0)
    80005174:	0000                	unimp
    80005176:	4040                	lw	s0,4(s0)
    80005178:	0000                	unimp
    8000517a:	4040                	lw	s0,4(s0)
    8000517c:	0000                	unimp
    8000517e:	0000                	unimp
    80005180:	0000                	unimp
    80005182:	3f80                	fld	fs0,56(a5)
    80005184:	0000                	unimp
    80005186:	0000                	unimp
    80005188:	0000                	unimp
    8000518a:	4000                	lw	s0,0(s0)
    8000518c:	0000                	unimp
    8000518e:	4000                	lw	s0,0(s0)
    80005190:	0000                	unimp
    80005192:	0000                	unimp
    80005194:	0000                	unimp
    80005196:	4040                	lw	s0,4(s0)
    80005198:	0000                	unimp
    8000519a:	4040                	lw	s0,4(s0)
    8000519c:	0000                	unimp
    8000519e:	3f80                	fld	fs0,56(a5)
    800051a0:	0000                	unimp
    800051a2:	3f80                	fld	fs0,56(a5)
    800051a4:	0000                	unimp
    800051a6:	0000                	unimp
    800051a8:	0000                	unimp
    800051aa:	4000                	lw	s0,0(s0)
    800051ac:	0000                	unimp
    800051ae:	4040                	lw	s0,4(s0)
    800051b0:	0000                	unimp
    800051b2:	4000                	lw	s0,0(s0)
    800051b4:	0000                	unimp
    800051b6:	3f80                	fld	fs0,56(a5)
    800051b8:	0000                	unimp
    800051ba:	3f80                	fld	fs0,56(a5)
    800051bc:	0000                	unimp
    800051be:	0000                	unimp
    800051c0:	0000                	unimp
    800051c2:	3f80                	fld	fs0,56(a5)
    800051c4:	0000                	unimp
    800051c6:	4000                	lw	s0,0(s0)
    800051c8:	0000                	unimp
    800051ca:	3f80                	fld	fs0,56(a5)
    800051cc:	0000                	unimp
    800051ce:	4000                	lw	s0,0(s0)
    800051d0:	0000                	unimp
    800051d2:	4000                	lw	s0,0(s0)
    800051d4:	0000                	unimp
    800051d6:	0000                	unimp
    800051d8:	0000                	unimp
    800051da:	0000                	unimp
    800051dc:	0000                	unimp
    800051de:	3f80                	fld	fs0,56(a5)
    800051e0:	0000                	unimp
    800051e2:	0000                	unimp
    800051e4:	0000                	unimp
    800051e6:	3f80                	fld	fs0,56(a5)
    800051e8:	0000                	unimp
    800051ea:	3f80                	fld	fs0,56(a5)
    800051ec:	0000                	unimp
    800051ee:	0000                	unimp
    800051f0:	0000                	unimp
    800051f2:	3f80                	fld	fs0,56(a5)
    800051f4:	0000                	unimp
    800051f6:	0000                	unimp
    800051f8:	0000                	unimp
    800051fa:	4000                	lw	s0,0(s0)
    800051fc:	0000                	unimp
    800051fe:	4040                	lw	s0,4(s0)
    80005200:	0000                	unimp
    80005202:	4040                	lw	s0,4(s0)
    80005204:	0000                	unimp
    80005206:	4000                	lw	s0,0(s0)
    80005208:	0000                	unimp
    8000520a:	0000                	unimp
    8000520c:	0000                	unimp
    8000520e:	0000                	unimp
    80005210:	0000                	unimp
    80005212:	3f80                	fld	fs0,56(a5)
    80005214:	0000                	unimp
    80005216:	4040                	lw	s0,4(s0)
    80005218:	0000                	unimp
    8000521a:	0000                	unimp
    8000521c:	0000                	unimp
    8000521e:	4040                	lw	s0,4(s0)
    80005220:	0000                	unimp
    80005222:	4040                	lw	s0,4(s0)
    80005224:	0000                	unimp
    80005226:	0000                	unimp
    80005228:	0000                	unimp
    8000522a:	0000                	unimp
    8000522c:	0000                	unimp
    8000522e:	0000                	unimp
    80005230:	0000                	unimp
    80005232:	0000                	unimp
    80005234:	0000                	unimp
    80005236:	4040                	lw	s0,4(s0)
    80005238:	0000                	unimp
    8000523a:	4040                	lw	s0,4(s0)
    8000523c:	0000                	unimp
    8000523e:	3f80                	fld	fs0,56(a5)
    80005240:	0000                	unimp
    80005242:	0000                	unimp
    80005244:	0000                	unimp
    80005246:	0000                	unimp
    80005248:	0000                	unimp
    8000524a:	4040                	lw	s0,4(s0)
    8000524c:	0000                	unimp
    8000524e:	4040                	lw	s0,4(s0)
    80005250:	0000                	unimp
    80005252:	4000                	lw	s0,0(s0)
    80005254:	0000                	unimp
    80005256:	3f80                	fld	fs0,56(a5)
    80005258:	0000                	unimp
    8000525a:	4000                	lw	s0,0(s0)
    8000525c:	0000                	unimp
    8000525e:	3f80                	fld	fs0,56(a5)
    80005260:	0000                	unimp
    80005262:	4040                	lw	s0,4(s0)
    80005264:	0000                	unimp
    80005266:	4040                	lw	s0,4(s0)
    80005268:	0000                	unimp
    8000526a:	0000                	unimp
    8000526c:	0000                	unimp
    8000526e:	3f80                	fld	fs0,56(a5)
    80005270:	0000                	unimp
    80005272:	4040                	lw	s0,4(s0)
    80005274:	0000                	unimp
    80005276:	0000                	unimp
    80005278:	0000                	unimp
    8000527a:	4000                	lw	s0,0(s0)
    8000527c:	0000                	unimp
    8000527e:	4040                	lw	s0,4(s0)
    80005280:	0000                	unimp
    80005282:	3f80                	fld	fs0,56(a5)
    80005284:	0000                	unimp
    80005286:	4040                	lw	s0,4(s0)
    80005288:	0000                	unimp
    8000528a:	4040                	lw	s0,4(s0)
    8000528c:	0000                	unimp
    8000528e:	4040                	lw	s0,4(s0)
    80005290:	0000                	unimp
    80005292:	4040                	lw	s0,4(s0)
    80005294:	0000                	unimp
    80005296:	4040                	lw	s0,4(s0)
    80005298:	0000                	unimp
    8000529a:	0000                	unimp
    8000529c:	0000                	unimp
    8000529e:	3f80                	fld	fs0,56(a5)
    800052a0:	0000                	unimp
    800052a2:	3f80                	fld	fs0,56(a5)
    800052a4:	0000                	unimp
    800052a6:	4040                	lw	s0,4(s0)
    800052a8:	0000                	unimp
    800052aa:	0000                	unimp
    800052ac:	0000                	unimp
    800052ae:	4000                	lw	s0,0(s0)
    800052b0:	0000                	unimp
    800052b2:	4000                	lw	s0,0(s0)
    800052b4:	0000                	unimp
    800052b6:	4040                	lw	s0,4(s0)
    800052b8:	0000                	unimp
    800052ba:	3f80                	fld	fs0,56(a5)
    800052bc:	0000                	unimp
    800052be:	4000                	lw	s0,0(s0)
    800052c0:	0000                	unimp
    800052c2:	4000                	lw	s0,0(s0)
    800052c4:	0000                	unimp
    800052c6:	4000                	lw	s0,0(s0)
    800052c8:	0000                	unimp
    800052ca:	3f80                	fld	fs0,56(a5)
    800052cc:	0000                	unimp
    800052ce:	4040                	lw	s0,4(s0)
    800052d0:	0000                	unimp
    800052d2:	4040                	lw	s0,4(s0)
    800052d4:	0000                	unimp
    800052d6:	0000                	unimp
    800052d8:	0000                	unimp
    800052da:	4040                	lw	s0,4(s0)
    800052dc:	0000                	unimp
    800052de:	0000                	unimp
    800052e0:	0000                	unimp
    800052e2:	0000                	unimp
    800052e4:	0000                	unimp
    800052e6:	4000                	lw	s0,0(s0)
    800052e8:	0000                	unimp
    800052ea:	0000                	unimp
    800052ec:	0000                	unimp
    800052ee:	4000                	lw	s0,0(s0)
    800052f0:	0000                	unimp
    800052f2:	4040                	lw	s0,4(s0)
    800052f4:	0000                	unimp
    800052f6:	0000                	unimp
    800052f8:	0000                	unimp
    800052fa:	3f80                	fld	fs0,56(a5)
    800052fc:	0000                	unimp
    800052fe:	4040                	lw	s0,4(s0)
    80005300:	0000                	unimp
    80005302:	4000                	lw	s0,0(s0)
    80005304:	0000                	unimp
    80005306:	4000                	lw	s0,0(s0)
    80005308:	0000                	unimp
    8000530a:	0000                	unimp
    8000530c:	0000                	unimp
    8000530e:	0000                	unimp
    80005310:	0000                	unimp
    80005312:	4000                	lw	s0,0(s0)
    80005314:	0000                	unimp
    80005316:	4040                	lw	s0,4(s0)
    80005318:	0000                	unimp
    8000531a:	0000                	unimp
    8000531c:	0000                	unimp
    8000531e:	4000                	lw	s0,0(s0)
    80005320:	0000                	unimp
    80005322:	4000                	lw	s0,0(s0)
    80005324:	0000                	unimp
    80005326:	4000                	lw	s0,0(s0)
    80005328:	0000                	unimp
    8000532a:	4040                	lw	s0,4(s0)
    8000532c:	0000                	unimp
    8000532e:	3f80                	fld	fs0,56(a5)
    80005330:	0000                	unimp
    80005332:	0000                	unimp
    80005334:	0000                	unimp
    80005336:	4040                	lw	s0,4(s0)
    80005338:	0000                	unimp
    8000533a:	4040                	lw	s0,4(s0)
    8000533c:	0000                	unimp
    8000533e:	4040                	lw	s0,4(s0)
    80005340:	0000                	unimp
    80005342:	4040                	lw	s0,4(s0)
    80005344:	0000                	unimp
    80005346:	3f80                	fld	fs0,56(a5)
    80005348:	0000                	unimp
    8000534a:	0000                	unimp
    8000534c:	0000                	unimp
    8000534e:	4040                	lw	s0,4(s0)
    80005350:	0000                	unimp
    80005352:	4040                	lw	s0,4(s0)
    80005354:	0000                	unimp
    80005356:	4000                	lw	s0,0(s0)
    80005358:	0000                	unimp
    8000535a:	0000                	unimp
    8000535c:	0000                	unimp
    8000535e:	4040                	lw	s0,4(s0)
    80005360:	0000                	unimp
    80005362:	4000                	lw	s0,0(s0)
    80005364:	0000                	unimp
    80005366:	0000                	unimp
    80005368:	0000                	unimp
    8000536a:	4040                	lw	s0,4(s0)
    8000536c:	0000                	unimp
    8000536e:	0000                	unimp
    80005370:	0000                	unimp
    80005372:	4000                	lw	s0,0(s0)
    80005374:	0000                	unimp
    80005376:	0000                	unimp
    80005378:	0000                	unimp
    8000537a:	0000                	unimp
    8000537c:	0000                	unimp
    8000537e:	4000                	lw	s0,0(s0)
    80005380:	0000                	unimp
    80005382:	4000                	lw	s0,0(s0)
    80005384:	0000                	unimp
    80005386:	3f80                	fld	fs0,56(a5)
    80005388:	0000                	unimp
    8000538a:	0000                	unimp
    8000538c:	0000                	unimp
    8000538e:	4000                	lw	s0,0(s0)
    80005390:	0000                	unimp
    80005392:	4040                	lw	s0,4(s0)
    80005394:	0000                	unimp
    80005396:	3f80                	fld	fs0,56(a5)
    80005398:	0000                	unimp
    8000539a:	3f80                	fld	fs0,56(a5)
    8000539c:	0000                	unimp
    8000539e:	3f80                	fld	fs0,56(a5)
    800053a0:	0000                	unimp
    800053a2:	3f80                	fld	fs0,56(a5)
    800053a4:	0000                	unimp
    800053a6:	4000                	lw	s0,0(s0)
    800053a8:	0000                	unimp
    800053aa:	4040                	lw	s0,4(s0)
    800053ac:	0000                	unimp
    800053ae:	4040                	lw	s0,4(s0)
    800053b0:	0000                	unimp
    800053b2:	4040                	lw	s0,4(s0)
    800053b4:	0000                	unimp
    800053b6:	0000                	unimp
    800053b8:	0000                	unimp
    800053ba:	0000                	unimp
    800053bc:	0000                	unimp
    800053be:	4040                	lw	s0,4(s0)
    800053c0:	0000                	unimp
    800053c2:	4040                	lw	s0,4(s0)
    800053c4:	0000                	unimp
    800053c6:	4040                	lw	s0,4(s0)
    800053c8:	0000                	unimp
    800053ca:	4000                	lw	s0,0(s0)
    800053cc:	0000                	unimp
    800053ce:	4040                	lw	s0,4(s0)
    800053d0:	0000                	unimp
    800053d2:	4040                	lw	s0,4(s0)
    800053d4:	0000                	unimp
    800053d6:	3f80                	fld	fs0,56(a5)
    800053d8:	0000                	unimp
    800053da:	4000                	lw	s0,0(s0)
    800053dc:	0000                	unimp
    800053de:	4000                	lw	s0,0(s0)
    800053e0:	0000                	unimp
    800053e2:	4040                	lw	s0,4(s0)
    800053e4:	0000                	unimp
    800053e6:	3f80                	fld	fs0,56(a5)
    800053e8:	0000                	unimp
    800053ea:	4000                	lw	s0,0(s0)
    800053ec:	0000                	unimp
    800053ee:	3f80                	fld	fs0,56(a5)
    800053f0:	0000                	unimp
    800053f2:	3f80                	fld	fs0,56(a5)
    800053f4:	0000                	unimp
    800053f6:	4040                	lw	s0,4(s0)
    800053f8:	0000                	unimp
    800053fa:	0000                	unimp
    800053fc:	0000                	unimp
    800053fe:	3f80                	fld	fs0,56(a5)
    80005400:	0000                	unimp
    80005402:	4000                	lw	s0,0(s0)
    80005404:	0000                	unimp
    80005406:	0000                	unimp
    80005408:	0000                	unimp
    8000540a:	4000                	lw	s0,0(s0)
    8000540c:	0000                	unimp
    8000540e:	0000                	unimp
    80005410:	0000                	unimp
    80005412:	0000                	unimp
    80005414:	0000                	unimp
    80005416:	3f80                	fld	fs0,56(a5)
    80005418:	0000                	unimp
    8000541a:	4040                	lw	s0,4(s0)
    8000541c:	0000                	unimp
    8000541e:	4000                	lw	s0,0(s0)
    80005420:	0000                	unimp
    80005422:	0000                	unimp
    80005424:	0000                	unimp
    80005426:	3f80                	fld	fs0,56(a5)
    80005428:	0000                	unimp
    8000542a:	4040                	lw	s0,4(s0)
    8000542c:	0000                	unimp
    8000542e:	4000                	lw	s0,0(s0)
    80005430:	0000                	unimp
    80005432:	4040                	lw	s0,4(s0)
    80005434:	0000                	unimp
    80005436:	4040                	lw	s0,4(s0)
    80005438:	0000                	unimp
    8000543a:	0000                	unimp
    8000543c:	0000                	unimp
    8000543e:	0000                	unimp
    80005440:	0000                	unimp
    80005442:	0000                	unimp
    80005444:	0000                	unimp
    80005446:	3f80                	fld	fs0,56(a5)
    80005448:	0000                	unimp
    8000544a:	0000                	unimp
    8000544c:	0000                	unimp
    8000544e:	4040                	lw	s0,4(s0)
    80005450:	0000                	unimp
    80005452:	4040                	lw	s0,4(s0)
    80005454:	0000                	unimp
    80005456:	4000                	lw	s0,0(s0)
    80005458:	0000                	unimp
    8000545a:	4000                	lw	s0,0(s0)
    8000545c:	0000                	unimp
    8000545e:	4000                	lw	s0,0(s0)
    80005460:	0000                	unimp
    80005462:	3f80                	fld	fs0,56(a5)
    80005464:	0000                	unimp
    80005466:	3f80                	fld	fs0,56(a5)
    80005468:	0000                	unimp
    8000546a:	4000                	lw	s0,0(s0)
    8000546c:	0000                	unimp
    8000546e:	4000                	lw	s0,0(s0)
    80005470:	0000                	unimp
    80005472:	3f80                	fld	fs0,56(a5)
    80005474:	0000                	unimp
    80005476:	4040                	lw	s0,4(s0)
    80005478:	0000                	unimp
    8000547a:	4000                	lw	s0,0(s0)
    8000547c:	0000                	unimp
    8000547e:	0000                	unimp
    80005480:	0000                	unimp
    80005482:	3f80                	fld	fs0,56(a5)
    80005484:	0000                	unimp
    80005486:	4040                	lw	s0,4(s0)
    80005488:	0000                	unimp
    8000548a:	4000                	lw	s0,0(s0)
    8000548c:	0000                	unimp
    8000548e:	0000                	unimp
    80005490:	0000                	unimp
    80005492:	4000                	lw	s0,0(s0)
    80005494:	0000                	unimp
    80005496:	3f80                	fld	fs0,56(a5)
    80005498:	0000                	unimp
    8000549a:	4040                	lw	s0,4(s0)
    8000549c:	0000                	unimp
    8000549e:	0000                	unimp
    800054a0:	0000                	unimp
    800054a2:	0000                	unimp
    800054a4:	0000                	unimp
    800054a6:	0000                	unimp
    800054a8:	0000                	unimp
    800054aa:	3f80                	fld	fs0,56(a5)
    800054ac:	0000                	unimp
    800054ae:	4040                	lw	s0,4(s0)
    800054b0:	0000                	unimp
    800054b2:	4040                	lw	s0,4(s0)
    800054b4:	0000                	unimp
    800054b6:	4000                	lw	s0,0(s0)
    800054b8:	0000                	unimp
    800054ba:	4000                	lw	s0,0(s0)
    800054bc:	0000                	unimp
    800054be:	4000                	lw	s0,0(s0)
    800054c0:	0000                	unimp
    800054c2:	4040                	lw	s0,4(s0)
    800054c4:	0000                	unimp
    800054c6:	3f80                	fld	fs0,56(a5)
    800054c8:	0000                	unimp
    800054ca:	0000                	unimp
    800054cc:	0000                	unimp
    800054ce:	0000                	unimp
    800054d0:	0000                	unimp
    800054d2:	3f80                	fld	fs0,56(a5)
    800054d4:	0000                	unimp
    800054d6:	3f80                	fld	fs0,56(a5)
    800054d8:	0000                	unimp
    800054da:	4000                	lw	s0,0(s0)
    800054dc:	0000                	unimp
    800054de:	3f80                	fld	fs0,56(a5)
    800054e0:	0000                	unimp
    800054e2:	4040                	lw	s0,4(s0)
    800054e4:	0000                	unimp
    800054e6:	3f80                	fld	fs0,56(a5)
    800054e8:	0000                	unimp
    800054ea:	3f80                	fld	fs0,56(a5)
    800054ec:	0000                	unimp
    800054ee:	4000                	lw	s0,0(s0)
    800054f0:	0000                	unimp
    800054f2:	4000                	lw	s0,0(s0)
    800054f4:	0000                	unimp
    800054f6:	4040                	lw	s0,4(s0)
    800054f8:	0000                	unimp
    800054fa:	4000                	lw	s0,0(s0)
    800054fc:	0000                	unimp
    800054fe:	4040                	lw	s0,4(s0)
    80005500:	0000                	unimp
    80005502:	0000                	unimp
    80005504:	0000                	unimp
    80005506:	4000                	lw	s0,0(s0)
    80005508:	0000                	unimp
    8000550a:	4040                	lw	s0,4(s0)
    8000550c:	0000                	unimp
    8000550e:	4040                	lw	s0,4(s0)
    80005510:	0000                	unimp
    80005512:	0000                	unimp
    80005514:	0000                	unimp
    80005516:	4040                	lw	s0,4(s0)
    80005518:	0000                	unimp
    8000551a:	0000                	unimp
    8000551c:	0000                	unimp
    8000551e:	0000                	unimp
    80005520:	0000                	unimp
    80005522:	3f80                	fld	fs0,56(a5)
    80005524:	0000                	unimp
    80005526:	0000                	unimp
    80005528:	0000                	unimp
    8000552a:	0000                	unimp
    8000552c:	0000                	unimp
    8000552e:	0000                	unimp
    80005530:	0000                	unimp
    80005532:	3f80                	fld	fs0,56(a5)
    80005534:	0000                	unimp
    80005536:	4040                	lw	s0,4(s0)
    80005538:	0000                	unimp
    8000553a:	3f80                	fld	fs0,56(a5)
    8000553c:	0000                	unimp
    8000553e:	3f80                	fld	fs0,56(a5)
    80005540:	0000                	unimp
    80005542:	4000                	lw	s0,0(s0)
    80005544:	0000                	unimp
    80005546:	4040                	lw	s0,4(s0)
    80005548:	0000                	unimp
    8000554a:	4000                	lw	s0,0(s0)
    8000554c:	0000                	unimp
    8000554e:	3f80                	fld	fs0,56(a5)
    80005550:	0000                	unimp
    80005552:	3f80                	fld	fs0,56(a5)
    80005554:	0000                	unimp
    80005556:	4000                	lw	s0,0(s0)
    80005558:	0000                	unimp
    8000555a:	4000                	lw	s0,0(s0)
    8000555c:	0000                	unimp
    8000555e:	4000                	lw	s0,0(s0)
    80005560:	0000                	unimp
    80005562:	4040                	lw	s0,4(s0)
    80005564:	0000                	unimp
    80005566:	0000                	unimp
    80005568:	0000                	unimp
    8000556a:	3f80                	fld	fs0,56(a5)
    8000556c:	0000                	unimp
    8000556e:	3f80                	fld	fs0,56(a5)
    80005570:	0000                	unimp
    80005572:	4000                	lw	s0,0(s0)
    80005574:	0000                	unimp
    80005576:	3f80                	fld	fs0,56(a5)
    80005578:	0000                	unimp
    8000557a:	4000                	lw	s0,0(s0)
    8000557c:	0000                	unimp
    8000557e:	0000                	unimp
    80005580:	0000                	unimp
    80005582:	4000                	lw	s0,0(s0)
    80005584:	0000                	unimp
    80005586:	4040                	lw	s0,4(s0)
    80005588:	0000                	unimp
    8000558a:	3f80                	fld	fs0,56(a5)
    8000558c:	0000                	unimp
    8000558e:	4040                	lw	s0,4(s0)
    80005590:	0000                	unimp
    80005592:	0000                	unimp
    80005594:	0000                	unimp
    80005596:	3f80                	fld	fs0,56(a5)
    80005598:	0000                	unimp
    8000559a:	3f80                	fld	fs0,56(a5)
    8000559c:	0000                	unimp
    8000559e:	4040                	lw	s0,4(s0)
    800055a0:	0000                	unimp
    800055a2:	0000                	unimp
    800055a4:	0000                	unimp
    800055a6:	4000                	lw	s0,0(s0)
    800055a8:	0000                	unimp
    800055aa:	4040                	lw	s0,4(s0)
    800055ac:	0000                	unimp
    800055ae:	0000                	unimp
    800055b0:	0000                	unimp
    800055b2:	3f80                	fld	fs0,56(a5)
    800055b4:	0000                	unimp
    800055b6:	4000                	lw	s0,0(s0)
    800055b8:	0000                	unimp
    800055ba:	4040                	lw	s0,4(s0)
    800055bc:	0000                	unimp
    800055be:	4000                	lw	s0,0(s0)
    800055c0:	0000                	unimp
    800055c2:	0000                	unimp
    800055c4:	0000                	unimp
    800055c6:	0000                	unimp
    800055c8:	0000                	unimp
    800055ca:	4040                	lw	s0,4(s0)
    800055cc:	0000                	unimp
    800055ce:	4040                	lw	s0,4(s0)
    800055d0:	0000                	unimp
    800055d2:	4000                	lw	s0,0(s0)
    800055d4:	0000                	unimp
    800055d6:	3f80                	fld	fs0,56(a5)
    800055d8:	0000                	unimp
    800055da:	3f80                	fld	fs0,56(a5)
    800055dc:	0000                	unimp
    800055de:	4000                	lw	s0,0(s0)
    800055e0:	0000                	unimp
    800055e2:	4040                	lw	s0,4(s0)
    800055e4:	0000                	unimp
    800055e6:	0000                	unimp
    800055e8:	0000                	unimp
    800055ea:	3f80                	fld	fs0,56(a5)
    800055ec:	0000                	unimp
    800055ee:	3f80                	fld	fs0,56(a5)
    800055f0:	0000                	unimp
    800055f2:	3f80                	fld	fs0,56(a5)
    800055f4:	0000                	unimp
    800055f6:	3f80                	fld	fs0,56(a5)
    800055f8:	0000                	unimp
    800055fa:	4000                	lw	s0,0(s0)
    800055fc:	0000                	unimp
    800055fe:	0000                	unimp
    80005600:	0000                	unimp
    80005602:	3f80                	fld	fs0,56(a5)
    80005604:	0000                	unimp
    80005606:	4000                	lw	s0,0(s0)
    80005608:	0000                	unimp
    8000560a:	0000                	unimp
    8000560c:	0000                	unimp
    8000560e:	3f80                	fld	fs0,56(a5)
    80005610:	0000                	unimp
    80005612:	3f80                	fld	fs0,56(a5)
    80005614:	0000                	unimp
    80005616:	3f80                	fld	fs0,56(a5)
    80005618:	0000                	unimp
    8000561a:	0000                	unimp
    8000561c:	0000                	unimp
    8000561e:	3f80                	fld	fs0,56(a5)
    80005620:	0000                	unimp
    80005622:	4040                	lw	s0,4(s0)
    80005624:	0000                	unimp
    80005626:	4000                	lw	s0,0(s0)
    80005628:	0000                	unimp
    8000562a:	4040                	lw	s0,4(s0)
    8000562c:	0000                	unimp
    8000562e:	3f80                	fld	fs0,56(a5)
    80005630:	0000                	unimp
    80005632:	0000                	unimp
    80005634:	0000                	unimp
    80005636:	4000                	lw	s0,0(s0)
    80005638:	0000                	unimp
    8000563a:	3f80                	fld	fs0,56(a5)
    8000563c:	0000                	unimp
    8000563e:	4000                	lw	s0,0(s0)
    80005640:	0000                	unimp
    80005642:	3f80                	fld	fs0,56(a5)
    80005644:	0000                	unimp
    80005646:	4040                	lw	s0,4(s0)
    80005648:	0000                	unimp
    8000564a:	4040                	lw	s0,4(s0)
    8000564c:	0000                	unimp
    8000564e:	3f80                	fld	fs0,56(a5)
    80005650:	0000                	unimp
    80005652:	0000                	unimp
    80005654:	0000                	unimp
    80005656:	4000                	lw	s0,0(s0)
    80005658:	0000                	unimp
    8000565a:	4000                	lw	s0,0(s0)
    8000565c:	0000                	unimp
    8000565e:	4040                	lw	s0,4(s0)
    80005660:	0000                	unimp
    80005662:	3f80                	fld	fs0,56(a5)
    80005664:	0000                	unimp
    80005666:	4040                	lw	s0,4(s0)
    80005668:	0000                	unimp
    8000566a:	3f80                	fld	fs0,56(a5)
    8000566c:	0000                	unimp
    8000566e:	4040                	lw	s0,4(s0)
    80005670:	0000                	unimp
    80005672:	0000                	unimp
    80005674:	0000                	unimp
    80005676:	3f80                	fld	fs0,56(a5)
    80005678:	0000                	unimp
    8000567a:	0000                	unimp
    8000567c:	0000                	unimp
    8000567e:	4040                	lw	s0,4(s0)
    80005680:	0000                	unimp
    80005682:	0000                	unimp
    80005684:	0000                	unimp
    80005686:	4040                	lw	s0,4(s0)
    80005688:	0000                	unimp
    8000568a:	4000                	lw	s0,0(s0)
    8000568c:	0000                	unimp
    8000568e:	0000                	unimp
    80005690:	0000                	unimp
    80005692:	4040                	lw	s0,4(s0)
    80005694:	0000                	unimp
    80005696:	4040                	lw	s0,4(s0)
    80005698:	0000                	unimp
    8000569a:	4040                	lw	s0,4(s0)
    8000569c:	0000                	unimp
    8000569e:	0000                	unimp
    800056a0:	0000                	unimp
    800056a2:	4040                	lw	s0,4(s0)
    800056a4:	0000                	unimp
    800056a6:	4000                	lw	s0,0(s0)
    800056a8:	0000                	unimp
    800056aa:	4000                	lw	s0,0(s0)
    800056ac:	0000                	unimp
    800056ae:	4000                	lw	s0,0(s0)
    800056b0:	0000                	unimp
    800056b2:	3f80                	fld	fs0,56(a5)
    800056b4:	0000                	unimp
    800056b6:	4040                	lw	s0,4(s0)
    800056b8:	0000                	unimp
    800056ba:	0000                	unimp
    800056bc:	0000                	unimp
    800056be:	0000                	unimp
    800056c0:	0000                	unimp
    800056c2:	3f80                	fld	fs0,56(a5)
    800056c4:	0000                	unimp
    800056c6:	3f80                	fld	fs0,56(a5)
    800056c8:	0000                	unimp
    800056ca:	4040                	lw	s0,4(s0)
    800056cc:	0000                	unimp
    800056ce:	0000                	unimp
    800056d0:	0000                	unimp
    800056d2:	3f80                	fld	fs0,56(a5)
    800056d4:	0000                	unimp
    800056d6:	4000                	lw	s0,0(s0)
    800056d8:	0000                	unimp
    800056da:	3f80                	fld	fs0,56(a5)
    800056dc:	0000                	unimp
    800056de:	0000                	unimp
    800056e0:	0000                	unimp
    800056e2:	0000                	unimp
    800056e4:	0000                	unimp
    800056e6:	0000                	unimp
    800056e8:	0000                	unimp
    800056ea:	4040                	lw	s0,4(s0)
    800056ec:	0000                	unimp
    800056ee:	4000                	lw	s0,0(s0)
    800056f0:	0000                	unimp
    800056f2:	4000                	lw	s0,0(s0)
    800056f4:	0000                	unimp
    800056f6:	0000                	unimp
    800056f8:	0000                	unimp
    800056fa:	0000                	unimp
    800056fc:	0000                	unimp
    800056fe:	4000                	lw	s0,0(s0)
    80005700:	0000                	unimp
    80005702:	3f80                	fld	fs0,56(a5)
    80005704:	0000                	unimp
    80005706:	4040                	lw	s0,4(s0)
    80005708:	0000                	unimp
    8000570a:	0000                	unimp
    8000570c:	0000                	unimp
    8000570e:	0000                	unimp
    80005710:	0000                	unimp
    80005712:	4040                	lw	s0,4(s0)
    80005714:	0000                	unimp
    80005716:	0000                	unimp
    80005718:	0000                	unimp
    8000571a:	0000                	unimp
    8000571c:	0000                	unimp
    8000571e:	4000                	lw	s0,0(s0)
    80005720:	0000                	unimp
    80005722:	3f80                	fld	fs0,56(a5)
    80005724:	0000                	unimp
    80005726:	3f80                	fld	fs0,56(a5)
    80005728:	0000                	unimp
    8000572a:	4000                	lw	s0,0(s0)
    8000572c:	0000                	unimp
    8000572e:	4000                	lw	s0,0(s0)
    80005730:	0000                	unimp
    80005732:	3f80                	fld	fs0,56(a5)
    80005734:	0000                	unimp
    80005736:	4040                	lw	s0,4(s0)
    80005738:	0000                	unimp
    8000573a:	4000                	lw	s0,0(s0)
    8000573c:	0000                	unimp
    8000573e:	4000                	lw	s0,0(s0)
    80005740:	0000                	unimp
    80005742:	3f80                	fld	fs0,56(a5)
    80005744:	0000                	unimp
    80005746:	3f80                	fld	fs0,56(a5)
    80005748:	0000                	unimp
    8000574a:	4000                	lw	s0,0(s0)
    8000574c:	0000                	unimp
    8000574e:	3f80                	fld	fs0,56(a5)
    80005750:	0000                	unimp
    80005752:	4040                	lw	s0,4(s0)
    80005754:	0000                	unimp
    80005756:	4000                	lw	s0,0(s0)
    80005758:	0000                	unimp
    8000575a:	3f80                	fld	fs0,56(a5)
    8000575c:	0000                	unimp
    8000575e:	3f80                	fld	fs0,56(a5)
    80005760:	0000                	unimp
    80005762:	4040                	lw	s0,4(s0)
    80005764:	0000                	unimp
    80005766:	0000                	unimp
    80005768:	0000                	unimp
    8000576a:	3f80                	fld	fs0,56(a5)
    8000576c:	0000                	unimp
    8000576e:	4040                	lw	s0,4(s0)
    80005770:	0000                	unimp
    80005772:	4040                	lw	s0,4(s0)
    80005774:	0000                	unimp
    80005776:	4000                	lw	s0,0(s0)
    80005778:	0000                	unimp
    8000577a:	4000                	lw	s0,0(s0)
    8000577c:	0000                	unimp
    8000577e:	3f80                	fld	fs0,56(a5)
    80005780:	0000                	unimp
    80005782:	0000                	unimp
    80005784:	0000                	unimp
    80005786:	4040                	lw	s0,4(s0)
    80005788:	0000                	unimp
    8000578a:	4000                	lw	s0,0(s0)
    8000578c:	0000                	unimp
    8000578e:	4000                	lw	s0,0(s0)
    80005790:	0000                	unimp
    80005792:	4000                	lw	s0,0(s0)
    80005794:	0000                	unimp
    80005796:	4040                	lw	s0,4(s0)
    80005798:	0000                	unimp
    8000579a:	0000                	unimp
    8000579c:	0000                	unimp
    8000579e:	3f80                	fld	fs0,56(a5)
    800057a0:	0000                	unimp
    800057a2:	4040                	lw	s0,4(s0)
    800057a4:	0000                	unimp
    800057a6:	4040                	lw	s0,4(s0)
    800057a8:	0000                	unimp
    800057aa:	4000                	lw	s0,0(s0)
    800057ac:	0000                	unimp
    800057ae:	4040                	lw	s0,4(s0)
    800057b0:	0000                	unimp
    800057b2:	0000                	unimp
    800057b4:	0000                	unimp
    800057b6:	4040                	lw	s0,4(s0)
    800057b8:	0000                	unimp
    800057ba:	4000                	lw	s0,0(s0)
    800057bc:	0000                	unimp
    800057be:	4040                	lw	s0,4(s0)
    800057c0:	0000                	unimp
    800057c2:	3f80                	fld	fs0,56(a5)
    800057c4:	0000                	unimp
    800057c6:	3f80                	fld	fs0,56(a5)
    800057c8:	0000                	unimp
    800057ca:	0000                	unimp
    800057cc:	0000                	unimp
    800057ce:	0000                	unimp
    800057d0:	0000                	unimp
    800057d2:	0000                	unimp
    800057d4:	0000                	unimp
    800057d6:	4000                	lw	s0,0(s0)
    800057d8:	0000                	unimp
    800057da:	4040                	lw	s0,4(s0)
    800057dc:	0000                	unimp
    800057de:	0000                	unimp
    800057e0:	0000                	unimp
    800057e2:	4040                	lw	s0,4(s0)
    800057e4:	0000                	unimp
    800057e6:	0000                	unimp
    800057e8:	0000                	unimp
    800057ea:	3f80                	fld	fs0,56(a5)
    800057ec:	0000                	unimp
    800057ee:	3f80                	fld	fs0,56(a5)
    800057f0:	0000                	unimp
    800057f2:	4040                	lw	s0,4(s0)
    800057f4:	0000                	unimp
    800057f6:	3f80                	fld	fs0,56(a5)
    800057f8:	0000                	unimp
    800057fa:	4040                	lw	s0,4(s0)
    800057fc:	0000                	unimp
    800057fe:	4000                	lw	s0,0(s0)
    80005800:	0000                	unimp
    80005802:	3f80                	fld	fs0,56(a5)
    80005804:	0000                	unimp
    80005806:	3f80                	fld	fs0,56(a5)
    80005808:	0000                	unimp
    8000580a:	4000                	lw	s0,0(s0)
    8000580c:	0000                	unimp
    8000580e:	3f80                	fld	fs0,56(a5)
    80005810:	0000                	unimp
    80005812:	4040                	lw	s0,4(s0)
    80005814:	0000                	unimp
    80005816:	4000                	lw	s0,0(s0)
    80005818:	0000                	unimp
    8000581a:	0000                	unimp
    8000581c:	0000                	unimp
    8000581e:	4000                	lw	s0,0(s0)
    80005820:	0000                	unimp
    80005822:	3f80                	fld	fs0,56(a5)
    80005824:	0000                	unimp
    80005826:	0000                	unimp
    80005828:	0000                	unimp
    8000582a:	4000                	lw	s0,0(s0)
    8000582c:	0000                	unimp
    8000582e:	4040                	lw	s0,4(s0)
    80005830:	0000                	unimp
    80005832:	4000                	lw	s0,0(s0)
    80005834:	0000                	unimp
    80005836:	4040                	lw	s0,4(s0)
    80005838:	0000                	unimp
    8000583a:	4000                	lw	s0,0(s0)
    8000583c:	0000                	unimp
    8000583e:	3f80                	fld	fs0,56(a5)
    80005840:	0000                	unimp
    80005842:	4000                	lw	s0,0(s0)
    80005844:	0000                	unimp
    80005846:	4040                	lw	s0,4(s0)
    80005848:	0000                	unimp
    8000584a:	0000                	unimp
    8000584c:	0000                	unimp
    8000584e:	0000                	unimp
    80005850:	0000                	unimp
    80005852:	3f80                	fld	fs0,56(a5)
    80005854:	0000                	unimp
    80005856:	3f80                	fld	fs0,56(a5)
    80005858:	0000                	unimp
    8000585a:	0000                	unimp
    8000585c:	0000                	unimp
    8000585e:	0000                	unimp
    80005860:	0000                	unimp
    80005862:	4000                	lw	s0,0(s0)
    80005864:	0000                	unimp
    80005866:	3f80                	fld	fs0,56(a5)
    80005868:	0000                	unimp
    8000586a:	0000                	unimp
    8000586c:	0000                	unimp
    8000586e:	3f80                	fld	fs0,56(a5)
    80005870:	0000                	unimp
    80005872:	4000                	lw	s0,0(s0)
    80005874:	0000                	unimp
    80005876:	4000                	lw	s0,0(s0)
    80005878:	0000                	unimp
    8000587a:	4000                	lw	s0,0(s0)
    8000587c:	0000                	unimp
    8000587e:	4000                	lw	s0,0(s0)
    80005880:	0000                	unimp
    80005882:	0000                	unimp
    80005884:	0000                	unimp
    80005886:	4040                	lw	s0,4(s0)
    80005888:	0000                	unimp
    8000588a:	4040                	lw	s0,4(s0)
    8000588c:	0000                	unimp
    8000588e:	3f80                	fld	fs0,56(a5)
    80005890:	0000                	unimp
    80005892:	0000                	unimp
    80005894:	0000                	unimp
    80005896:	0000                	unimp
    80005898:	0000                	unimp
    8000589a:	0000                	unimp
    8000589c:	0000                	unimp
    8000589e:	0000                	unimp
    800058a0:	0000                	unimp
    800058a2:	4040                	lw	s0,4(s0)
    800058a4:	0000                	unimp
    800058a6:	3f80                	fld	fs0,56(a5)
    800058a8:	0000                	unimp
    800058aa:	3f80                	fld	fs0,56(a5)
    800058ac:	0000                	unimp
    800058ae:	0000                	unimp
    800058b0:	0000                	unimp
    800058b2:	0000                	unimp
    800058b4:	0000                	unimp
    800058b6:	0000                	unimp
    800058b8:	0000                	unimp
    800058ba:	0000                	unimp
    800058bc:	0000                	unimp
    800058be:	3f80                	fld	fs0,56(a5)
    800058c0:	0000                	unimp
    800058c2:	4000                	lw	s0,0(s0)
    800058c4:	0000                	unimp
    800058c6:	4000                	lw	s0,0(s0)
    800058c8:	0000                	unimp
    800058ca:	3f80                	fld	fs0,56(a5)
    800058cc:	0000                	unimp
    800058ce:	4040                	lw	s0,4(s0)
    800058d0:	0000                	unimp
    800058d2:	0000                	unimp
    800058d4:	0000                	unimp
    800058d6:	4000                	lw	s0,0(s0)
    800058d8:	0000                	unimp
    800058da:	4040                	lw	s0,4(s0)
    800058dc:	0000                	unimp
    800058de:	4000                	lw	s0,0(s0)
    800058e0:	0000                	unimp
    800058e2:	4040                	lw	s0,4(s0)
    800058e4:	0000                	unimp
    800058e6:	4000                	lw	s0,0(s0)
    800058e8:	0000                	unimp
    800058ea:	4000                	lw	s0,0(s0)
    800058ec:	0000                	unimp
    800058ee:	3f80                	fld	fs0,56(a5)
    800058f0:	0000                	unimp
    800058f2:	4000                	lw	s0,0(s0)
    800058f4:	0000                	unimp
    800058f6:	4000                	lw	s0,0(s0)
    800058f8:	0000                	unimp
    800058fa:	4040                	lw	s0,4(s0)
    800058fc:	0000                	unimp
    800058fe:	4040                	lw	s0,4(s0)
    80005900:	0000                	unimp
    80005902:	3f80                	fld	fs0,56(a5)
    80005904:	0000                	unimp
    80005906:	4040                	lw	s0,4(s0)
    80005908:	0000                	unimp
    8000590a:	0000                	unimp
    8000590c:	0000                	unimp
    8000590e:	4000                	lw	s0,0(s0)
    80005910:	0000                	unimp
    80005912:	4000                	lw	s0,0(s0)
    80005914:	0000                	unimp
    80005916:	4040                	lw	s0,4(s0)
    80005918:	0000                	unimp
    8000591a:	4040                	lw	s0,4(s0)
    8000591c:	0000                	unimp
    8000591e:	3f80                	fld	fs0,56(a5)
    80005920:	0000                	unimp
    80005922:	4000                	lw	s0,0(s0)
    80005924:	0000                	unimp
    80005926:	4000                	lw	s0,0(s0)
    80005928:	0000                	unimp
    8000592a:	4000                	lw	s0,0(s0)
    8000592c:	0000                	unimp
    8000592e:	4040                	lw	s0,4(s0)
    80005930:	0000                	unimp
    80005932:	3f80                	fld	fs0,56(a5)
    80005934:	0000                	unimp
    80005936:	3f80                	fld	fs0,56(a5)
    80005938:	0000                	unimp
    8000593a:	3f80                	fld	fs0,56(a5)
    8000593c:	0000                	unimp
    8000593e:	0000                	unimp
    80005940:	0000                	unimp
    80005942:	0000                	unimp
    80005944:	0000                	unimp
    80005946:	0000                	unimp
    80005948:	0000                	unimp
    8000594a:	4040                	lw	s0,4(s0)
    8000594c:	0000                	unimp
    8000594e:	0000                	unimp
    80005950:	0000                	unimp
    80005952:	3f80                	fld	fs0,56(a5)
    80005954:	0000                	unimp
    80005956:	0000                	unimp
    80005958:	0000                	unimp
    8000595a:	4040                	lw	s0,4(s0)
    8000595c:	0000                	unimp
    8000595e:	3f80                	fld	fs0,56(a5)
    80005960:	0000                	unimp
    80005962:	3f80                	fld	fs0,56(a5)
    80005964:	0000                	unimp
    80005966:	4040                	lw	s0,4(s0)
    80005968:	0000                	unimp
    8000596a:	0000                	unimp
    8000596c:	0000                	unimp
    8000596e:	3f80                	fld	fs0,56(a5)
    80005970:	0000                	unimp
    80005972:	4000                	lw	s0,0(s0)
    80005974:	0000                	unimp
    80005976:	4000                	lw	s0,0(s0)
    80005978:	0000                	unimp
    8000597a:	0000                	unimp
    8000597c:	0000                	unimp
    8000597e:	0000                	unimp
    80005980:	0000                	unimp
    80005982:	4040                	lw	s0,4(s0)
    80005984:	0000                	unimp
    80005986:	4040                	lw	s0,4(s0)
    80005988:	0000                	unimp
    8000598a:	4040                	lw	s0,4(s0)
    8000598c:	0000                	unimp
    8000598e:	4040                	lw	s0,4(s0)
    80005990:	0000                	unimp
    80005992:	4000                	lw	s0,0(s0)
    80005994:	0000                	unimp
    80005996:	3f80                	fld	fs0,56(a5)
    80005998:	0000                	unimp
    8000599a:	0000                	unimp
    8000599c:	0000                	unimp
    8000599e:	0000                	unimp
    800059a0:	0000                	unimp
    800059a2:	3f80                	fld	fs0,56(a5)
    800059a4:	0000                	unimp
    800059a6:	0000                	unimp
    800059a8:	0000                	unimp
    800059aa:	4000                	lw	s0,0(s0)
    800059ac:	0000                	unimp
    800059ae:	0000                	unimp
    800059b0:	0000                	unimp
    800059b2:	3f80                	fld	fs0,56(a5)
    800059b4:	0000                	unimp
    800059b6:	3f80                	fld	fs0,56(a5)
    800059b8:	0000                	unimp
    800059ba:	0000                	unimp
    800059bc:	0000                	unimp
    800059be:	0000                	unimp
    800059c0:	0000                	unimp
    800059c2:	4040                	lw	s0,4(s0)
    800059c4:	0000                	unimp
    800059c6:	4040                	lw	s0,4(s0)
    800059c8:	0000                	unimp
    800059ca:	4000                	lw	s0,0(s0)
    800059cc:	0000                	unimp
    800059ce:	3f80                	fld	fs0,56(a5)
    800059d0:	0000                	unimp
    800059d2:	3f80                	fld	fs0,56(a5)
    800059d4:	0000                	unimp
    800059d6:	3f80                	fld	fs0,56(a5)
    800059d8:	0000                	unimp
    800059da:	0000                	unimp
    800059dc:	0000                	unimp
    800059de:	3f80                	fld	fs0,56(a5)
    800059e0:	0000                	unimp
    800059e2:	3f80                	fld	fs0,56(a5)
    800059e4:	0000                	unimp
    800059e6:	4000                	lw	s0,0(s0)
    800059e8:	0000                	unimp
    800059ea:	4000                	lw	s0,0(s0)
    800059ec:	0000                	unimp
    800059ee:	3f80                	fld	fs0,56(a5)
    800059f0:	0000                	unimp
    800059f2:	3f80                	fld	fs0,56(a5)
    800059f4:	0000                	unimp
    800059f6:	4000                	lw	s0,0(s0)
    800059f8:	0000                	unimp
    800059fa:	0000                	unimp
    800059fc:	0000                	unimp
    800059fe:	4040                	lw	s0,4(s0)
    80005a00:	0000                	unimp
    80005a02:	3f80                	fld	fs0,56(a5)
    80005a04:	0000                	unimp
    80005a06:	4040                	lw	s0,4(s0)
    80005a08:	0000                	unimp
    80005a0a:	3f80                	fld	fs0,56(a5)
    80005a0c:	0000                	unimp
    80005a0e:	0000                	unimp
    80005a10:	0000                	unimp
    80005a12:	4040                	lw	s0,4(s0)
    80005a14:	0000                	unimp
    80005a16:	0000                	unimp
    80005a18:	0000                	unimp
    80005a1a:	4040                	lw	s0,4(s0)
    80005a1c:	0000                	unimp
    80005a1e:	3f80                	fld	fs0,56(a5)
    80005a20:	0000                	unimp
    80005a22:	3f80                	fld	fs0,56(a5)
    80005a24:	0000                	unimp
    80005a26:	3f80                	fld	fs0,56(a5)
    80005a28:	0000                	unimp
    80005a2a:	0000                	unimp
    80005a2c:	0000                	unimp
    80005a2e:	4000                	lw	s0,0(s0)
    80005a30:	0000                	unimp
    80005a32:	0000                	unimp
    80005a34:	0000                	unimp
    80005a36:	4040                	lw	s0,4(s0)
    80005a38:	0000                	unimp
    80005a3a:	3f80                	fld	fs0,56(a5)
    80005a3c:	0000                	unimp
    80005a3e:	0000                	unimp
    80005a40:	0000                	unimp
    80005a42:	3f80                	fld	fs0,56(a5)
    80005a44:	0000                	unimp
    80005a46:	0000                	unimp
    80005a48:	0000                	unimp
    80005a4a:	4000                	lw	s0,0(s0)
    80005a4c:	0000                	unimp
    80005a4e:	0000                	unimp
    80005a50:	0000                	unimp
    80005a52:	4000                	lw	s0,0(s0)
    80005a54:	0000                	unimp
    80005a56:	4040                	lw	s0,4(s0)
    80005a58:	0000                	unimp
    80005a5a:	4040                	lw	s0,4(s0)
    80005a5c:	0000                	unimp
    80005a5e:	4040                	lw	s0,4(s0)
    80005a60:	0000                	unimp
    80005a62:	3f80                	fld	fs0,56(a5)
    80005a64:	0000                	unimp
    80005a66:	4000                	lw	s0,0(s0)
    80005a68:	0000                	unimp
    80005a6a:	4040                	lw	s0,4(s0)
    80005a6c:	0000                	unimp
    80005a6e:	4000                	lw	s0,0(s0)
    80005a70:	0000                	unimp
    80005a72:	4000                	lw	s0,0(s0)
    80005a74:	0000                	unimp
    80005a76:	0000                	unimp
    80005a78:	0000                	unimp
    80005a7a:	3f80                	fld	fs0,56(a5)
    80005a7c:	0000                	unimp
    80005a7e:	3f80                	fld	fs0,56(a5)
    80005a80:	0000                	unimp
    80005a82:	0000                	unimp
    80005a84:	0000                	unimp
    80005a86:	4040                	lw	s0,4(s0)
    80005a88:	0000                	unimp
    80005a8a:	4040                	lw	s0,4(s0)
    80005a8c:	0000                	unimp
    80005a8e:	3f80                	fld	fs0,56(a5)
    80005a90:	0000                	unimp
    80005a92:	4040                	lw	s0,4(s0)
    80005a94:	0000                	unimp
    80005a96:	4040                	lw	s0,4(s0)
    80005a98:	0000                	unimp
    80005a9a:	4000                	lw	s0,0(s0)
    80005a9c:	0000                	unimp
    80005a9e:	0000                	unimp
    80005aa0:	0000                	unimp
    80005aa2:	4000                	lw	s0,0(s0)
    80005aa4:	0000                	unimp
    80005aa6:	0000                	unimp
    80005aa8:	0000                	unimp
    80005aaa:	4000                	lw	s0,0(s0)
    80005aac:	0000                	unimp
    80005aae:	4000                	lw	s0,0(s0)
    80005ab0:	0000                	unimp
    80005ab2:	4040                	lw	s0,4(s0)
    80005ab4:	0000                	unimp
    80005ab6:	4040                	lw	s0,4(s0)
    80005ab8:	0000                	unimp
    80005aba:	4040                	lw	s0,4(s0)
    80005abc:	0000                	unimp
    80005abe:	0000                	unimp
    80005ac0:	0000                	unimp
    80005ac2:	4000                	lw	s0,0(s0)
    80005ac4:	0000                	unimp
    80005ac6:	4040                	lw	s0,4(s0)
    80005ac8:	0000                	unimp
    80005aca:	4040                	lw	s0,4(s0)
    80005acc:	0000                	unimp
    80005ace:	3f80                	fld	fs0,56(a5)
    80005ad0:	0000                	unimp
    80005ad2:	4040                	lw	s0,4(s0)
    80005ad4:	0000                	unimp
    80005ad6:	4000                	lw	s0,0(s0)
    80005ad8:	0000                	unimp
    80005ada:	4000                	lw	s0,0(s0)
    80005adc:	0000                	unimp
    80005ade:	4000                	lw	s0,0(s0)
    80005ae0:	0000                	unimp
    80005ae2:	0000                	unimp
    80005ae4:	0000                	unimp
    80005ae6:	4000                	lw	s0,0(s0)
    80005ae8:	0000                	unimp
    80005aea:	4040                	lw	s0,4(s0)
    80005aec:	0000                	unimp
    80005aee:	0000                	unimp
    80005af0:	0000                	unimp
    80005af2:	4000                	lw	s0,0(s0)
    80005af4:	0000                	unimp
    80005af6:	0000                	unimp
    80005af8:	0000                	unimp
    80005afa:	4040                	lw	s0,4(s0)
    80005afc:	0000                	unimp
    80005afe:	4000                	lw	s0,0(s0)
    80005b00:	0000                	unimp
    80005b02:	4000                	lw	s0,0(s0)
    80005b04:	0000                	unimp
    80005b06:	3f80                	fld	fs0,56(a5)
    80005b08:	0000                	unimp
    80005b0a:	3f80                	fld	fs0,56(a5)
    80005b0c:	0000                	unimp
    80005b0e:	0000                	unimp
    80005b10:	0000                	unimp
    80005b12:	4000                	lw	s0,0(s0)
    80005b14:	0000                	unimp
    80005b16:	4000                	lw	s0,0(s0)
    80005b18:	0000                	unimp
    80005b1a:	4000                	lw	s0,0(s0)
    80005b1c:	0000                	unimp
    80005b1e:	0000                	unimp
    80005b20:	0000                	unimp
    80005b22:	4000                	lw	s0,0(s0)
    80005b24:	0000                	unimp
    80005b26:	4000                	lw	s0,0(s0)
    80005b28:	0000                	unimp
    80005b2a:	0000                	unimp
    80005b2c:	0000                	unimp
    80005b2e:	3f80                	fld	fs0,56(a5)
    80005b30:	0000                	unimp
    80005b32:	4040                	lw	s0,4(s0)
    80005b34:	0000                	unimp
    80005b36:	4000                	lw	s0,0(s0)
    80005b38:	0000                	unimp
    80005b3a:	3f80                	fld	fs0,56(a5)
    80005b3c:	0000                	unimp
    80005b3e:	4040                	lw	s0,4(s0)
    80005b40:	0000                	unimp
    80005b42:	4000                	lw	s0,0(s0)
    80005b44:	0000                	unimp
    80005b46:	4000                	lw	s0,0(s0)
    80005b48:	0000                	unimp
    80005b4a:	0000                	unimp
    80005b4c:	0000                	unimp
    80005b4e:	4040                	lw	s0,4(s0)
    80005b50:	0000                	unimp
    80005b52:	4040                	lw	s0,4(s0)
    80005b54:	0000                	unimp
    80005b56:	3f80                	fld	fs0,56(a5)
    80005b58:	0000                	unimp
    80005b5a:	4000                	lw	s0,0(s0)
    80005b5c:	0000                	unimp
    80005b5e:	4000                	lw	s0,0(s0)
    80005b60:	0000                	unimp
    80005b62:	0000                	unimp
    80005b64:	0000                	unimp
    80005b66:	0000                	unimp
    80005b68:	0000                	unimp
    80005b6a:	4040                	lw	s0,4(s0)
    80005b6c:	0000                	unimp
    80005b6e:	4000                	lw	s0,0(s0)
    80005b70:	0000                	unimp
    80005b72:	3f80                	fld	fs0,56(a5)
    80005b74:	0000                	unimp
    80005b76:	4000                	lw	s0,0(s0)
    80005b78:	0000                	unimp
    80005b7a:	4000                	lw	s0,0(s0)
    80005b7c:	0000                	unimp
    80005b7e:	3f80                	fld	fs0,56(a5)
    80005b80:	0000                	unimp
    80005b82:	4040                	lw	s0,4(s0)
    80005b84:	0000                	unimp
    80005b86:	3f80                	fld	fs0,56(a5)
    80005b88:	0000                	unimp
    80005b8a:	4000                	lw	s0,0(s0)
    80005b8c:	0000                	unimp
    80005b8e:	0000                	unimp
    80005b90:	0000                	unimp
    80005b92:	0000                	unimp
    80005b94:	0000                	unimp
    80005b96:	3f80                	fld	fs0,56(a5)
    80005b98:	0000                	unimp
    80005b9a:	3f80                	fld	fs0,56(a5)
    80005b9c:	0000                	unimp
    80005b9e:	4000                	lw	s0,0(s0)
    80005ba0:	0000                	unimp
    80005ba2:	3f80                	fld	fs0,56(a5)
    80005ba4:	0000                	unimp
    80005ba6:	4040                	lw	s0,4(s0)
    80005ba8:	0000                	unimp
    80005baa:	4000                	lw	s0,0(s0)
    80005bac:	0000                	unimp
    80005bae:	4000                	lw	s0,0(s0)
    80005bb0:	0000                	unimp
    80005bb2:	4040                	lw	s0,4(s0)
    80005bb4:	0000                	unimp
    80005bb6:	0000                	unimp
    80005bb8:	0000                	unimp
    80005bba:	4000                	lw	s0,0(s0)
    80005bbc:	0000                	unimp
    80005bbe:	3f80                	fld	fs0,56(a5)
    80005bc0:	0000                	unimp
    80005bc2:	4040                	lw	s0,4(s0)
    80005bc4:	0000                	unimp
    80005bc6:	4000                	lw	s0,0(s0)
    80005bc8:	0000                	unimp
    80005bca:	3f80                	fld	fs0,56(a5)
    80005bcc:	0000                	unimp
    80005bce:	4040                	lw	s0,4(s0)
    80005bd0:	0000                	unimp
    80005bd2:	4000                	lw	s0,0(s0)
    80005bd4:	0000                	unimp
    80005bd6:	4040                	lw	s0,4(s0)
    80005bd8:	0000                	unimp
    80005bda:	4040                	lw	s0,4(s0)
    80005bdc:	0000                	unimp
    80005bde:	3f80                	fld	fs0,56(a5)
    80005be0:	0000                	unimp
    80005be2:	4000                	lw	s0,0(s0)
    80005be4:	0000                	unimp
    80005be6:	3f80                	fld	fs0,56(a5)
    80005be8:	0000                	unimp
    80005bea:	4000                	lw	s0,0(s0)
    80005bec:	0000                	unimp
    80005bee:	4000                	lw	s0,0(s0)
    80005bf0:	0000                	unimp
    80005bf2:	0000                	unimp
    80005bf4:	0000                	unimp
    80005bf6:	0000                	unimp
    80005bf8:	0000                	unimp
    80005bfa:	0000                	unimp
    80005bfc:	0000                	unimp
    80005bfe:	4040                	lw	s0,4(s0)
    80005c00:	0000                	unimp
    80005c02:	0000                	unimp
    80005c04:	0000                	unimp
    80005c06:	4000                	lw	s0,0(s0)
    80005c08:	0000                	unimp
    80005c0a:	4040                	lw	s0,4(s0)
    80005c0c:	0000                	unimp
    80005c0e:	3f80                	fld	fs0,56(a5)
    80005c10:	0000                	unimp
    80005c12:	0000                	unimp
    80005c14:	0000                	unimp
    80005c16:	0000                	unimp
    80005c18:	0000                	unimp
    80005c1a:	4000                	lw	s0,0(s0)
    80005c1c:	0000                	unimp
    80005c1e:	4040                	lw	s0,4(s0)
    80005c20:	0000                	unimp
    80005c22:	4040                	lw	s0,4(s0)
    80005c24:	0000                	unimp
    80005c26:	4000                	lw	s0,0(s0)
    80005c28:	0000                	unimp
    80005c2a:	4000                	lw	s0,0(s0)
    80005c2c:	0000                	unimp
    80005c2e:	3f80                	fld	fs0,56(a5)
